
LoraBee Master.elf:     file format elf32-littlearm

Sections:
Idx Name          Size      VMA       LMA       File off  Algn
  0 .isr_vector   000000c0  08000000  08000000  00010000  2**0
                  CONTENTS, ALLOC, LOAD, READONLY, DATA
  1 .text         00007a2c  080000c0  080000c0  000100c0  2**2
                  CONTENTS, ALLOC, LOAD, READONLY, CODE
  2 .rodata       0000048c  08007aec  08007aec  00017aec  2**2
                  CONTENTS, ALLOC, LOAD, READONLY, DATA
  3 .ARM.extab    00000000  08007f78  08007f78  00020074  2**0
                  CONTENTS
  4 .ARM          00000008  08007f78  08007f78  00017f78  2**2
                  CONTENTS, ALLOC, LOAD, READONLY, DATA
  5 .preinit_array 00000000  08007f80  08007f80  00020074  2**0
                  CONTENTS, ALLOC, LOAD, DATA
  6 .init_array   00000004  08007f80  08007f80  00017f80  2**2
                  CONTENTS, ALLOC, LOAD, DATA
  7 .fini_array   00000004  08007f84  08007f84  00017f84  2**2
                  CONTENTS, ALLOC, LOAD, DATA
  8 .data         00000074  20000000  08007f88  00020000  2**2
                  CONTENTS, ALLOC, LOAD, DATA
  9 .bss          000001c0  20000074  08007ffc  00020074  2**2
                  ALLOC
 10 ._user_heap_stack 00000604  20000234  08007ffc  00020234  2**0
                  ALLOC
 11 .ARM.attributes 00000028  00000000  00000000  00020074  2**0
                  CONTENTS, READONLY
 12 .debug_info   0000b633  00000000  00000000  0002009c  2**0
                  CONTENTS, READONLY, DEBUGGING
 13 .debug_abbrev 00001e21  00000000  00000000  0002b6cf  2**0
                  CONTENTS, READONLY, DEBUGGING
 14 .debug_aranges 00000b40  00000000  00000000  0002d4f0  2**3
                  CONTENTS, READONLY, DEBUGGING
 15 .debug_ranges 00000a68  00000000  00000000  0002e030  2**3
                  CONTENTS, READONLY, DEBUGGING
 16 .debug_macro  000107a1  00000000  00000000  0002ea98  2**0
                  CONTENTS, READONLY, DEBUGGING
 17 .debug_line   00009366  00000000  00000000  0003f239  2**0
                  CONTENTS, READONLY, DEBUGGING
 18 .debug_str    00055c41  00000000  00000000  0004859f  2**0
                  CONTENTS, READONLY, DEBUGGING
 19 .comment      0000007b  00000000  00000000  0009e1e0  2**0
                  CONTENTS, READONLY
 20 .debug_frame  00002fc4  00000000  00000000  0009e25c  2**2
                  CONTENTS, READONLY, DEBUGGING

Disassembly of section .text:

080000c0 <__do_global_dtors_aux>:
 80000c0:	b510      	push	{r4, lr}
 80000c2:	4c06      	ldr	r4, [pc, #24]	; (80000dc <__do_global_dtors_aux+0x1c>)
 80000c4:	7823      	ldrb	r3, [r4, #0]
 80000c6:	2b00      	cmp	r3, #0
 80000c8:	d107      	bne.n	80000da <__do_global_dtors_aux+0x1a>
 80000ca:	4b05      	ldr	r3, [pc, #20]	; (80000e0 <__do_global_dtors_aux+0x20>)
 80000cc:	2b00      	cmp	r3, #0
 80000ce:	d002      	beq.n	80000d6 <__do_global_dtors_aux+0x16>
 80000d0:	4804      	ldr	r0, [pc, #16]	; (80000e4 <__do_global_dtors_aux+0x24>)
 80000d2:	e000      	b.n	80000d6 <__do_global_dtors_aux+0x16>
 80000d4:	bf00      	nop
 80000d6:	2301      	movs	r3, #1
 80000d8:	7023      	strb	r3, [r4, #0]
 80000da:	bd10      	pop	{r4, pc}
 80000dc:	20000074 	.word	0x20000074
 80000e0:	00000000 	.word	0x00000000
 80000e4:	08007ad4 	.word	0x08007ad4

080000e8 <frame_dummy>:
 80000e8:	4b04      	ldr	r3, [pc, #16]	; (80000fc <frame_dummy+0x14>)
 80000ea:	b510      	push	{r4, lr}
 80000ec:	2b00      	cmp	r3, #0
 80000ee:	d003      	beq.n	80000f8 <frame_dummy+0x10>
 80000f0:	4903      	ldr	r1, [pc, #12]	; (8000100 <frame_dummy+0x18>)
 80000f2:	4804      	ldr	r0, [pc, #16]	; (8000104 <frame_dummy+0x1c>)
 80000f4:	e000      	b.n	80000f8 <frame_dummy+0x10>
 80000f6:	bf00      	nop
 80000f8:	bd10      	pop	{r4, pc}
 80000fa:	46c0      	nop			; (mov r8, r8)
 80000fc:	00000000 	.word	0x00000000
 8000100:	20000078 	.word	0x20000078
 8000104:	08007ad4 	.word	0x08007ad4

08000108 <__udivsi3>:
 8000108:	2200      	movs	r2, #0
 800010a:	0843      	lsrs	r3, r0, #1
 800010c:	428b      	cmp	r3, r1
 800010e:	d374      	bcc.n	80001fa <__udivsi3+0xf2>
 8000110:	0903      	lsrs	r3, r0, #4
 8000112:	428b      	cmp	r3, r1
 8000114:	d35f      	bcc.n	80001d6 <__udivsi3+0xce>
 8000116:	0a03      	lsrs	r3, r0, #8
 8000118:	428b      	cmp	r3, r1
 800011a:	d344      	bcc.n	80001a6 <__udivsi3+0x9e>
 800011c:	0b03      	lsrs	r3, r0, #12
 800011e:	428b      	cmp	r3, r1
 8000120:	d328      	bcc.n	8000174 <__udivsi3+0x6c>
 8000122:	0c03      	lsrs	r3, r0, #16
 8000124:	428b      	cmp	r3, r1
 8000126:	d30d      	bcc.n	8000144 <__udivsi3+0x3c>
 8000128:	22ff      	movs	r2, #255	; 0xff
 800012a:	0209      	lsls	r1, r1, #8
 800012c:	ba12      	rev	r2, r2
 800012e:	0c03      	lsrs	r3, r0, #16
 8000130:	428b      	cmp	r3, r1
 8000132:	d302      	bcc.n	800013a <__udivsi3+0x32>
 8000134:	1212      	asrs	r2, r2, #8
 8000136:	0209      	lsls	r1, r1, #8
 8000138:	d065      	beq.n	8000206 <__udivsi3+0xfe>
 800013a:	0b03      	lsrs	r3, r0, #12
 800013c:	428b      	cmp	r3, r1
 800013e:	d319      	bcc.n	8000174 <__udivsi3+0x6c>
 8000140:	e000      	b.n	8000144 <__udivsi3+0x3c>
 8000142:	0a09      	lsrs	r1, r1, #8
 8000144:	0bc3      	lsrs	r3, r0, #15
 8000146:	428b      	cmp	r3, r1
 8000148:	d301      	bcc.n	800014e <__udivsi3+0x46>
 800014a:	03cb      	lsls	r3, r1, #15
 800014c:	1ac0      	subs	r0, r0, r3
 800014e:	4152      	adcs	r2, r2
 8000150:	0b83      	lsrs	r3, r0, #14
 8000152:	428b      	cmp	r3, r1
 8000154:	d301      	bcc.n	800015a <__udivsi3+0x52>
 8000156:	038b      	lsls	r3, r1, #14
 8000158:	1ac0      	subs	r0, r0, r3
 800015a:	4152      	adcs	r2, r2
 800015c:	0b43      	lsrs	r3, r0, #13
 800015e:	428b      	cmp	r3, r1
 8000160:	d301      	bcc.n	8000166 <__udivsi3+0x5e>
 8000162:	034b      	lsls	r3, r1, #13
 8000164:	1ac0      	subs	r0, r0, r3
 8000166:	4152      	adcs	r2, r2
 8000168:	0b03      	lsrs	r3, r0, #12
 800016a:	428b      	cmp	r3, r1
 800016c:	d301      	bcc.n	8000172 <__udivsi3+0x6a>
 800016e:	030b      	lsls	r3, r1, #12
 8000170:	1ac0      	subs	r0, r0, r3
 8000172:	4152      	adcs	r2, r2
 8000174:	0ac3      	lsrs	r3, r0, #11
 8000176:	428b      	cmp	r3, r1
 8000178:	d301      	bcc.n	800017e <__udivsi3+0x76>
 800017a:	02cb      	lsls	r3, r1, #11
 800017c:	1ac0      	subs	r0, r0, r3
 800017e:	4152      	adcs	r2, r2
 8000180:	0a83      	lsrs	r3, r0, #10
 8000182:	428b      	cmp	r3, r1
 8000184:	d301      	bcc.n	800018a <__udivsi3+0x82>
 8000186:	028b      	lsls	r3, r1, #10
 8000188:	1ac0      	subs	r0, r0, r3
 800018a:	4152      	adcs	r2, r2
 800018c:	0a43      	lsrs	r3, r0, #9
 800018e:	428b      	cmp	r3, r1
 8000190:	d301      	bcc.n	8000196 <__udivsi3+0x8e>
 8000192:	024b      	lsls	r3, r1, #9
 8000194:	1ac0      	subs	r0, r0, r3
 8000196:	4152      	adcs	r2, r2
 8000198:	0a03      	lsrs	r3, r0, #8
 800019a:	428b      	cmp	r3, r1
 800019c:	d301      	bcc.n	80001a2 <__udivsi3+0x9a>
 800019e:	020b      	lsls	r3, r1, #8
 80001a0:	1ac0      	subs	r0, r0, r3
 80001a2:	4152      	adcs	r2, r2
 80001a4:	d2cd      	bcs.n	8000142 <__udivsi3+0x3a>
 80001a6:	09c3      	lsrs	r3, r0, #7
 80001a8:	428b      	cmp	r3, r1
 80001aa:	d301      	bcc.n	80001b0 <__udivsi3+0xa8>
 80001ac:	01cb      	lsls	r3, r1, #7
 80001ae:	1ac0      	subs	r0, r0, r3
 80001b0:	4152      	adcs	r2, r2
 80001b2:	0983      	lsrs	r3, r0, #6
 80001b4:	428b      	cmp	r3, r1
 80001b6:	d301      	bcc.n	80001bc <__udivsi3+0xb4>
 80001b8:	018b      	lsls	r3, r1, #6
 80001ba:	1ac0      	subs	r0, r0, r3
 80001bc:	4152      	adcs	r2, r2
 80001be:	0943      	lsrs	r3, r0, #5
 80001c0:	428b      	cmp	r3, r1
 80001c2:	d301      	bcc.n	80001c8 <__udivsi3+0xc0>
 80001c4:	014b      	lsls	r3, r1, #5
 80001c6:	1ac0      	subs	r0, r0, r3
 80001c8:	4152      	adcs	r2, r2
 80001ca:	0903      	lsrs	r3, r0, #4
 80001cc:	428b      	cmp	r3, r1
 80001ce:	d301      	bcc.n	80001d4 <__udivsi3+0xcc>
 80001d0:	010b      	lsls	r3, r1, #4
 80001d2:	1ac0      	subs	r0, r0, r3
 80001d4:	4152      	adcs	r2, r2
 80001d6:	08c3      	lsrs	r3, r0, #3
 80001d8:	428b      	cmp	r3, r1
 80001da:	d301      	bcc.n	80001e0 <__udivsi3+0xd8>
 80001dc:	00cb      	lsls	r3, r1, #3
 80001de:	1ac0      	subs	r0, r0, r3
 80001e0:	4152      	adcs	r2, r2
 80001e2:	0883      	lsrs	r3, r0, #2
 80001e4:	428b      	cmp	r3, r1
 80001e6:	d301      	bcc.n	80001ec <__udivsi3+0xe4>
 80001e8:	008b      	lsls	r3, r1, #2
 80001ea:	1ac0      	subs	r0, r0, r3
 80001ec:	4152      	adcs	r2, r2
 80001ee:	0843      	lsrs	r3, r0, #1
 80001f0:	428b      	cmp	r3, r1
 80001f2:	d301      	bcc.n	80001f8 <__udivsi3+0xf0>
 80001f4:	004b      	lsls	r3, r1, #1
 80001f6:	1ac0      	subs	r0, r0, r3
 80001f8:	4152      	adcs	r2, r2
 80001fa:	1a41      	subs	r1, r0, r1
 80001fc:	d200      	bcs.n	8000200 <__udivsi3+0xf8>
 80001fe:	4601      	mov	r1, r0
 8000200:	4152      	adcs	r2, r2
 8000202:	4610      	mov	r0, r2
 8000204:	4770      	bx	lr
 8000206:	e7ff      	b.n	8000208 <__udivsi3+0x100>
 8000208:	b501      	push	{r0, lr}
 800020a:	2000      	movs	r0, #0
 800020c:	f000 f8f0 	bl	80003f0 <__aeabi_idiv0>
 8000210:	bd02      	pop	{r1, pc}
 8000212:	46c0      	nop			; (mov r8, r8)

08000214 <__aeabi_uidivmod>:
 8000214:	2900      	cmp	r1, #0
 8000216:	d0f7      	beq.n	8000208 <__udivsi3+0x100>
 8000218:	e776      	b.n	8000108 <__udivsi3>
 800021a:	4770      	bx	lr

0800021c <__divsi3>:
 800021c:	4603      	mov	r3, r0
 800021e:	430b      	orrs	r3, r1
 8000220:	d47f      	bmi.n	8000322 <__divsi3+0x106>
 8000222:	2200      	movs	r2, #0
 8000224:	0843      	lsrs	r3, r0, #1
 8000226:	428b      	cmp	r3, r1
 8000228:	d374      	bcc.n	8000314 <__divsi3+0xf8>
 800022a:	0903      	lsrs	r3, r0, #4
 800022c:	428b      	cmp	r3, r1
 800022e:	d35f      	bcc.n	80002f0 <__divsi3+0xd4>
 8000230:	0a03      	lsrs	r3, r0, #8
 8000232:	428b      	cmp	r3, r1
 8000234:	d344      	bcc.n	80002c0 <__divsi3+0xa4>
 8000236:	0b03      	lsrs	r3, r0, #12
 8000238:	428b      	cmp	r3, r1
 800023a:	d328      	bcc.n	800028e <__divsi3+0x72>
 800023c:	0c03      	lsrs	r3, r0, #16
 800023e:	428b      	cmp	r3, r1
 8000240:	d30d      	bcc.n	800025e <__divsi3+0x42>
 8000242:	22ff      	movs	r2, #255	; 0xff
 8000244:	0209      	lsls	r1, r1, #8
 8000246:	ba12      	rev	r2, r2
 8000248:	0c03      	lsrs	r3, r0, #16
 800024a:	428b      	cmp	r3, r1
 800024c:	d302      	bcc.n	8000254 <__divsi3+0x38>
 800024e:	1212      	asrs	r2, r2, #8
 8000250:	0209      	lsls	r1, r1, #8
 8000252:	d065      	beq.n	8000320 <__divsi3+0x104>
 8000254:	0b03      	lsrs	r3, r0, #12
 8000256:	428b      	cmp	r3, r1
 8000258:	d319      	bcc.n	800028e <__divsi3+0x72>
 800025a:	e000      	b.n	800025e <__divsi3+0x42>
 800025c:	0a09      	lsrs	r1, r1, #8
 800025e:	0bc3      	lsrs	r3, r0, #15
 8000260:	428b      	cmp	r3, r1
 8000262:	d301      	bcc.n	8000268 <__divsi3+0x4c>
 8000264:	03cb      	lsls	r3, r1, #15
 8000266:	1ac0      	subs	r0, r0, r3
 8000268:	4152      	adcs	r2, r2
 800026a:	0b83      	lsrs	r3, r0, #14
 800026c:	428b      	cmp	r3, r1
 800026e:	d301      	bcc.n	8000274 <__divsi3+0x58>
 8000270:	038b      	lsls	r3, r1, #14
 8000272:	1ac0      	subs	r0, r0, r3
 8000274:	4152      	adcs	r2, r2
 8000276:	0b43      	lsrs	r3, r0, #13
 8000278:	428b      	cmp	r3, r1
 800027a:	d301      	bcc.n	8000280 <__divsi3+0x64>
 800027c:	034b      	lsls	r3, r1, #13
 800027e:	1ac0      	subs	r0, r0, r3
 8000280:	4152      	adcs	r2, r2
 8000282:	0b03      	lsrs	r3, r0, #12
 8000284:	428b      	cmp	r3, r1
 8000286:	d301      	bcc.n	800028c <__divsi3+0x70>
 8000288:	030b      	lsls	r3, r1, #12
 800028a:	1ac0      	subs	r0, r0, r3
 800028c:	4152      	adcs	r2, r2
 800028e:	0ac3      	lsrs	r3, r0, #11
 8000290:	428b      	cmp	r3, r1
 8000292:	d301      	bcc.n	8000298 <__divsi3+0x7c>
 8000294:	02cb      	lsls	r3, r1, #11
 8000296:	1ac0      	subs	r0, r0, r3
 8000298:	4152      	adcs	r2, r2
 800029a:	0a83      	lsrs	r3, r0, #10
 800029c:	428b      	cmp	r3, r1
 800029e:	d301      	bcc.n	80002a4 <__divsi3+0x88>
 80002a0:	028b      	lsls	r3, r1, #10
 80002a2:	1ac0      	subs	r0, r0, r3
 80002a4:	4152      	adcs	r2, r2
 80002a6:	0a43      	lsrs	r3, r0, #9
 80002a8:	428b      	cmp	r3, r1
 80002aa:	d301      	bcc.n	80002b0 <__divsi3+0x94>
 80002ac:	024b      	lsls	r3, r1, #9
 80002ae:	1ac0      	subs	r0, r0, r3
 80002b0:	4152      	adcs	r2, r2
 80002b2:	0a03      	lsrs	r3, r0, #8
 80002b4:	428b      	cmp	r3, r1
 80002b6:	d301      	bcc.n	80002bc <__divsi3+0xa0>
 80002b8:	020b      	lsls	r3, r1, #8
 80002ba:	1ac0      	subs	r0, r0, r3
 80002bc:	4152      	adcs	r2, r2
 80002be:	d2cd      	bcs.n	800025c <__divsi3+0x40>
 80002c0:	09c3      	lsrs	r3, r0, #7
 80002c2:	428b      	cmp	r3, r1
 80002c4:	d301      	bcc.n	80002ca <__divsi3+0xae>
 80002c6:	01cb      	lsls	r3, r1, #7
 80002c8:	1ac0      	subs	r0, r0, r3
 80002ca:	4152      	adcs	r2, r2
 80002cc:	0983      	lsrs	r3, r0, #6
 80002ce:	428b      	cmp	r3, r1
 80002d0:	d301      	bcc.n	80002d6 <__divsi3+0xba>
 80002d2:	018b      	lsls	r3, r1, #6
 80002d4:	1ac0      	subs	r0, r0, r3
 80002d6:	4152      	adcs	r2, r2
 80002d8:	0943      	lsrs	r3, r0, #5
 80002da:	428b      	cmp	r3, r1
 80002dc:	d301      	bcc.n	80002e2 <__divsi3+0xc6>
 80002de:	014b      	lsls	r3, r1, #5
 80002e0:	1ac0      	subs	r0, r0, r3
 80002e2:	4152      	adcs	r2, r2
 80002e4:	0903      	lsrs	r3, r0, #4
 80002e6:	428b      	cmp	r3, r1
 80002e8:	d301      	bcc.n	80002ee <__divsi3+0xd2>
 80002ea:	010b      	lsls	r3, r1, #4
 80002ec:	1ac0      	subs	r0, r0, r3
 80002ee:	4152      	adcs	r2, r2
 80002f0:	08c3      	lsrs	r3, r0, #3
 80002f2:	428b      	cmp	r3, r1
 80002f4:	d301      	bcc.n	80002fa <__divsi3+0xde>
 80002f6:	00cb      	lsls	r3, r1, #3
 80002f8:	1ac0      	subs	r0, r0, r3
 80002fa:	4152      	adcs	r2, r2
 80002fc:	0883      	lsrs	r3, r0, #2
 80002fe:	428b      	cmp	r3, r1
 8000300:	d301      	bcc.n	8000306 <__divsi3+0xea>
 8000302:	008b      	lsls	r3, r1, #2
 8000304:	1ac0      	subs	r0, r0, r3
 8000306:	4152      	adcs	r2, r2
 8000308:	0843      	lsrs	r3, r0, #1
 800030a:	428b      	cmp	r3, r1
 800030c:	d301      	bcc.n	8000312 <__divsi3+0xf6>
 800030e:	004b      	lsls	r3, r1, #1
 8000310:	1ac0      	subs	r0, r0, r3
 8000312:	4152      	adcs	r2, r2
 8000314:	1a41      	subs	r1, r0, r1
 8000316:	d200      	bcs.n	800031a <__divsi3+0xfe>
 8000318:	4601      	mov	r1, r0
 800031a:	4152      	adcs	r2, r2
 800031c:	4610      	mov	r0, r2
 800031e:	4770      	bx	lr
 8000320:	e05d      	b.n	80003de <__divsi3+0x1c2>
 8000322:	0fca      	lsrs	r2, r1, #31
 8000324:	d000      	beq.n	8000328 <__divsi3+0x10c>
 8000326:	4249      	negs	r1, r1
 8000328:	1003      	asrs	r3, r0, #32
 800032a:	d300      	bcc.n	800032e <__divsi3+0x112>
 800032c:	4240      	negs	r0, r0
 800032e:	4053      	eors	r3, r2
 8000330:	2200      	movs	r2, #0
 8000332:	469c      	mov	ip, r3
 8000334:	0903      	lsrs	r3, r0, #4
 8000336:	428b      	cmp	r3, r1
 8000338:	d32d      	bcc.n	8000396 <__divsi3+0x17a>
 800033a:	0a03      	lsrs	r3, r0, #8
 800033c:	428b      	cmp	r3, r1
 800033e:	d312      	bcc.n	8000366 <__divsi3+0x14a>
 8000340:	22fc      	movs	r2, #252	; 0xfc
 8000342:	0189      	lsls	r1, r1, #6
 8000344:	ba12      	rev	r2, r2
 8000346:	0a03      	lsrs	r3, r0, #8
 8000348:	428b      	cmp	r3, r1
 800034a:	d30c      	bcc.n	8000366 <__divsi3+0x14a>
 800034c:	0189      	lsls	r1, r1, #6
 800034e:	1192      	asrs	r2, r2, #6
 8000350:	428b      	cmp	r3, r1
 8000352:	d308      	bcc.n	8000366 <__divsi3+0x14a>
 8000354:	0189      	lsls	r1, r1, #6
 8000356:	1192      	asrs	r2, r2, #6
 8000358:	428b      	cmp	r3, r1
 800035a:	d304      	bcc.n	8000366 <__divsi3+0x14a>
 800035c:	0189      	lsls	r1, r1, #6
 800035e:	d03a      	beq.n	80003d6 <__divsi3+0x1ba>
 8000360:	1192      	asrs	r2, r2, #6
 8000362:	e000      	b.n	8000366 <__divsi3+0x14a>
 8000364:	0989      	lsrs	r1, r1, #6
 8000366:	09c3      	lsrs	r3, r0, #7
 8000368:	428b      	cmp	r3, r1
 800036a:	d301      	bcc.n	8000370 <__divsi3+0x154>
 800036c:	01cb      	lsls	r3, r1, #7
 800036e:	1ac0      	subs	r0, r0, r3
 8000370:	4152      	adcs	r2, r2
 8000372:	0983      	lsrs	r3, r0, #6
 8000374:	428b      	cmp	r3, r1
 8000376:	d301      	bcc.n	800037c <__divsi3+0x160>
 8000378:	018b      	lsls	r3, r1, #6
 800037a:	1ac0      	subs	r0, r0, r3
 800037c:	4152      	adcs	r2, r2
 800037e:	0943      	lsrs	r3, r0, #5
 8000380:	428b      	cmp	r3, r1
 8000382:	d301      	bcc.n	8000388 <__divsi3+0x16c>
 8000384:	014b      	lsls	r3, r1, #5
 8000386:	1ac0      	subs	r0, r0, r3
 8000388:	4152      	adcs	r2, r2
 800038a:	0903      	lsrs	r3, r0, #4
 800038c:	428b      	cmp	r3, r1
 800038e:	d301      	bcc.n	8000394 <__divsi3+0x178>
 8000390:	010b      	lsls	r3, r1, #4
 8000392:	1ac0      	subs	r0, r0, r3
 8000394:	4152      	adcs	r2, r2
 8000396:	08c3      	lsrs	r3, r0, #3
 8000398:	428b      	cmp	r3, r1
 800039a:	d301      	bcc.n	80003a0 <__divsi3+0x184>
 800039c:	00cb      	lsls	r3, r1, #3
 800039e:	1ac0      	subs	r0, r0, r3
 80003a0:	4152      	adcs	r2, r2
 80003a2:	0883      	lsrs	r3, r0, #2
 80003a4:	428b      	cmp	r3, r1
 80003a6:	d301      	bcc.n	80003ac <__divsi3+0x190>
 80003a8:	008b      	lsls	r3, r1, #2
 80003aa:	1ac0      	subs	r0, r0, r3
 80003ac:	4152      	adcs	r2, r2
 80003ae:	d2d9      	bcs.n	8000364 <__divsi3+0x148>
 80003b0:	0843      	lsrs	r3, r0, #1
 80003b2:	428b      	cmp	r3, r1
 80003b4:	d301      	bcc.n	80003ba <__divsi3+0x19e>
 80003b6:	004b      	lsls	r3, r1, #1
 80003b8:	1ac0      	subs	r0, r0, r3
 80003ba:	4152      	adcs	r2, r2
 80003bc:	1a41      	subs	r1, r0, r1
 80003be:	d200      	bcs.n	80003c2 <__divsi3+0x1a6>
 80003c0:	4601      	mov	r1, r0
 80003c2:	4663      	mov	r3, ip
 80003c4:	4152      	adcs	r2, r2
 80003c6:	105b      	asrs	r3, r3, #1
 80003c8:	4610      	mov	r0, r2
 80003ca:	d301      	bcc.n	80003d0 <__divsi3+0x1b4>
 80003cc:	4240      	negs	r0, r0
 80003ce:	2b00      	cmp	r3, #0
 80003d0:	d500      	bpl.n	80003d4 <__divsi3+0x1b8>
 80003d2:	4249      	negs	r1, r1
 80003d4:	4770      	bx	lr
 80003d6:	4663      	mov	r3, ip
 80003d8:	105b      	asrs	r3, r3, #1
 80003da:	d300      	bcc.n	80003de <__divsi3+0x1c2>
 80003dc:	4240      	negs	r0, r0
 80003de:	b501      	push	{r0, lr}
 80003e0:	2000      	movs	r0, #0
 80003e2:	f000 f805 	bl	80003f0 <__aeabi_idiv0>
 80003e6:	bd02      	pop	{r1, pc}

080003e8 <__aeabi_idivmod>:
 80003e8:	2900      	cmp	r1, #0
 80003ea:	d0f8      	beq.n	80003de <__divsi3+0x1c2>
 80003ec:	e716      	b.n	800021c <__divsi3>
 80003ee:	4770      	bx	lr

080003f0 <__aeabi_idiv0>:
 80003f0:	4770      	bx	lr
 80003f2:	46c0      	nop			; (mov r8, r8)

080003f4 <__aeabi_uldivmod>:
 80003f4:	2b00      	cmp	r3, #0
 80003f6:	d111      	bne.n	800041c <__aeabi_uldivmod+0x28>
 80003f8:	2a00      	cmp	r2, #0
 80003fa:	d10f      	bne.n	800041c <__aeabi_uldivmod+0x28>
 80003fc:	2900      	cmp	r1, #0
 80003fe:	d100      	bne.n	8000402 <__aeabi_uldivmod+0xe>
 8000400:	2800      	cmp	r0, #0
 8000402:	d002      	beq.n	800040a <__aeabi_uldivmod+0x16>
 8000404:	2100      	movs	r1, #0
 8000406:	43c9      	mvns	r1, r1
 8000408:	1c08      	adds	r0, r1, #0
 800040a:	b407      	push	{r0, r1, r2}
 800040c:	4802      	ldr	r0, [pc, #8]	; (8000418 <__aeabi_uldivmod+0x24>)
 800040e:	a102      	add	r1, pc, #8	; (adr r1, 8000418 <__aeabi_uldivmod+0x24>)
 8000410:	1840      	adds	r0, r0, r1
 8000412:	9002      	str	r0, [sp, #8]
 8000414:	bd03      	pop	{r0, r1, pc}
 8000416:	46c0      	nop			; (mov r8, r8)
 8000418:	ffffffd9 	.word	0xffffffd9
 800041c:	b403      	push	{r0, r1}
 800041e:	4668      	mov	r0, sp
 8000420:	b501      	push	{r0, lr}
 8000422:	9802      	ldr	r0, [sp, #8]
 8000424:	f000 f806 	bl	8000434 <__udivmoddi4>
 8000428:	9b01      	ldr	r3, [sp, #4]
 800042a:	469e      	mov	lr, r3
 800042c:	b002      	add	sp, #8
 800042e:	bc0c      	pop	{r2, r3}
 8000430:	4770      	bx	lr
 8000432:	46c0      	nop			; (mov r8, r8)

08000434 <__udivmoddi4>:
 8000434:	b5f0      	push	{r4, r5, r6, r7, lr}
 8000436:	464f      	mov	r7, r9
 8000438:	4646      	mov	r6, r8
 800043a:	46d6      	mov	lr, sl
 800043c:	b5c0      	push	{r6, r7, lr}
 800043e:	0004      	movs	r4, r0
 8000440:	b082      	sub	sp, #8
 8000442:	000d      	movs	r5, r1
 8000444:	4691      	mov	r9, r2
 8000446:	4698      	mov	r8, r3
 8000448:	428b      	cmp	r3, r1
 800044a:	d82f      	bhi.n	80004ac <__udivmoddi4+0x78>
 800044c:	d02c      	beq.n	80004a8 <__udivmoddi4+0x74>
 800044e:	4641      	mov	r1, r8
 8000450:	4648      	mov	r0, r9
 8000452:	f000 f8b1 	bl	80005b8 <__clzdi2>
 8000456:	0029      	movs	r1, r5
 8000458:	0006      	movs	r6, r0
 800045a:	0020      	movs	r0, r4
 800045c:	f000 f8ac 	bl	80005b8 <__clzdi2>
 8000460:	1a33      	subs	r3, r6, r0
 8000462:	469c      	mov	ip, r3
 8000464:	3b20      	subs	r3, #32
 8000466:	469a      	mov	sl, r3
 8000468:	d500      	bpl.n	800046c <__udivmoddi4+0x38>
 800046a:	e076      	b.n	800055a <__udivmoddi4+0x126>
 800046c:	464b      	mov	r3, r9
 800046e:	4652      	mov	r2, sl
 8000470:	4093      	lsls	r3, r2
 8000472:	001f      	movs	r7, r3
 8000474:	464b      	mov	r3, r9
 8000476:	4662      	mov	r2, ip
 8000478:	4093      	lsls	r3, r2
 800047a:	001e      	movs	r6, r3
 800047c:	42af      	cmp	r7, r5
 800047e:	d828      	bhi.n	80004d2 <__udivmoddi4+0x9e>
 8000480:	d025      	beq.n	80004ce <__udivmoddi4+0x9a>
 8000482:	4653      	mov	r3, sl
 8000484:	1ba4      	subs	r4, r4, r6
 8000486:	41bd      	sbcs	r5, r7
 8000488:	2b00      	cmp	r3, #0
 800048a:	da00      	bge.n	800048e <__udivmoddi4+0x5a>
 800048c:	e07b      	b.n	8000586 <__udivmoddi4+0x152>
 800048e:	2200      	movs	r2, #0
 8000490:	2300      	movs	r3, #0
 8000492:	9200      	str	r2, [sp, #0]
 8000494:	9301      	str	r3, [sp, #4]
 8000496:	2301      	movs	r3, #1
 8000498:	4652      	mov	r2, sl
 800049a:	4093      	lsls	r3, r2
 800049c:	9301      	str	r3, [sp, #4]
 800049e:	2301      	movs	r3, #1
 80004a0:	4662      	mov	r2, ip
 80004a2:	4093      	lsls	r3, r2
 80004a4:	9300      	str	r3, [sp, #0]
 80004a6:	e018      	b.n	80004da <__udivmoddi4+0xa6>
 80004a8:	4282      	cmp	r2, r0
 80004aa:	d9d0      	bls.n	800044e <__udivmoddi4+0x1a>
 80004ac:	2200      	movs	r2, #0
 80004ae:	2300      	movs	r3, #0
 80004b0:	9200      	str	r2, [sp, #0]
 80004b2:	9301      	str	r3, [sp, #4]
 80004b4:	9b0a      	ldr	r3, [sp, #40]	; 0x28
 80004b6:	2b00      	cmp	r3, #0
 80004b8:	d001      	beq.n	80004be <__udivmoddi4+0x8a>
 80004ba:	601c      	str	r4, [r3, #0]
 80004bc:	605d      	str	r5, [r3, #4]
 80004be:	9800      	ldr	r0, [sp, #0]
 80004c0:	9901      	ldr	r1, [sp, #4]
 80004c2:	b002      	add	sp, #8
 80004c4:	bc1c      	pop	{r2, r3, r4}
 80004c6:	4690      	mov	r8, r2
 80004c8:	4699      	mov	r9, r3
 80004ca:	46a2      	mov	sl, r4
 80004cc:	bdf0      	pop	{r4, r5, r6, r7, pc}
 80004ce:	42a3      	cmp	r3, r4
 80004d0:	d9d7      	bls.n	8000482 <__udivmoddi4+0x4e>
 80004d2:	2200      	movs	r2, #0
 80004d4:	2300      	movs	r3, #0
 80004d6:	9200      	str	r2, [sp, #0]
 80004d8:	9301      	str	r3, [sp, #4]
 80004da:	4663      	mov	r3, ip
 80004dc:	2b00      	cmp	r3, #0
 80004de:	d0e9      	beq.n	80004b4 <__udivmoddi4+0x80>
 80004e0:	07fb      	lsls	r3, r7, #31
 80004e2:	4698      	mov	r8, r3
 80004e4:	4641      	mov	r1, r8
 80004e6:	0872      	lsrs	r2, r6, #1
 80004e8:	430a      	orrs	r2, r1
 80004ea:	087b      	lsrs	r3, r7, #1
 80004ec:	4666      	mov	r6, ip
 80004ee:	e00e      	b.n	800050e <__udivmoddi4+0xda>
 80004f0:	42ab      	cmp	r3, r5
 80004f2:	d101      	bne.n	80004f8 <__udivmoddi4+0xc4>
 80004f4:	42a2      	cmp	r2, r4
 80004f6:	d80c      	bhi.n	8000512 <__udivmoddi4+0xde>
 80004f8:	1aa4      	subs	r4, r4, r2
 80004fa:	419d      	sbcs	r5, r3
 80004fc:	2001      	movs	r0, #1
 80004fe:	1924      	adds	r4, r4, r4
 8000500:	416d      	adcs	r5, r5
 8000502:	2100      	movs	r1, #0
 8000504:	3e01      	subs	r6, #1
 8000506:	1824      	adds	r4, r4, r0
 8000508:	414d      	adcs	r5, r1
 800050a:	2e00      	cmp	r6, #0
 800050c:	d006      	beq.n	800051c <__udivmoddi4+0xe8>
 800050e:	42ab      	cmp	r3, r5
 8000510:	d9ee      	bls.n	80004f0 <__udivmoddi4+0xbc>
 8000512:	3e01      	subs	r6, #1
 8000514:	1924      	adds	r4, r4, r4
 8000516:	416d      	adcs	r5, r5
 8000518:	2e00      	cmp	r6, #0
 800051a:	d1f8      	bne.n	800050e <__udivmoddi4+0xda>
 800051c:	9800      	ldr	r0, [sp, #0]
 800051e:	9901      	ldr	r1, [sp, #4]
 8000520:	4653      	mov	r3, sl
 8000522:	1900      	adds	r0, r0, r4
 8000524:	4169      	adcs	r1, r5
 8000526:	2b00      	cmp	r3, #0
 8000528:	db23      	blt.n	8000572 <__udivmoddi4+0x13e>
 800052a:	002b      	movs	r3, r5
 800052c:	4652      	mov	r2, sl
 800052e:	40d3      	lsrs	r3, r2
 8000530:	002a      	movs	r2, r5
 8000532:	4664      	mov	r4, ip
 8000534:	40e2      	lsrs	r2, r4
 8000536:	001c      	movs	r4, r3
 8000538:	4653      	mov	r3, sl
 800053a:	0015      	movs	r5, r2
 800053c:	2b00      	cmp	r3, #0
 800053e:	db2d      	blt.n	800059c <__udivmoddi4+0x168>
 8000540:	0026      	movs	r6, r4
 8000542:	4657      	mov	r7, sl
 8000544:	40be      	lsls	r6, r7
 8000546:	0033      	movs	r3, r6
 8000548:	0026      	movs	r6, r4
 800054a:	4667      	mov	r7, ip
 800054c:	40be      	lsls	r6, r7
 800054e:	0032      	movs	r2, r6
 8000550:	1a80      	subs	r0, r0, r2
 8000552:	4199      	sbcs	r1, r3
 8000554:	9000      	str	r0, [sp, #0]
 8000556:	9101      	str	r1, [sp, #4]
 8000558:	e7ac      	b.n	80004b4 <__udivmoddi4+0x80>
 800055a:	4662      	mov	r2, ip
 800055c:	2320      	movs	r3, #32
 800055e:	1a9b      	subs	r3, r3, r2
 8000560:	464a      	mov	r2, r9
 8000562:	40da      	lsrs	r2, r3
 8000564:	4661      	mov	r1, ip
 8000566:	0013      	movs	r3, r2
 8000568:	4642      	mov	r2, r8
 800056a:	408a      	lsls	r2, r1
 800056c:	0017      	movs	r7, r2
 800056e:	431f      	orrs	r7, r3
 8000570:	e780      	b.n	8000474 <__udivmoddi4+0x40>
 8000572:	4662      	mov	r2, ip
 8000574:	2320      	movs	r3, #32
 8000576:	1a9b      	subs	r3, r3, r2
 8000578:	002a      	movs	r2, r5
 800057a:	4666      	mov	r6, ip
 800057c:	409a      	lsls	r2, r3
 800057e:	0023      	movs	r3, r4
 8000580:	40f3      	lsrs	r3, r6
 8000582:	4313      	orrs	r3, r2
 8000584:	e7d4      	b.n	8000530 <__udivmoddi4+0xfc>
 8000586:	4662      	mov	r2, ip
 8000588:	2320      	movs	r3, #32
 800058a:	2100      	movs	r1, #0
 800058c:	1a9b      	subs	r3, r3, r2
 800058e:	2200      	movs	r2, #0
 8000590:	9100      	str	r1, [sp, #0]
 8000592:	9201      	str	r2, [sp, #4]
 8000594:	2201      	movs	r2, #1
 8000596:	40da      	lsrs	r2, r3
 8000598:	9201      	str	r2, [sp, #4]
 800059a:	e780      	b.n	800049e <__udivmoddi4+0x6a>
 800059c:	2320      	movs	r3, #32
 800059e:	4662      	mov	r2, ip
 80005a0:	0026      	movs	r6, r4
 80005a2:	1a9b      	subs	r3, r3, r2
 80005a4:	40de      	lsrs	r6, r3
 80005a6:	002f      	movs	r7, r5
 80005a8:	46b0      	mov	r8, r6
 80005aa:	4666      	mov	r6, ip
 80005ac:	40b7      	lsls	r7, r6
 80005ae:	4646      	mov	r6, r8
 80005b0:	003b      	movs	r3, r7
 80005b2:	4333      	orrs	r3, r6
 80005b4:	e7c8      	b.n	8000548 <__udivmoddi4+0x114>
 80005b6:	46c0      	nop			; (mov r8, r8)

080005b8 <__clzdi2>:
 80005b8:	b510      	push	{r4, lr}
 80005ba:	2900      	cmp	r1, #0
 80005bc:	d103      	bne.n	80005c6 <__clzdi2+0xe>
 80005be:	f000 f807 	bl	80005d0 <__clzsi2>
 80005c2:	3020      	adds	r0, #32
 80005c4:	e002      	b.n	80005cc <__clzdi2+0x14>
 80005c6:	1c08      	adds	r0, r1, #0
 80005c8:	f000 f802 	bl	80005d0 <__clzsi2>
 80005cc:	bd10      	pop	{r4, pc}
 80005ce:	46c0      	nop			; (mov r8, r8)

080005d0 <__clzsi2>:
 80005d0:	211c      	movs	r1, #28
 80005d2:	2301      	movs	r3, #1
 80005d4:	041b      	lsls	r3, r3, #16
 80005d6:	4298      	cmp	r0, r3
 80005d8:	d301      	bcc.n	80005de <__clzsi2+0xe>
 80005da:	0c00      	lsrs	r0, r0, #16
 80005dc:	3910      	subs	r1, #16
 80005de:	0a1b      	lsrs	r3, r3, #8
 80005e0:	4298      	cmp	r0, r3
 80005e2:	d301      	bcc.n	80005e8 <__clzsi2+0x18>
 80005e4:	0a00      	lsrs	r0, r0, #8
 80005e6:	3908      	subs	r1, #8
 80005e8:	091b      	lsrs	r3, r3, #4
 80005ea:	4298      	cmp	r0, r3
 80005ec:	d301      	bcc.n	80005f2 <__clzsi2+0x22>
 80005ee:	0900      	lsrs	r0, r0, #4
 80005f0:	3904      	subs	r1, #4
 80005f2:	a202      	add	r2, pc, #8	; (adr r2, 80005fc <__clzsi2+0x2c>)
 80005f4:	5c10      	ldrb	r0, [r2, r0]
 80005f6:	1840      	adds	r0, r0, r1
 80005f8:	4770      	bx	lr
 80005fa:	46c0      	nop			; (mov r8, r8)
 80005fc:	02020304 	.word	0x02020304
 8000600:	01010101 	.word	0x01010101
	...

0800060c <lcd_command>:
//                  - LINE_TWO:      Line 2
//
//====================================================================

void lcd_command(unsigned char command)
{
 800060c:	b580      	push	{r7, lr}
 800060e:	b082      	sub	sp, #8
 8000610:	af00      	add	r7, sp, #0
 8000612:	0002      	movs	r2, r0
 8000614:	1dfb      	adds	r3, r7, #7
 8000616:	701a      	strb	r2, [r3, #0]
    GPIOC->BSRR |= LCD_RS_RESET;	// Register Select (RS)line low (data sent will now be read as commands);
 8000618:	4b61      	ldr	r3, [pc, #388]	; (80007a0 <lcd_command+0x194>)
 800061a:	699a      	ldr	r2, [r3, #24]
 800061c:	4b60      	ldr	r3, [pc, #384]	; (80007a0 <lcd_command+0x194>)
 800061e:	2180      	movs	r1, #128	; 0x80
 8000620:	05c9      	lsls	r1, r1, #23
 8000622:	430a      	orrs	r2, r1
 8000624:	619a      	str	r2, [r3, #24]

// Put upper nibble (upper 4-bits) on data lines, command mode
// DATALINE 7
    if ((command & 0x80) != 0)		// Select bit 7 of command, if HIGH set Data line 7 (D7) 
 8000626:	1dfb      	adds	r3, r7, #7
 8000628:	781b      	ldrb	r3, [r3, #0]
 800062a:	b25b      	sxtb	r3, r3
 800062c:	2b00      	cmp	r3, #0
 800062e:	da09      	bge.n	8000644 <lcd_command+0x38>
    {
    	GPIOA->BSRR |= LCD_D7_SET;
 8000630:	2390      	movs	r3, #144	; 0x90
 8000632:	05db      	lsls	r3, r3, #23
 8000634:	699a      	ldr	r2, [r3, #24]
 8000636:	2390      	movs	r3, #144	; 0x90
 8000638:	05db      	lsls	r3, r3, #23
 800063a:	2180      	movs	r1, #128	; 0x80
 800063c:	0209      	lsls	r1, r1, #8
 800063e:	430a      	orrs	r2, r1
 8000640:	619a      	str	r2, [r3, #24]
 8000642:	e008      	b.n	8000656 <lcd_command+0x4a>
    }
    else				// else RESET D7
    {
    	GPIOA->BSRR |= LCD_D7_RESET;
 8000644:	2390      	movs	r3, #144	; 0x90
 8000646:	05db      	lsls	r3, r3, #23
 8000648:	699a      	ldr	r2, [r3, #24]
 800064a:	2390      	movs	r3, #144	; 0x90
 800064c:	05db      	lsls	r3, r3, #23
 800064e:	2180      	movs	r1, #128	; 0x80
 8000650:	0609      	lsls	r1, r1, #24
 8000652:	430a      	orrs	r2, r1
 8000654:	619a      	str	r2, [r3, #24]
    }
// DATALINE 6
    if ((command & 0x40) != 0)		// Select bit 6 of command, if HIGH set Data line 6 (D6) 
 8000656:	1dfb      	adds	r3, r7, #7
 8000658:	781b      	ldrb	r3, [r3, #0]
 800065a:	2240      	movs	r2, #64	; 0x40
 800065c:	4013      	ands	r3, r2
 800065e:	d009      	beq.n	8000674 <lcd_command+0x68>
    {
        GPIOA->BSRR |= LCD_D6_SET;
 8000660:	2390      	movs	r3, #144	; 0x90
 8000662:	05db      	lsls	r3, r3, #23
 8000664:	699a      	ldr	r2, [r3, #24]
 8000666:	2390      	movs	r3, #144	; 0x90
 8000668:	05db      	lsls	r3, r3, #23
 800066a:	2180      	movs	r1, #128	; 0x80
 800066c:	0149      	lsls	r1, r1, #5
 800066e:	430a      	orrs	r2, r1
 8000670:	619a      	str	r2, [r3, #24]
 8000672:	e008      	b.n	8000686 <lcd_command+0x7a>
    }
    else				// else RESET D6
    {
        GPIOA->BSRR |= LCD_D6_RESET;
 8000674:	2390      	movs	r3, #144	; 0x90
 8000676:	05db      	lsls	r3, r3, #23
 8000678:	699a      	ldr	r2, [r3, #24]
 800067a:	2390      	movs	r3, #144	; 0x90
 800067c:	05db      	lsls	r3, r3, #23
 800067e:	2180      	movs	r1, #128	; 0x80
 8000680:	0549      	lsls	r1, r1, #21
 8000682:	430a      	orrs	r2, r1
 8000684:	619a      	str	r2, [r3, #24]
    }
// DATALINE 5
    if ((command & 0x20) != 0)		// Select bit 5 of command, if HIGH set Data line 5 (D5)
 8000686:	1dfb      	adds	r3, r7, #7
 8000688:	781b      	ldrb	r3, [r3, #0]
 800068a:	2220      	movs	r2, #32
 800068c:	4013      	ands	r3, r2
 800068e:	d007      	beq.n	80006a0 <lcd_command+0x94>
    {
    	GPIOB->BSRR |= LCD_D5_SET;	
 8000690:	4b44      	ldr	r3, [pc, #272]	; (80007a4 <lcd_command+0x198>)
 8000692:	699a      	ldr	r2, [r3, #24]
 8000694:	4b43      	ldr	r3, [pc, #268]	; (80007a4 <lcd_command+0x198>)
 8000696:	2180      	movs	r1, #128	; 0x80
 8000698:	0089      	lsls	r1, r1, #2
 800069a:	430a      	orrs	r2, r1
 800069c:	619a      	str	r2, [r3, #24]
 800069e:	e006      	b.n	80006ae <lcd_command+0xa2>
    }
    else				// else RESET D5
    {
    	GPIOB->BSRR |= LCD_D5_RESET;
 80006a0:	4b40      	ldr	r3, [pc, #256]	; (80007a4 <lcd_command+0x198>)
 80006a2:	699a      	ldr	r2, [r3, #24]
 80006a4:	4b3f      	ldr	r3, [pc, #252]	; (80007a4 <lcd_command+0x198>)
 80006a6:	2180      	movs	r1, #128	; 0x80
 80006a8:	0489      	lsls	r1, r1, #18
 80006aa:	430a      	orrs	r2, r1
 80006ac:	619a      	str	r2, [r3, #24]
    }
// DATALINE 4
    if ((command & 0x10) != 0)		// Select bit 4 of command, if HIGH set Data line 4 (D4)
 80006ae:	1dfb      	adds	r3, r7, #7
 80006b0:	781b      	ldrb	r3, [r3, #0]
 80006b2:	2210      	movs	r2, #16
 80006b4:	4013      	ands	r3, r2
 80006b6:	d007      	beq.n	80006c8 <lcd_command+0xbc>
    {
    	GPIOB->BSRR |= LCD_D4_SET;
 80006b8:	4b3a      	ldr	r3, [pc, #232]	; (80007a4 <lcd_command+0x198>)
 80006ba:	699a      	ldr	r2, [r3, #24]
 80006bc:	4b39      	ldr	r3, [pc, #228]	; (80007a4 <lcd_command+0x198>)
 80006be:	2180      	movs	r1, #128	; 0x80
 80006c0:	0049      	lsls	r1, r1, #1
 80006c2:	430a      	orrs	r2, r1
 80006c4:	619a      	str	r2, [r3, #24]
 80006c6:	e006      	b.n	80006d6 <lcd_command+0xca>
    }
    else				//  else RESET D4
    {
    	GPIOB->BSRR |= LCD_D4_RESET;
 80006c8:	4b36      	ldr	r3, [pc, #216]	; (80007a4 <lcd_command+0x198>)
 80006ca:	699a      	ldr	r2, [r3, #24]
 80006cc:	4b35      	ldr	r3, [pc, #212]	; (80007a4 <lcd_command+0x198>)
 80006ce:	2180      	movs	r1, #128	; 0x80
 80006d0:	0449      	lsls	r1, r1, #17
 80006d2:	430a      	orrs	r2, r1
 80006d4:	619a      	str	r2, [r3, #24]
    }

    pulse_strobe ();			// Send data
 80006d6:	f000 f9a3 	bl	8000a20 <pulse_strobe>

// lower nibble to data lines
    if ((command & 0x08) != 0)		// Select bit 3 of command, if HIGH set Data line 7 (D7) 
 80006da:	1dfb      	adds	r3, r7, #7
 80006dc:	781b      	ldrb	r3, [r3, #0]
 80006de:	2208      	movs	r2, #8
 80006e0:	4013      	ands	r3, r2
 80006e2:	d009      	beq.n	80006f8 <lcd_command+0xec>
    {
    	GPIOA->BSRR |= LCD_D7_SET;
 80006e4:	2390      	movs	r3, #144	; 0x90
 80006e6:	05db      	lsls	r3, r3, #23
 80006e8:	699a      	ldr	r2, [r3, #24]
 80006ea:	2390      	movs	r3, #144	; 0x90
 80006ec:	05db      	lsls	r3, r3, #23
 80006ee:	2180      	movs	r1, #128	; 0x80
 80006f0:	0209      	lsls	r1, r1, #8
 80006f2:	430a      	orrs	r2, r1
 80006f4:	619a      	str	r2, [r3, #24]
 80006f6:	e008      	b.n	800070a <lcd_command+0xfe>
    }
    else				// else RESET D7
    {
    	GPIOA->BSRR |= LCD_D7_RESET;
 80006f8:	2390      	movs	r3, #144	; 0x90
 80006fa:	05db      	lsls	r3, r3, #23
 80006fc:	699a      	ldr	r2, [r3, #24]
 80006fe:	2390      	movs	r3, #144	; 0x90
 8000700:	05db      	lsls	r3, r3, #23
 8000702:	2180      	movs	r1, #128	; 0x80
 8000704:	0609      	lsls	r1, r1, #24
 8000706:	430a      	orrs	r2, r1
 8000708:	619a      	str	r2, [r3, #24]
    }
// DATALINE 6
    if ((command & 0x04) != 0)		// Select bit 2 of command, if HIGH set Data line 6 (D6)
 800070a:	1dfb      	adds	r3, r7, #7
 800070c:	781b      	ldrb	r3, [r3, #0]
 800070e:	2204      	movs	r2, #4
 8000710:	4013      	ands	r3, r2
 8000712:	d009      	beq.n	8000728 <lcd_command+0x11c>
    {
        GPIOA->BSRR |= LCD_D6_SET;
 8000714:	2390      	movs	r3, #144	; 0x90
 8000716:	05db      	lsls	r3, r3, #23
 8000718:	699a      	ldr	r2, [r3, #24]
 800071a:	2390      	movs	r3, #144	; 0x90
 800071c:	05db      	lsls	r3, r3, #23
 800071e:	2180      	movs	r1, #128	; 0x80
 8000720:	0149      	lsls	r1, r1, #5
 8000722:	430a      	orrs	r2, r1
 8000724:	619a      	str	r2, [r3, #24]
 8000726:	e008      	b.n	800073a <lcd_command+0x12e>
    }
    else				//  else RESET D6
    {
        GPIOA->BSRR |= LCD_D6_RESET;
 8000728:	2390      	movs	r3, #144	; 0x90
 800072a:	05db      	lsls	r3, r3, #23
 800072c:	699a      	ldr	r2, [r3, #24]
 800072e:	2390      	movs	r3, #144	; 0x90
 8000730:	05db      	lsls	r3, r3, #23
 8000732:	2180      	movs	r1, #128	; 0x80
 8000734:	0549      	lsls	r1, r1, #21
 8000736:	430a      	orrs	r2, r1
 8000738:	619a      	str	r2, [r3, #24]
    }
    // DATALINE 5
    if ((command & 0x02) != 0)		// Select bit 1 of command, if HIGH set Data line 5 (D5)
 800073a:	1dfb      	adds	r3, r7, #7
 800073c:	781b      	ldrb	r3, [r3, #0]
 800073e:	2202      	movs	r2, #2
 8000740:	4013      	ands	r3, r2
 8000742:	d007      	beq.n	8000754 <lcd_command+0x148>
    {
    	GPIOB->BSRR |= LCD_D5_SET;         
 8000744:	4b17      	ldr	r3, [pc, #92]	; (80007a4 <lcd_command+0x198>)
 8000746:	699a      	ldr	r2, [r3, #24]
 8000748:	4b16      	ldr	r3, [pc, #88]	; (80007a4 <lcd_command+0x198>)
 800074a:	2180      	movs	r1, #128	; 0x80
 800074c:	0089      	lsls	r1, r1, #2
 800074e:	430a      	orrs	r2, r1
 8000750:	619a      	str	r2, [r3, #24]
 8000752:	e006      	b.n	8000762 <lcd_command+0x156>
    }
    else				//  else RESET D5
    {
    	GPIOB->BSRR |= LCD_D5_RESET;
 8000754:	4b13      	ldr	r3, [pc, #76]	; (80007a4 <lcd_command+0x198>)
 8000756:	699a      	ldr	r2, [r3, #24]
 8000758:	4b12      	ldr	r3, [pc, #72]	; (80007a4 <lcd_command+0x198>)
 800075a:	2180      	movs	r1, #128	; 0x80
 800075c:	0489      	lsls	r1, r1, #18
 800075e:	430a      	orrs	r2, r1
 8000760:	619a      	str	r2, [r3, #24]
    }
    // DATALINE 4
    if ((command & 0x01) != 0)		// Select bit 0 of command, if HIGH set Data line 4 (D4)
 8000762:	1dfb      	adds	r3, r7, #7
 8000764:	781b      	ldrb	r3, [r3, #0]
 8000766:	2201      	movs	r2, #1
 8000768:	4013      	ands	r3, r2
 800076a:	d007      	beq.n	800077c <lcd_command+0x170>
    {
    	GPIOB->BSRR |= LCD_D4_SET;
 800076c:	4b0d      	ldr	r3, [pc, #52]	; (80007a4 <lcd_command+0x198>)
 800076e:	699a      	ldr	r2, [r3, #24]
 8000770:	4b0c      	ldr	r3, [pc, #48]	; (80007a4 <lcd_command+0x198>)
 8000772:	2180      	movs	r1, #128	; 0x80
 8000774:	0049      	lsls	r1, r1, #1
 8000776:	430a      	orrs	r2, r1
 8000778:	619a      	str	r2, [r3, #24]
 800077a:	e006      	b.n	800078a <lcd_command+0x17e>
    }
    else				//  else RESET D4
    {
    	GPIOB->BSRR |= LCD_D4_RESET;
 800077c:	4b09      	ldr	r3, [pc, #36]	; (80007a4 <lcd_command+0x198>)
 800077e:	699a      	ldr	r2, [r3, #24]
 8000780:	4b08      	ldr	r3, [pc, #32]	; (80007a4 <lcd_command+0x198>)
 8000782:	2180      	movs	r1, #128	; 0x80
 8000784:	0449      	lsls	r1, r1, #17
 8000786:	430a      	orrs	r2, r1
 8000788:	619a      	str	r2, [r3, #24]
    }

    pulse_strobe();			// Send data
 800078a:	f000 f949 	bl	8000a20 <pulse_strobe>
    delay(3000);
 800078e:	4b06      	ldr	r3, [pc, #24]	; (80007a8 <lcd_command+0x19c>)
 8000790:	0018      	movs	r0, r3
 8000792:	f000 f96b 	bl	8000a6c <delay>
}
 8000796:	46c0      	nop			; (mov r8, r8)
 8000798:	46bd      	mov	sp, r7
 800079a:	b002      	add	sp, #8
 800079c:	bd80      	pop	{r7, pc}
 800079e:	46c0      	nop			; (mov r8, r8)
 80007a0:	48000800 	.word	0x48000800
 80007a4:	48000400 	.word	0x48000400
 80007a8:	00000bb8 	.word	0x00000bb8

080007ac <init_LCD>:
//                - Two lines used
//                - Flashing cursor
//====================================================================

void init_LCD(void)
{
 80007ac:	b580      	push	{r7, lr}
 80007ae:	af00      	add	r7, sp, #0
    RCC->AHBENR |= RCC_AHBENR_GPIOAEN;	// Connect clocks to GPIO A, B and C
 80007b0:	4b20      	ldr	r3, [pc, #128]	; (8000834 <init_LCD+0x88>)
 80007b2:	695a      	ldr	r2, [r3, #20]
 80007b4:	4b1f      	ldr	r3, [pc, #124]	; (8000834 <init_LCD+0x88>)
 80007b6:	2180      	movs	r1, #128	; 0x80
 80007b8:	0289      	lsls	r1, r1, #10
 80007ba:	430a      	orrs	r2, r1
 80007bc:	615a      	str	r2, [r3, #20]
    RCC->AHBENR |= RCC_AHBENR_GPIOBEN;
 80007be:	4b1d      	ldr	r3, [pc, #116]	; (8000834 <init_LCD+0x88>)
 80007c0:	695a      	ldr	r2, [r3, #20]
 80007c2:	4b1c      	ldr	r3, [pc, #112]	; (8000834 <init_LCD+0x88>)
 80007c4:	2180      	movs	r1, #128	; 0x80
 80007c6:	02c9      	lsls	r1, r1, #11
 80007c8:	430a      	orrs	r2, r1
 80007ca:	615a      	str	r2, [r3, #20]
    RCC->AHBENR |= RCC_AHBENR_GPIOCEN;
 80007cc:	4b19      	ldr	r3, [pc, #100]	; (8000834 <init_LCD+0x88>)
 80007ce:	695a      	ldr	r2, [r3, #20]
 80007d0:	4b18      	ldr	r3, [pc, #96]	; (8000834 <init_LCD+0x88>)
 80007d2:	2180      	movs	r1, #128	; 0x80
 80007d4:	0309      	lsls	r1, r1, #12
 80007d6:	430a      	orrs	r2, r1
 80007d8:	615a      	str	r2, [r3, #20]

    GPIOA->MODER |= (GPIO_MODER_MODER12_0|GPIO_MODER_MODER15_0); // D6 and D7
 80007da:	2390      	movs	r3, #144	; 0x90
 80007dc:	05db      	lsls	r3, r3, #23
 80007de:	681a      	ldr	r2, [r3, #0]
 80007e0:	2390      	movs	r3, #144	; 0x90
 80007e2:	05db      	lsls	r3, r3, #23
 80007e4:	2182      	movs	r1, #130	; 0x82
 80007e6:	05c9      	lsls	r1, r1, #23
 80007e8:	430a      	orrs	r2, r1
 80007ea:	601a      	str	r2, [r3, #0]
    GPIOB->MODER |= (GPIO_MODER_MODER8_0|GPIO_MODER_MODER9_0);   // D4 and D5
 80007ec:	4b12      	ldr	r3, [pc, #72]	; (8000838 <init_LCD+0x8c>)
 80007ee:	681a      	ldr	r2, [r3, #0]
 80007f0:	4b11      	ldr	r3, [pc, #68]	; (8000838 <init_LCD+0x8c>)
 80007f2:	21a0      	movs	r1, #160	; 0xa0
 80007f4:	02c9      	lsls	r1, r1, #11
 80007f6:	430a      	orrs	r2, r1
 80007f8:	601a      	str	r2, [r3, #0]
    GPIOC->MODER |= (GPIO_MODER_MODER14_0|GPIO_MODER_MODER15_0); // RS and EN
 80007fa:	4b10      	ldr	r3, [pc, #64]	; (800083c <init_LCD+0x90>)
 80007fc:	681a      	ldr	r2, [r3, #0]
 80007fe:	4b0f      	ldr	r3, [pc, #60]	; (800083c <init_LCD+0x90>)
 8000800:	21a0      	movs	r1, #160	; 0xa0
 8000802:	05c9      	lsls	r1, r1, #23
 8000804:	430a      	orrs	r2, r1
 8000806:	601a      	str	r2, [r3, #0]

    delay(30000);			// Allow the LCD some power up time (~30ms)
 8000808:	4b0d      	ldr	r3, [pc, #52]	; (8000840 <init_LCD+0x94>)
 800080a:	0018      	movs	r0, r3
 800080c:	f000 f92e 	bl	8000a6c <delay>

    lcd_command(POWER_UP);		// Power up initialization for the lcd
 8000810:	2033      	movs	r0, #51	; 0x33
 8000812:	f7ff fefb 	bl	800060c <lcd_command>
    lcd_command(FOURBIT_MODE);		// Set LCD into 4 bit mode
 8000816:	2032      	movs	r0, #50	; 0x32
 8000818:	f7ff fef8 	bl	800060c <lcd_command>
    lcd_command(DISPLAY_ON);		// Turn display on and set up cursor
 800081c:	200c      	movs	r0, #12
 800081e:	f7ff fef5 	bl	800060c <lcd_command>
    lcd_command(TWOLINE_MODE);		// Set up 2 lines and character size
 8000822:	2028      	movs	r0, #40	; 0x28
 8000824:	f7ff fef2 	bl	800060c <lcd_command>
    lcd_command(CLEAR);			// Clear display
 8000828:	2001      	movs	r0, #1
 800082a:	f7ff feef 	bl	800060c <lcd_command>
}
 800082e:	46c0      	nop			; (mov r8, r8)
 8000830:	46bd      	mov	sp, r7
 8000832:	bd80      	pop	{r7, pc}
 8000834:	40021000 	.word	0x40021000
 8000838:	48000400 	.word	0x48000400
 800083c:	48000800 	.word	0x48000800
 8000840:	00007530 	.word	0x00007530

08000844 <lcd_putchar>:
//              Refer to the Hitachi HD44780 datasheet for full character
//              set information.
//====================================================================

 void lcd_putchar(unsigned char character)
{
 8000844:	b580      	push	{r7, lr}
 8000846:	b082      	sub	sp, #8
 8000848:	af00      	add	r7, sp, #0
 800084a:	0002      	movs	r2, r0
 800084c:	1dfb      	adds	r3, r7, #7
 800084e:	701a      	strb	r2, [r3, #0]
	GPIOC->BSRR |= LCD_RS_SET;	// Register Select (RS) line HIGH (data sent will now be read as text);
 8000850:	4b5f      	ldr	r3, [pc, #380]	; (80009d0 <lcd_putchar+0x18c>)
 8000852:	699a      	ldr	r2, [r3, #24]
 8000854:	4b5e      	ldr	r3, [pc, #376]	; (80009d0 <lcd_putchar+0x18c>)
 8000856:	2180      	movs	r1, #128	; 0x80
 8000858:	01c9      	lsls	r1, r1, #7
 800085a:	430a      	orrs	r2, r1
 800085c:	619a      	str	r2, [r3, #24]
// Put upper nibble (upper 4-bits) on data lines, command mode
// DATALINE 7
        if ((character & 0x80) != 0) 	// Select bit 7 of command, if HIGH set Data line 7 (D7)
 800085e:	1dfb      	adds	r3, r7, #7
 8000860:	781b      	ldrb	r3, [r3, #0]
 8000862:	b25b      	sxtb	r3, r3
 8000864:	2b00      	cmp	r3, #0
 8000866:	da09      	bge.n	800087c <lcd_putchar+0x38>
        {
        	GPIOA->BSRR |= LCD_D7_SET;
 8000868:	2390      	movs	r3, #144	; 0x90
 800086a:	05db      	lsls	r3, r3, #23
 800086c:	699a      	ldr	r2, [r3, #24]
 800086e:	2390      	movs	r3, #144	; 0x90
 8000870:	05db      	lsls	r3, r3, #23
 8000872:	2180      	movs	r1, #128	; 0x80
 8000874:	0209      	lsls	r1, r1, #8
 8000876:	430a      	orrs	r2, r1
 8000878:	619a      	str	r2, [r3, #24]
 800087a:	e008      	b.n	800088e <lcd_putchar+0x4a>
        }
        else				//  else RESET D7
        {
        	GPIOA->BSRR |= LCD_D7_RESET;
 800087c:	2390      	movs	r3, #144	; 0x90
 800087e:	05db      	lsls	r3, r3, #23
 8000880:	699a      	ldr	r2, [r3, #24]
 8000882:	2390      	movs	r3, #144	; 0x90
 8000884:	05db      	lsls	r3, r3, #23
 8000886:	2180      	movs	r1, #128	; 0x80
 8000888:	0609      	lsls	r1, r1, #24
 800088a:	430a      	orrs	r2, r1
 800088c:	619a      	str	r2, [r3, #24]
        }
        // DATALINE 6
        if ((character & 0x40) != 0)	// Select bit 6 of command, if HIGH set Data line 6 (D6)       
 800088e:	1dfb      	adds	r3, r7, #7
 8000890:	781b      	ldrb	r3, [r3, #0]
 8000892:	2240      	movs	r2, #64	; 0x40
 8000894:	4013      	ands	r3, r2
 8000896:	d009      	beq.n	80008ac <lcd_putchar+0x68>
	{
            GPIOA->BSRR |= LCD_D6_SET;
 8000898:	2390      	movs	r3, #144	; 0x90
 800089a:	05db      	lsls	r3, r3, #23
 800089c:	699a      	ldr	r2, [r3, #24]
 800089e:	2390      	movs	r3, #144	; 0x90
 80008a0:	05db      	lsls	r3, r3, #23
 80008a2:	2180      	movs	r1, #128	; 0x80
 80008a4:	0149      	lsls	r1, r1, #5
 80008a6:	430a      	orrs	r2, r1
 80008a8:	619a      	str	r2, [r3, #24]
 80008aa:	e008      	b.n	80008be <lcd_putchar+0x7a>
        }
        else				//  else RESET D6

        {
            GPIOA->BSRR |= LCD_D6_RESET;
 80008ac:	2390      	movs	r3, #144	; 0x90
 80008ae:	05db      	lsls	r3, r3, #23
 80008b0:	699a      	ldr	r2, [r3, #24]
 80008b2:	2390      	movs	r3, #144	; 0x90
 80008b4:	05db      	lsls	r3, r3, #23
 80008b6:	2180      	movs	r1, #128	; 0x80
 80008b8:	0549      	lsls	r1, r1, #21
 80008ba:	430a      	orrs	r2, r1
 80008bc:	619a      	str	r2, [r3, #24]
        }
// DATALINE 5
        if ((character & 0x20) != 0)	// Select bit 5 of command, if HIGH set Data line 5 (D5)
 80008be:	1dfb      	adds	r3, r7, #7
 80008c0:	781b      	ldrb	r3, [r3, #0]
 80008c2:	2220      	movs	r2, #32
 80008c4:	4013      	ands	r3, r2
 80008c6:	d007      	beq.n	80008d8 <lcd_putchar+0x94>

        {
        	GPIOB->BSRR |= LCD_D5_SET;                 
 80008c8:	4b42      	ldr	r3, [pc, #264]	; (80009d4 <lcd_putchar+0x190>)
 80008ca:	699a      	ldr	r2, [r3, #24]
 80008cc:	4b41      	ldr	r3, [pc, #260]	; (80009d4 <lcd_putchar+0x190>)
 80008ce:	2180      	movs	r1, #128	; 0x80
 80008d0:	0089      	lsls	r1, r1, #2
 80008d2:	430a      	orrs	r2, r1
 80008d4:	619a      	str	r2, [r3, #24]
 80008d6:	e006      	b.n	80008e6 <lcd_putchar+0xa2>
	}
        else				//  else RESET D5
        {
        	GPIOB->BSRR |= LCD_D5_RESET;
 80008d8:	4b3e      	ldr	r3, [pc, #248]	; (80009d4 <lcd_putchar+0x190>)
 80008da:	699a      	ldr	r2, [r3, #24]
 80008dc:	4b3d      	ldr	r3, [pc, #244]	; (80009d4 <lcd_putchar+0x190>)
 80008de:	2180      	movs	r1, #128	; 0x80
 80008e0:	0489      	lsls	r1, r1, #18
 80008e2:	430a      	orrs	r2, r1
 80008e4:	619a      	str	r2, [r3, #24]
        }
// DATALINE 4
        if ((character & 0x10) != 0)	// Select bit 4 of command, if HIGH set Data line 4 (D4) 
 80008e6:	1dfb      	adds	r3, r7, #7
 80008e8:	781b      	ldrb	r3, [r3, #0]
 80008ea:	2210      	movs	r2, #16
 80008ec:	4013      	ands	r3, r2
 80008ee:	d007      	beq.n	8000900 <lcd_putchar+0xbc>
        {
        	GPIOB->BSRR |= LCD_D4_SET;
 80008f0:	4b38      	ldr	r3, [pc, #224]	; (80009d4 <lcd_putchar+0x190>)
 80008f2:	699a      	ldr	r2, [r3, #24]
 80008f4:	4b37      	ldr	r3, [pc, #220]	; (80009d4 <lcd_putchar+0x190>)
 80008f6:	2180      	movs	r1, #128	; 0x80
 80008f8:	0049      	lsls	r1, r1, #1
 80008fa:	430a      	orrs	r2, r1
 80008fc:	619a      	str	r2, [r3, #24]
 80008fe:	e006      	b.n	800090e <lcd_putchar+0xca>
        }
        else				// else RESET D4
        {
        	GPIOB->BSRR |= LCD_D4_RESET;
 8000900:	4b34      	ldr	r3, [pc, #208]	; (80009d4 <lcd_putchar+0x190>)
 8000902:	699a      	ldr	r2, [r3, #24]
 8000904:	4b33      	ldr	r3, [pc, #204]	; (80009d4 <lcd_putchar+0x190>)
 8000906:	2180      	movs	r1, #128	; 0x80
 8000908:	0449      	lsls	r1, r1, #17
 800090a:	430a      	orrs	r2, r1
 800090c:	619a      	str	r2, [r3, #24]
        }

        pulse_strobe ();		// Send data
 800090e:	f000 f887 	bl	8000a20 <pulse_strobe>

// lower nibble to data lines
        if ((character & 0x08) != 0)	// Select bit 3 of command, if HIGH set Data line 7 (D7) 
 8000912:	1dfb      	adds	r3, r7, #7
 8000914:	781b      	ldrb	r3, [r3, #0]
 8000916:	2208      	movs	r2, #8
 8000918:	4013      	ands	r3, r2
 800091a:	d009      	beq.n	8000930 <lcd_putchar+0xec>
        {
        	GPIOA->BSRR |= LCD_D7_SET;
 800091c:	2390      	movs	r3, #144	; 0x90
 800091e:	05db      	lsls	r3, r3, #23
 8000920:	699a      	ldr	r2, [r3, #24]
 8000922:	2390      	movs	r3, #144	; 0x90
 8000924:	05db      	lsls	r3, r3, #23
 8000926:	2180      	movs	r1, #128	; 0x80
 8000928:	0209      	lsls	r1, r1, #8
 800092a:	430a      	orrs	r2, r1
 800092c:	619a      	str	r2, [r3, #24]
 800092e:	e008      	b.n	8000942 <lcd_putchar+0xfe>
        }
        else				// else RESET D7
        {
        	GPIOA->BSRR |= LCD_D7_RESET;
 8000930:	2390      	movs	r3, #144	; 0x90
 8000932:	05db      	lsls	r3, r3, #23
 8000934:	699a      	ldr	r2, [r3, #24]
 8000936:	2390      	movs	r3, #144	; 0x90
 8000938:	05db      	lsls	r3, r3, #23
 800093a:	2180      	movs	r1, #128	; 0x80
 800093c:	0609      	lsls	r1, r1, #24
 800093e:	430a      	orrs	r2, r1
 8000940:	619a      	str	r2, [r3, #24]
        }
// DATALINE 6
        if ((character & 0x04) != 0)	// Select bit 2 of command, if HIGH set Data line 6 (D6)         
 8000942:	1dfb      	adds	r3, r7, #7
 8000944:	781b      	ldrb	r3, [r3, #0]
 8000946:	2204      	movs	r2, #4
 8000948:	4013      	ands	r3, r2
 800094a:	d009      	beq.n	8000960 <lcd_putchar+0x11c>
	{
            GPIOA->BSRR |= LCD_D6_SET;
 800094c:	2390      	movs	r3, #144	; 0x90
 800094e:	05db      	lsls	r3, r3, #23
 8000950:	699a      	ldr	r2, [r3, #24]
 8000952:	2390      	movs	r3, #144	; 0x90
 8000954:	05db      	lsls	r3, r3, #23
 8000956:	2180      	movs	r1, #128	; 0x80
 8000958:	0149      	lsls	r1, r1, #5
 800095a:	430a      	orrs	r2, r1
 800095c:	619a      	str	r2, [r3, #24]
 800095e:	e008      	b.n	8000972 <lcd_putchar+0x12e>
        }
        else				// else RESET D6

        {
            GPIOA->BSRR |= LCD_D6_RESET;
 8000960:	2390      	movs	r3, #144	; 0x90
 8000962:	05db      	lsls	r3, r3, #23
 8000964:	699a      	ldr	r2, [r3, #24]
 8000966:	2390      	movs	r3, #144	; 0x90
 8000968:	05db      	lsls	r3, r3, #23
 800096a:	2180      	movs	r1, #128	; 0x80
 800096c:	0549      	lsls	r1, r1, #21
 800096e:	430a      	orrs	r2, r1
 8000970:	619a      	str	r2, [r3, #24]
        }
// DATALINE 5
        if ((character & 0x02) != 0)	// Select bit 1 of command, if HIGH set Data line 5 (D5)  
 8000972:	1dfb      	adds	r3, r7, #7
 8000974:	781b      	ldrb	r3, [r3, #0]
 8000976:	2202      	movs	r2, #2
 8000978:	4013      	ands	r3, r2
 800097a:	d007      	beq.n	800098c <lcd_putchar+0x148>
        {
        	GPIOB->BSRR |= LCD_D5_SET;       
 800097c:	4b15      	ldr	r3, [pc, #84]	; (80009d4 <lcd_putchar+0x190>)
 800097e:	699a      	ldr	r2, [r3, #24]
 8000980:	4b14      	ldr	r3, [pc, #80]	; (80009d4 <lcd_putchar+0x190>)
 8000982:	2180      	movs	r1, #128	; 0x80
 8000984:	0089      	lsls	r1, r1, #2
 8000986:	430a      	orrs	r2, r1
 8000988:	619a      	str	r2, [r3, #24]
 800098a:	e006      	b.n	800099a <lcd_putchar+0x156>
	}
        else				// else RESET D5
        {
        	GPIOB->BSRR |= LCD_D5_RESET;
 800098c:	4b11      	ldr	r3, [pc, #68]	; (80009d4 <lcd_putchar+0x190>)
 800098e:	699a      	ldr	r2, [r3, #24]
 8000990:	4b10      	ldr	r3, [pc, #64]	; (80009d4 <lcd_putchar+0x190>)
 8000992:	2180      	movs	r1, #128	; 0x80
 8000994:	0489      	lsls	r1, r1, #18
 8000996:	430a      	orrs	r2, r1
 8000998:	619a      	str	r2, [r3, #24]
        }
// DATALINE 4
        if ((character & 0x01) != 0)	// Select bit 0 of command, if HIGH set Data line 4 (D4)
 800099a:	1dfb      	adds	r3, r7, #7
 800099c:	781b      	ldrb	r3, [r3, #0]
 800099e:	2201      	movs	r2, #1
 80009a0:	4013      	ands	r3, r2
 80009a2:	d007      	beq.n	80009b4 <lcd_putchar+0x170>
        {
        	GPIOB->BSRR |= LCD_D4_SET;
 80009a4:	4b0b      	ldr	r3, [pc, #44]	; (80009d4 <lcd_putchar+0x190>)
 80009a6:	699a      	ldr	r2, [r3, #24]
 80009a8:	4b0a      	ldr	r3, [pc, #40]	; (80009d4 <lcd_putchar+0x190>)
 80009aa:	2180      	movs	r1, #128	; 0x80
 80009ac:	0049      	lsls	r1, r1, #1
 80009ae:	430a      	orrs	r2, r1
 80009b0:	619a      	str	r2, [r3, #24]
 80009b2:	e006      	b.n	80009c2 <lcd_putchar+0x17e>
        }
        else				//  else RESET D4
        {
        	GPIOB->BSRR |= LCD_D4_RESET;
 80009b4:	4b07      	ldr	r3, [pc, #28]	; (80009d4 <lcd_putchar+0x190>)
 80009b6:	699a      	ldr	r2, [r3, #24]
 80009b8:	4b06      	ldr	r3, [pc, #24]	; (80009d4 <lcd_putchar+0x190>)
 80009ba:	2180      	movs	r1, #128	; 0x80
 80009bc:	0449      	lsls	r1, r1, #17
 80009be:	430a      	orrs	r2, r1
 80009c0:	619a      	str	r2, [r3, #24]
        }

        pulse_strobe();			// Send data
 80009c2:	f000 f82d 	bl	8000a20 <pulse_strobe>
}
 80009c6:	46c0      	nop			; (mov r8, r8)
 80009c8:	46bd      	mov	sp, r7
 80009ca:	b002      	add	sp, #8
 80009cc:	bd80      	pop	{r7, pc}
 80009ce:	46c0      	nop			; (mov r8, r8)
 80009d0:	48000800 	.word	0x48000800
 80009d4:	48000400 	.word	0x48000400

080009d8 <lcd_putstring>:
//====================================================================
// DESCRIPTION: Writes a string to the LCD
//====================================================================

void lcd_putstring(char *instring)
{
 80009d8:	b590      	push	{r4, r7, lr}
 80009da:	b085      	sub	sp, #20
 80009dc:	af00      	add	r7, sp, #0
 80009de:	6078      	str	r0, [r7, #4]
    unsigned char count = 0;
 80009e0:	230f      	movs	r3, #15
 80009e2:	18fb      	adds	r3, r7, r3
 80009e4:	2200      	movs	r2, #0
 80009e6:	701a      	strb	r2, [r3, #0]

    while (instring[count])		// Until the null terminator is reached
 80009e8:	e00d      	b.n	8000a06 <lcd_putstring+0x2e>
    {
    	lcd_putchar(instring[count]);	// Write each character to LCD
 80009ea:	240f      	movs	r4, #15
 80009ec:	193b      	adds	r3, r7, r4
 80009ee:	781b      	ldrb	r3, [r3, #0]
 80009f0:	687a      	ldr	r2, [r7, #4]
 80009f2:	18d3      	adds	r3, r2, r3
 80009f4:	781b      	ldrb	r3, [r3, #0]
 80009f6:	0018      	movs	r0, r3
 80009f8:	f7ff ff24 	bl	8000844 <lcd_putchar>
	    count++;
 80009fc:	193b      	adds	r3, r7, r4
 80009fe:	781a      	ldrb	r2, [r3, #0]
 8000a00:	193b      	adds	r3, r7, r4
 8000a02:	3201      	adds	r2, #1
 8000a04:	701a      	strb	r2, [r3, #0]
    while (instring[count])		// Until the null terminator is reached
 8000a06:	230f      	movs	r3, #15
 8000a08:	18fb      	adds	r3, r7, r3
 8000a0a:	781b      	ldrb	r3, [r3, #0]
 8000a0c:	687a      	ldr	r2, [r7, #4]
 8000a0e:	18d3      	adds	r3, r2, r3
 8000a10:	781b      	ldrb	r3, [r3, #0]
 8000a12:	2b00      	cmp	r3, #0
 8000a14:	d1e9      	bne.n	80009ea <lcd_putstring+0x12>
	 }
}
 8000a16:	46c0      	nop			; (mov r8, r8)
 8000a18:	46bd      	mov	sp, r7
 8000a1a:	b005      	add	sp, #20
 8000a1c:	bd90      	pop	{r4, r7, pc}
	...

08000a20 <pulse_strobe>:
//====================================================================
// DESCRIPTION: Pulse the strobe line of the LCD to indicate that data is ready.
//====================================================================

void pulse_strobe(void)
{
 8000a20:	b580      	push	{r7, lr}
 8000a22:	af00      	add	r7, sp, #0
    delay(20);				// Delay
 8000a24:	2014      	movs	r0, #20
 8000a26:	f000 f821 	bl	8000a6c <delay>

    GPIOC->BSRR |= LCD_EN_SET;		// pull E (PC15) HIGH
 8000a2a:	4b0f      	ldr	r3, [pc, #60]	; (8000a68 <pulse_strobe+0x48>)
 8000a2c:	699a      	ldr	r2, [r3, #24]
 8000a2e:	4b0e      	ldr	r3, [pc, #56]	; (8000a68 <pulse_strobe+0x48>)
 8000a30:	2180      	movs	r1, #128	; 0x80
 8000a32:	0209      	lsls	r1, r1, #8
 8000a34:	430a      	orrs	r2, r1
 8000a36:	619a      	str	r2, [r3, #24]

    delay(20);				// Delay
 8000a38:	2014      	movs	r0, #20
 8000a3a:	f000 f817 	bl	8000a6c <delay>

    GPIOC->BSRR |= LCD_EN_RESET;	// Take EN LOW
 8000a3e:	4b0a      	ldr	r3, [pc, #40]	; (8000a68 <pulse_strobe+0x48>)
 8000a40:	699a      	ldr	r2, [r3, #24]
 8000a42:	4b09      	ldr	r3, [pc, #36]	; (8000a68 <pulse_strobe+0x48>)
 8000a44:	2180      	movs	r1, #128	; 0x80
 8000a46:	0609      	lsls	r1, r1, #24
 8000a48:	430a      	orrs	r2, r1
 8000a4a:	619a      	str	r2, [r3, #24]

    delay(20);				// Delay
 8000a4c:	2014      	movs	r0, #20
 8000a4e:	f000 f80d 	bl	8000a6c <delay>

    GPIOC->BSRR |= LCD_EN_SET;		// Take EN HIGH
 8000a52:	4b05      	ldr	r3, [pc, #20]	; (8000a68 <pulse_strobe+0x48>)
 8000a54:	699a      	ldr	r2, [r3, #24]
 8000a56:	4b04      	ldr	r3, [pc, #16]	; (8000a68 <pulse_strobe+0x48>)
 8000a58:	2180      	movs	r1, #128	; 0x80
 8000a5a:	0209      	lsls	r1, r1, #8
 8000a5c:	430a      	orrs	r2, r1
 8000a5e:	619a      	str	r2, [r3, #24]
}
 8000a60:	46c0      	nop			; (mov r8, r8)
 8000a62:	46bd      	mov	sp, r7
 8000a64:	bd80      	pop	{r7, pc}
 8000a66:	46c0      	nop			; (mov r8, r8)
 8000a68:	48000800 	.word	0x48000800

08000a6c <delay>:
//====================================================================
// DESCRIPTION: A delay used by the LCD functions.
//====================================================================

void delay(unsigned int microseconds)
{
 8000a6c:	b580      	push	{r7, lr}
 8000a6e:	b084      	sub	sp, #16
 8000a70:	af00      	add	r7, sp, #0
 8000a72:	6078      	str	r0, [r7, #4]
	  volatile unsigned int counter;
	  microseconds *= 3;
 8000a74:	687a      	ldr	r2, [r7, #4]
 8000a76:	0013      	movs	r3, r2
 8000a78:	005b      	lsls	r3, r3, #1
 8000a7a:	189b      	adds	r3, r3, r2
 8000a7c:	607b      	str	r3, [r7, #4]
	  for(counter = 0; counter<microseconds; counter++)
 8000a7e:	2300      	movs	r3, #0
 8000a80:	60fb      	str	r3, [r7, #12]
 8000a82:	e004      	b.n	8000a8e <delay+0x22>
	  {
	    __asm("nop");
 8000a84:	46c0      	nop			; (mov r8, r8)
	    __asm("nop");
 8000a86:	46c0      	nop			; (mov r8, r8)
	  for(counter = 0; counter<microseconds; counter++)
 8000a88:	68fb      	ldr	r3, [r7, #12]
 8000a8a:	3301      	adds	r3, #1
 8000a8c:	60fb      	str	r3, [r7, #12]
 8000a8e:	68fb      	ldr	r3, [r7, #12]
 8000a90:	687a      	ldr	r2, [r7, #4]
 8000a92:	429a      	cmp	r2, r3
 8000a94:	d8f6      	bhi.n	8000a84 <delay+0x18>
	  }
}
 8000a96:	46c0      	nop			; (mov r8, r8)
 8000a98:	46bd      	mov	sp, r7
 8000a9a:	b004      	add	sp, #16
 8000a9c:	bd80      	pop	{r7, pc}

08000a9e <mrf_read_short>:

static mrf_rx_info_t mrf_rx_info;
static mrf_tx_info_t mrf_tx_info;


uint8_t mrf_read_short(uint8_t address) {
 8000a9e:	b5b0      	push	{r4, r5, r7, lr}
 8000aa0:	b084      	sub	sp, #16
 8000aa2:	af00      	add	r7, sp, #0
 8000aa4:	0002      	movs	r2, r0
 8000aa6:	1dfb      	adds	r3, r7, #7
 8000aa8:	701a      	strb	r2, [r3, #0]
    mrf_select();
 8000aaa:	f002 fa65 	bl	8002f78 <mrf_select>
    // 0 top for short addressing, 0 bottom for read
    spi_tx(address<<1 & 0b01111110);
 8000aae:	1dfb      	adds	r3, r7, #7
 8000ab0:	781b      	ldrb	r3, [r3, #0]
 8000ab2:	005b      	lsls	r3, r3, #1
 8000ab4:	b2db      	uxtb	r3, r3
 8000ab6:	227e      	movs	r2, #126	; 0x7e
 8000ab8:	4013      	ands	r3, r2
 8000aba:	b2db      	uxtb	r3, r3
 8000abc:	0018      	movs	r0, r3
 8000abe:	f002 fa79 	bl	8002fb4 <spi_tx>
    uint8_t res = spi_tx(0x0);
 8000ac2:	250f      	movs	r5, #15
 8000ac4:	197c      	adds	r4, r7, r5
 8000ac6:	2000      	movs	r0, #0
 8000ac8:	f002 fa74 	bl	8002fb4 <spi_tx>
 8000acc:	0003      	movs	r3, r0
 8000ace:	7023      	strb	r3, [r4, #0]
    mrf_deselect();
 8000ad0:	f002 fa62 	bl	8002f98 <mrf_deselect>
    return res;
 8000ad4:	197b      	adds	r3, r7, r5
 8000ad6:	781b      	ldrb	r3, [r3, #0]
}
 8000ad8:	0018      	movs	r0, r3
 8000ada:	46bd      	mov	sp, r7
 8000adc:	b004      	add	sp, #16
 8000ade:	bdb0      	pop	{r4, r5, r7, pc}

08000ae0 <mrf_read_long>:

uint8_t mrf_read_long(uint16_t address) {
 8000ae0:	b5b0      	push	{r4, r5, r7, lr}
 8000ae2:	b084      	sub	sp, #16
 8000ae4:	af00      	add	r7, sp, #0
 8000ae6:	0002      	movs	r2, r0
 8000ae8:	1dbb      	adds	r3, r7, #6
 8000aea:	801a      	strh	r2, [r3, #0]
    mrf_select();
 8000aec:	f002 fa44 	bl	8002f78 <mrf_select>
    uint8_t ahigh = address >> 3;
 8000af0:	1dbb      	adds	r3, r7, #6
 8000af2:	881b      	ldrh	r3, [r3, #0]
 8000af4:	08db      	lsrs	r3, r3, #3
 8000af6:	b29a      	uxth	r2, r3
 8000af8:	210f      	movs	r1, #15
 8000afa:	187b      	adds	r3, r7, r1
 8000afc:	701a      	strb	r2, [r3, #0]
    uint8_t alow = address << 5;
 8000afe:	1dbb      	adds	r3, r7, #6
 8000b00:	881b      	ldrh	r3, [r3, #0]
 8000b02:	b2da      	uxtb	r2, r3
 8000b04:	240e      	movs	r4, #14
 8000b06:	193b      	adds	r3, r7, r4
 8000b08:	0152      	lsls	r2, r2, #5
 8000b0a:	701a      	strb	r2, [r3, #0]
    spi_tx(0x80 | ahigh);  // high bit for long
 8000b0c:	187b      	adds	r3, r7, r1
 8000b0e:	781b      	ldrb	r3, [r3, #0]
 8000b10:	2280      	movs	r2, #128	; 0x80
 8000b12:	4252      	negs	r2, r2
 8000b14:	4313      	orrs	r3, r2
 8000b16:	b2db      	uxtb	r3, r3
 8000b18:	0018      	movs	r0, r3
 8000b1a:	f002 fa4b 	bl	8002fb4 <spi_tx>
    spi_tx(alow);
 8000b1e:	193b      	adds	r3, r7, r4
 8000b20:	781b      	ldrb	r3, [r3, #0]
 8000b22:	0018      	movs	r0, r3
 8000b24:	f002 fa46 	bl	8002fb4 <spi_tx>
    uint8_t res = spi_tx(0);
 8000b28:	250d      	movs	r5, #13
 8000b2a:	197c      	adds	r4, r7, r5
 8000b2c:	2000      	movs	r0, #0
 8000b2e:	f002 fa41 	bl	8002fb4 <spi_tx>
 8000b32:	0003      	movs	r3, r0
 8000b34:	7023      	strb	r3, [r4, #0]
    mrf_deselect();
 8000b36:	f002 fa2f 	bl	8002f98 <mrf_deselect>
    return res;
 8000b3a:	197b      	adds	r3, r7, r5
 8000b3c:	781b      	ldrb	r3, [r3, #0]
}
 8000b3e:	0018      	movs	r0, r3
 8000b40:	46bd      	mov	sp, r7
 8000b42:	b004      	add	sp, #16
 8000b44:	bdb0      	pop	{r4, r5, r7, pc}

08000b46 <mrf_write_short>:


void mrf_write_short(uint8_t address, uint8_t data) {
 8000b46:	b580      	push	{r7, lr}
 8000b48:	b082      	sub	sp, #8
 8000b4a:	af00      	add	r7, sp, #0
 8000b4c:	0002      	movs	r2, r0
 8000b4e:	1dfb      	adds	r3, r7, #7
 8000b50:	701a      	strb	r2, [r3, #0]
 8000b52:	1dbb      	adds	r3, r7, #6
 8000b54:	1c0a      	adds	r2, r1, #0
 8000b56:	701a      	strb	r2, [r3, #0]
    mrf_select();
 8000b58:	f002 fa0e 	bl	8002f78 <mrf_select>
    // 0 for top address, 1 bottom for write
    spi_tx((address<<1 & 0b01111110) | 0x01);
 8000b5c:	1dfb      	adds	r3, r7, #7
 8000b5e:	781b      	ldrb	r3, [r3, #0]
 8000b60:	005b      	lsls	r3, r3, #1
 8000b62:	b25b      	sxtb	r3, r3
 8000b64:	227e      	movs	r2, #126	; 0x7e
 8000b66:	4013      	ands	r3, r2
 8000b68:	b25b      	sxtb	r3, r3
 8000b6a:	2201      	movs	r2, #1
 8000b6c:	4313      	orrs	r3, r2
 8000b6e:	b25b      	sxtb	r3, r3
 8000b70:	b2db      	uxtb	r3, r3
 8000b72:	0018      	movs	r0, r3
 8000b74:	f002 fa1e 	bl	8002fb4 <spi_tx>
    spi_tx(data);
 8000b78:	1dbb      	adds	r3, r7, #6
 8000b7a:	781b      	ldrb	r3, [r3, #0]
 8000b7c:	0018      	movs	r0, r3
 8000b7e:	f002 fa19 	bl	8002fb4 <spi_tx>
    mrf_deselect();
 8000b82:	f002 fa09 	bl	8002f98 <mrf_deselect>
}
 8000b86:	46c0      	nop			; (mov r8, r8)
 8000b88:	46bd      	mov	sp, r7
 8000b8a:	b002      	add	sp, #8
 8000b8c:	bd80      	pop	{r7, pc}

08000b8e <mrf_write_long>:

void mrf_write_long(uint16_t address, uint8_t data) {
 8000b8e:	b590      	push	{r4, r7, lr}
 8000b90:	b085      	sub	sp, #20
 8000b92:	af00      	add	r7, sp, #0
 8000b94:	0002      	movs	r2, r0
 8000b96:	1dbb      	adds	r3, r7, #6
 8000b98:	801a      	strh	r2, [r3, #0]
 8000b9a:	1d7b      	adds	r3, r7, #5
 8000b9c:	1c0a      	adds	r2, r1, #0
 8000b9e:	701a      	strb	r2, [r3, #0]
    mrf_select();
 8000ba0:	f002 f9ea 	bl	8002f78 <mrf_select>
    uint8_t ahigh = address >> 3;
 8000ba4:	1dbb      	adds	r3, r7, #6
 8000ba6:	881b      	ldrh	r3, [r3, #0]
 8000ba8:	08db      	lsrs	r3, r3, #3
 8000baa:	b29a      	uxth	r2, r3
 8000bac:	210f      	movs	r1, #15
 8000bae:	187b      	adds	r3, r7, r1
 8000bb0:	701a      	strb	r2, [r3, #0]
    uint8_t alow = address << 5;
 8000bb2:	1dbb      	adds	r3, r7, #6
 8000bb4:	881b      	ldrh	r3, [r3, #0]
 8000bb6:	b2da      	uxtb	r2, r3
 8000bb8:	240e      	movs	r4, #14
 8000bba:	193b      	adds	r3, r7, r4
 8000bbc:	0152      	lsls	r2, r2, #5
 8000bbe:	701a      	strb	r2, [r3, #0]
    spi_tx(0x80 | ahigh);  // high bit for long
 8000bc0:	187b      	adds	r3, r7, r1
 8000bc2:	781b      	ldrb	r3, [r3, #0]
 8000bc4:	2280      	movs	r2, #128	; 0x80
 8000bc6:	4252      	negs	r2, r2
 8000bc8:	4313      	orrs	r3, r2
 8000bca:	b2db      	uxtb	r3, r3
 8000bcc:	0018      	movs	r0, r3
 8000bce:	f002 f9f1 	bl	8002fb4 <spi_tx>
    spi_tx(alow | 0x10);  // last bit for write
 8000bd2:	193b      	adds	r3, r7, r4
 8000bd4:	781b      	ldrb	r3, [r3, #0]
 8000bd6:	2210      	movs	r2, #16
 8000bd8:	4313      	orrs	r3, r2
 8000bda:	b2db      	uxtb	r3, r3
 8000bdc:	0018      	movs	r0, r3
 8000bde:	f002 f9e9 	bl	8002fb4 <spi_tx>
    spi_tx(data);
 8000be2:	1d7b      	adds	r3, r7, #5
 8000be4:	781b      	ldrb	r3, [r3, #0]
 8000be6:	0018      	movs	r0, r3
 8000be8:	f002 f9e4 	bl	8002fb4 <spi_tx>
    mrf_deselect();
 8000bec:	f002 f9d4 	bl	8002f98 <mrf_deselect>
}
 8000bf0:	46c0      	nop			; (mov r8, r8)
 8000bf2:	46bd      	mov	sp, r7
 8000bf4:	b005      	add	sp, #20
 8000bf6:	bd90      	pop	{r4, r7, pc}

08000bf8 <mrf_pan_read>:

uint16_t mrf_pan_read(void) {
 8000bf8:	b590      	push	{r4, r7, lr}
 8000bfa:	b083      	sub	sp, #12
 8000bfc:	af00      	add	r7, sp, #0
    uint8_t panh = mrf_read_short(MRF_PANIDH);
 8000bfe:	1dfc      	adds	r4, r7, #7
 8000c00:	2002      	movs	r0, #2
 8000c02:	f7ff ff4c 	bl	8000a9e <mrf_read_short>
 8000c06:	0003      	movs	r3, r0
 8000c08:	7023      	strb	r3, [r4, #0]
    return panh << 8 | mrf_read_short(MRF_PANIDL);
 8000c0a:	1dfb      	adds	r3, r7, #7
 8000c0c:	781b      	ldrb	r3, [r3, #0]
 8000c0e:	021b      	lsls	r3, r3, #8
 8000c10:	b21c      	sxth	r4, r3
 8000c12:	2001      	movs	r0, #1
 8000c14:	f7ff ff43 	bl	8000a9e <mrf_read_short>
 8000c18:	0003      	movs	r3, r0
 8000c1a:	b21b      	sxth	r3, r3
 8000c1c:	4323      	orrs	r3, r4
 8000c1e:	b21b      	sxth	r3, r3
 8000c20:	b29b      	uxth	r3, r3
}
 8000c22:	0018      	movs	r0, r3
 8000c24:	46bd      	mov	sp, r7
 8000c26:	b003      	add	sp, #12
 8000c28:	bd90      	pop	{r4, r7, pc}

08000c2a <mrf_pan_write>:

void mrf_pan_write(uint16_t panid) {
 8000c2a:	b580      	push	{r7, lr}
 8000c2c:	b082      	sub	sp, #8
 8000c2e:	af00      	add	r7, sp, #0
 8000c30:	0002      	movs	r2, r0
 8000c32:	1dbb      	adds	r3, r7, #6
 8000c34:	801a      	strh	r2, [r3, #0]
    mrf_write_short(MRF_PANIDH, panid >> 8);
 8000c36:	1dbb      	adds	r3, r7, #6
 8000c38:	881b      	ldrh	r3, [r3, #0]
 8000c3a:	0a1b      	lsrs	r3, r3, #8
 8000c3c:	b29b      	uxth	r3, r3
 8000c3e:	b2db      	uxtb	r3, r3
 8000c40:	0019      	movs	r1, r3
 8000c42:	2002      	movs	r0, #2
 8000c44:	f7ff ff7f 	bl	8000b46 <mrf_write_short>
    mrf_write_short(MRF_PANIDL, panid & 0xff);
 8000c48:	1dbb      	adds	r3, r7, #6
 8000c4a:	881b      	ldrh	r3, [r3, #0]
 8000c4c:	b2db      	uxtb	r3, r3
 8000c4e:	0019      	movs	r1, r3
 8000c50:	2001      	movs	r0, #1
 8000c52:	f7ff ff78 	bl	8000b46 <mrf_write_short>
}
 8000c56:	46c0      	nop			; (mov r8, r8)
 8000c58:	46bd      	mov	sp, r7
 8000c5a:	b002      	add	sp, #8
 8000c5c:	bd80      	pop	{r7, pc}
	...

08000c60 <mrf_set_ignorebytes>:

void mrf_set_ignorebytes(uint8_t count) {
 8000c60:	b580      	push	{r7, lr}
 8000c62:	b082      	sub	sp, #8
 8000c64:	af00      	add	r7, sp, #0
 8000c66:	0002      	movs	r2, r0
 8000c68:	1dfb      	adds	r3, r7, #7
 8000c6a:	701a      	strb	r2, [r3, #0]
    ignore_bytes = count;
 8000c6c:	4b03      	ldr	r3, [pc, #12]	; (8000c7c <mrf_set_ignorebytes+0x1c>)
 8000c6e:	1dfa      	adds	r2, r7, #7
 8000c70:	7812      	ldrb	r2, [r2, #0]
 8000c72:	701a      	strb	r2, [r3, #0]
}
 8000c74:	46c0      	nop			; (mov r8, r8)
 8000c76:	46bd      	mov	sp, r7
 8000c78:	b002      	add	sp, #8
 8000c7a:	bd80      	pop	{r7, pc}
 8000c7c:	2000010f 	.word	0x2000010f

08000c80 <mrf_address16_write>:

void mrf_address16_write(uint16_t address16) {
 8000c80:	b580      	push	{r7, lr}
 8000c82:	b082      	sub	sp, #8
 8000c84:	af00      	add	r7, sp, #0
 8000c86:	0002      	movs	r2, r0
 8000c88:	1dbb      	adds	r3, r7, #6
 8000c8a:	801a      	strh	r2, [r3, #0]
    mrf_write_short(MRF_SADRH, address16 >> 8);
 8000c8c:	1dbb      	adds	r3, r7, #6
 8000c8e:	881b      	ldrh	r3, [r3, #0]
 8000c90:	0a1b      	lsrs	r3, r3, #8
 8000c92:	b29b      	uxth	r3, r3
 8000c94:	b2db      	uxtb	r3, r3
 8000c96:	0019      	movs	r1, r3
 8000c98:	2004      	movs	r0, #4
 8000c9a:	f7ff ff54 	bl	8000b46 <mrf_write_short>
    mrf_write_short(MRF_SADRL, address16 & 0xff);
 8000c9e:	1dbb      	adds	r3, r7, #6
 8000ca0:	881b      	ldrh	r3, [r3, #0]
 8000ca2:	b2db      	uxtb	r3, r3
 8000ca4:	0019      	movs	r1, r3
 8000ca6:	2003      	movs	r0, #3
 8000ca8:	f7ff ff4d 	bl	8000b46 <mrf_write_short>
}
 8000cac:	46c0      	nop			; (mov r8, r8)
 8000cae:	46bd      	mov	sp, r7
 8000cb0:	b002      	add	sp, #8
 8000cb2:	bd80      	pop	{r7, pc}

08000cb4 <mrf_address16_read>:

uint16_t mrf_address16_read(void) {
 8000cb4:	b590      	push	{r4, r7, lr}
 8000cb6:	b083      	sub	sp, #12
 8000cb8:	af00      	add	r7, sp, #0
    uint8_t a16h = mrf_read_short(MRF_SADRH);
 8000cba:	1dfc      	adds	r4, r7, #7
 8000cbc:	2004      	movs	r0, #4
 8000cbe:	f7ff feee 	bl	8000a9e <mrf_read_short>
 8000cc2:	0003      	movs	r3, r0
 8000cc4:	7023      	strb	r3, [r4, #0]
    return a16h << 8 | mrf_read_short(MRF_SADRL);
 8000cc6:	1dfb      	adds	r3, r7, #7
 8000cc8:	781b      	ldrb	r3, [r3, #0]
 8000cca:	021b      	lsls	r3, r3, #8
 8000ccc:	b21c      	sxth	r4, r3
 8000cce:	2003      	movs	r0, #3
 8000cd0:	f7ff fee5 	bl	8000a9e <mrf_read_short>
 8000cd4:	0003      	movs	r3, r0
 8000cd6:	b21b      	sxth	r3, r3
 8000cd8:	4323      	orrs	r3, r4
 8000cda:	b21b      	sxth	r3, r3
 8000cdc:	b29b      	uxth	r3, r3
}
 8000cde:	0018      	movs	r0, r3
 8000ce0:	46bd      	mov	sp, r7
 8000ce2:	b003      	add	sp, #12
 8000ce4:	bd90      	pop	{r4, r7, pc}

08000ce6 <mrf_promiscuous>:

void mrf_promiscuous(uint8_t enabled) {
 8000ce6:	b580      	push	{r7, lr}
 8000ce8:	b082      	sub	sp, #8
 8000cea:	af00      	add	r7, sp, #0
 8000cec:	0002      	movs	r2, r0
 8000cee:	1dfb      	adds	r3, r7, #7
 8000cf0:	701a      	strb	r2, [r3, #0]
    // TODO - a tad ugly, this should really do a read modify write
    if (enabled) {
 8000cf2:	1dfb      	adds	r3, r7, #7
 8000cf4:	781b      	ldrb	r3, [r3, #0]
 8000cf6:	2b00      	cmp	r3, #0
 8000cf8:	d004      	beq.n	8000d04 <mrf_promiscuous+0x1e>
        mrf_write_short(MRF_RXMCR, 0x01);
 8000cfa:	2101      	movs	r1, #1
 8000cfc:	2000      	movs	r0, #0
 8000cfe:	f7ff ff22 	bl	8000b46 <mrf_write_short>
    } else {
        mrf_write_short(MRF_RXMCR, 0x00);
    }
}
 8000d02:	e003      	b.n	8000d0c <mrf_promiscuous+0x26>
        mrf_write_short(MRF_RXMCR, 0x00);
 8000d04:	2100      	movs	r1, #0
 8000d06:	2000      	movs	r0, #0
 8000d08:	f7ff ff1d 	bl	8000b46 <mrf_write_short>
}
 8000d0c:	46c0      	nop			; (mov r8, r8)
 8000d0e:	46bd      	mov	sp, r7
 8000d10:	b002      	add	sp, #8
 8000d12:	bd80      	pop	{r7, pc}

08000d14 <mrf_send16>:

/**
 * Simple send 16, with acks, not much of anything.. assumes src16 and local pan only.
 * @param data
 */
void mrf_send16(uint16_t dest16, uint8_t len, char * data) {
 8000d14:	b5b0      	push	{r4, r5, r7, lr}
 8000d16:	b086      	sub	sp, #24
 8000d18:	af00      	add	r7, sp, #0
 8000d1a:	603a      	str	r2, [r7, #0]
 8000d1c:	1dbb      	adds	r3, r7, #6
 8000d1e:	1c02      	adds	r2, r0, #0
 8000d20:	801a      	strh	r2, [r3, #0]
 8000d22:	1d7b      	adds	r3, r7, #5
 8000d24:	1c0a      	adds	r2, r1, #0
 8000d26:	701a      	strb	r2, [r3, #0]

    int i = 0;
 8000d28:	2300      	movs	r3, #0
 8000d2a:	617b      	str	r3, [r7, #20]
    mrf_write_long(i++, 9);  // header length
 8000d2c:	697b      	ldr	r3, [r7, #20]
 8000d2e:	1c5a      	adds	r2, r3, #1
 8000d30:	617a      	str	r2, [r7, #20]
 8000d32:	b29b      	uxth	r3, r3
 8000d34:	2109      	movs	r1, #9
 8000d36:	0018      	movs	r0, r3
 8000d38:	f7ff ff29 	bl	8000b8e <mrf_write_long>
    mrf_write_long(i++, 9+ignore_bytes+len);
 8000d3c:	697b      	ldr	r3, [r7, #20]
 8000d3e:	1c5a      	adds	r2, r3, #1
 8000d40:	617a      	str	r2, [r7, #20]
 8000d42:	b298      	uxth	r0, r3
 8000d44:	4b4f      	ldr	r3, [pc, #316]	; (8000e84 <mrf_send16+0x170>)
 8000d46:	781a      	ldrb	r2, [r3, #0]
 8000d48:	1d7b      	adds	r3, r7, #5
 8000d4a:	781b      	ldrb	r3, [r3, #0]
 8000d4c:	18d3      	adds	r3, r2, r3
 8000d4e:	b2db      	uxtb	r3, r3
 8000d50:	3309      	adds	r3, #9
 8000d52:	b2db      	uxtb	r3, r3
 8000d54:	0019      	movs	r1, r3
 8000d56:	f7ff ff1a 	bl	8000b8e <mrf_write_long>

// 0 | pan compression | ack | no security | no data pending | data frame[3 bits]
    mrf_write_long(i++, 0b01100001); // first byte of Frame Control
 8000d5a:	697b      	ldr	r3, [r7, #20]
 8000d5c:	1c5a      	adds	r2, r3, #1
 8000d5e:	617a      	str	r2, [r7, #20]
 8000d60:	b29b      	uxth	r3, r3
 8000d62:	2161      	movs	r1, #97	; 0x61
 8000d64:	0018      	movs	r0, r3
 8000d66:	f7ff ff12 	bl	8000b8e <mrf_write_long>
// 16 bit source, 802.15.4 (2003), 16 bit dest,
    mrf_write_long(i++, 0b10001000); // second byte of frame control
 8000d6a:	697b      	ldr	r3, [r7, #20]
 8000d6c:	1c5a      	adds	r2, r3, #1
 8000d6e:	617a      	str	r2, [r7, #20]
 8000d70:	b29b      	uxth	r3, r3
 8000d72:	2188      	movs	r1, #136	; 0x88
 8000d74:	0018      	movs	r0, r3
 8000d76:	f7ff ff0a 	bl	8000b8e <mrf_write_long>
    mrf_write_long(i++, 1);  // sequence number 1
 8000d7a:	697b      	ldr	r3, [r7, #20]
 8000d7c:	1c5a      	adds	r2, r3, #1
 8000d7e:	617a      	str	r2, [r7, #20]
 8000d80:	b29b      	uxth	r3, r3
 8000d82:	2101      	movs	r1, #1
 8000d84:	0018      	movs	r0, r3
 8000d86:	f7ff ff02 	bl	8000b8e <mrf_write_long>

    uint16_t panid = mrf_pan_read();
 8000d8a:	240e      	movs	r4, #14
 8000d8c:	0025      	movs	r5, r4
 8000d8e:	193c      	adds	r4, r7, r4
 8000d90:	f7ff ff32 	bl	8000bf8 <mrf_pan_read>
 8000d94:	0003      	movs	r3, r0
 8000d96:	8023      	strh	r3, [r4, #0]

    mrf_write_long(i++, panid & 0xff);  // dest panid
 8000d98:	697b      	ldr	r3, [r7, #20]
 8000d9a:	1c5a      	adds	r2, r3, #1
 8000d9c:	617a      	str	r2, [r7, #20]
 8000d9e:	b29a      	uxth	r2, r3
 8000da0:	002c      	movs	r4, r5
 8000da2:	193b      	adds	r3, r7, r4
 8000da4:	881b      	ldrh	r3, [r3, #0]
 8000da6:	b2db      	uxtb	r3, r3
 8000da8:	0019      	movs	r1, r3
 8000daa:	0010      	movs	r0, r2
 8000dac:	f7ff feef 	bl	8000b8e <mrf_write_long>
    mrf_write_long(i++, panid >> 8);
 8000db0:	697b      	ldr	r3, [r7, #20]
 8000db2:	1c5a      	adds	r2, r3, #1
 8000db4:	617a      	str	r2, [r7, #20]
 8000db6:	b29a      	uxth	r2, r3
 8000db8:	193b      	adds	r3, r7, r4
 8000dba:	881b      	ldrh	r3, [r3, #0]
 8000dbc:	0a1b      	lsrs	r3, r3, #8
 8000dbe:	b29b      	uxth	r3, r3
 8000dc0:	b2db      	uxtb	r3, r3
 8000dc2:	0019      	movs	r1, r3
 8000dc4:	0010      	movs	r0, r2
 8000dc6:	f7ff fee2 	bl	8000b8e <mrf_write_long>
    mrf_write_long(i++, dest16 & 0xff);  // dest16 low
 8000dca:	697b      	ldr	r3, [r7, #20]
 8000dcc:	1c5a      	adds	r2, r3, #1
 8000dce:	617a      	str	r2, [r7, #20]
 8000dd0:	b29a      	uxth	r2, r3
 8000dd2:	1dbb      	adds	r3, r7, #6
 8000dd4:	881b      	ldrh	r3, [r3, #0]
 8000dd6:	b2db      	uxtb	r3, r3
 8000dd8:	0019      	movs	r1, r3
 8000dda:	0010      	movs	r0, r2
 8000ddc:	f7ff fed7 	bl	8000b8e <mrf_write_long>
    mrf_write_long(i++, dest16 >> 8); // dest16 high
 8000de0:	697b      	ldr	r3, [r7, #20]
 8000de2:	1c5a      	adds	r2, r3, #1
 8000de4:	617a      	str	r2, [r7, #20]
 8000de6:	b29a      	uxth	r2, r3
 8000de8:	1dbb      	adds	r3, r7, #6
 8000dea:	881b      	ldrh	r3, [r3, #0]
 8000dec:	0a1b      	lsrs	r3, r3, #8
 8000dee:	b29b      	uxth	r3, r3
 8000df0:	b2db      	uxtb	r3, r3
 8000df2:	0019      	movs	r1, r3
 8000df4:	0010      	movs	r0, r2
 8000df6:	f7ff feca 	bl	8000b8e <mrf_write_long>

    uint16_t src16 = mrf_address16_read();
 8000dfa:	240c      	movs	r4, #12
 8000dfc:	0025      	movs	r5, r4
 8000dfe:	193c      	adds	r4, r7, r4
 8000e00:	f7ff ff58 	bl	8000cb4 <mrf_address16_read>
 8000e04:	0003      	movs	r3, r0
 8000e06:	8023      	strh	r3, [r4, #0]
    mrf_write_long(i++, src16 & 0xff); // src16 low
 8000e08:	697b      	ldr	r3, [r7, #20]
 8000e0a:	1c5a      	adds	r2, r3, #1
 8000e0c:	617a      	str	r2, [r7, #20]
 8000e0e:	b29a      	uxth	r2, r3
 8000e10:	002c      	movs	r4, r5
 8000e12:	193b      	adds	r3, r7, r4
 8000e14:	881b      	ldrh	r3, [r3, #0]
 8000e16:	b2db      	uxtb	r3, r3
 8000e18:	0019      	movs	r1, r3
 8000e1a:	0010      	movs	r0, r2
 8000e1c:	f7ff feb7 	bl	8000b8e <mrf_write_long>
    mrf_write_long(i++, src16 >> 8); // src16 high
 8000e20:	697b      	ldr	r3, [r7, #20]
 8000e22:	1c5a      	adds	r2, r3, #1
 8000e24:	617a      	str	r2, [r7, #20]
 8000e26:	b29a      	uxth	r2, r3
 8000e28:	193b      	adds	r3, r7, r4
 8000e2a:	881b      	ldrh	r3, [r3, #0]
 8000e2c:	0a1b      	lsrs	r3, r3, #8
 8000e2e:	b29b      	uxth	r3, r3
 8000e30:	b2db      	uxtb	r3, r3
 8000e32:	0019      	movs	r1, r3
 8000e34:	0010      	movs	r0, r2
 8000e36:	f7ff feaa 	bl	8000b8e <mrf_write_long>

    /*
     * This is used to adjust for Maxstream headers inserted between
     * 802.15.4. headers and data payload.
     */
    i += ignore_bytes;
 8000e3a:	4b12      	ldr	r3, [pc, #72]	; (8000e84 <mrf_send16+0x170>)
 8000e3c:	781b      	ldrb	r3, [r3, #0]
 8000e3e:	001a      	movs	r2, r3
 8000e40:	697b      	ldr	r3, [r7, #20]
 8000e42:	189b      	adds	r3, r3, r2
 8000e44:	617b      	str	r3, [r7, #20]
    for (int q = 0; q < len; q++) {
 8000e46:	2300      	movs	r3, #0
 8000e48:	613b      	str	r3, [r7, #16]
 8000e4a:	e00d      	b.n	8000e68 <mrf_send16+0x154>
        mrf_write_long(i++, data[q]);
 8000e4c:	697b      	ldr	r3, [r7, #20]
 8000e4e:	1c5a      	adds	r2, r3, #1
 8000e50:	617a      	str	r2, [r7, #20]
 8000e52:	b298      	uxth	r0, r3
 8000e54:	693b      	ldr	r3, [r7, #16]
 8000e56:	683a      	ldr	r2, [r7, #0]
 8000e58:	18d3      	adds	r3, r2, r3
 8000e5a:	781b      	ldrb	r3, [r3, #0]
 8000e5c:	0019      	movs	r1, r3
 8000e5e:	f7ff fe96 	bl	8000b8e <mrf_write_long>
    for (int q = 0; q < len; q++) {
 8000e62:	693b      	ldr	r3, [r7, #16]
 8000e64:	3301      	adds	r3, #1
 8000e66:	613b      	str	r3, [r7, #16]
 8000e68:	1d7b      	adds	r3, r7, #5
 8000e6a:	781b      	ldrb	r3, [r3, #0]
 8000e6c:	693a      	ldr	r2, [r7, #16]
 8000e6e:	429a      	cmp	r2, r3
 8000e70:	dbec      	blt.n	8000e4c <mrf_send16+0x138>
    }
    // ack on, and go!
    mrf_write_short(MRF_TXNCON, (1<<MRF_TXNACKREQ | 1<<MRF_TXNTRIG));
 8000e72:	2105      	movs	r1, #5
 8000e74:	201b      	movs	r0, #27
 8000e76:	f7ff fe66 	bl	8000b46 <mrf_write_short>
}
 8000e7a:	46c0      	nop			; (mov r8, r8)
 8000e7c:	46bd      	mov	sp, r7
 8000e7e:	b006      	add	sp, #24
 8000e80:	bdb0      	pop	{r4, r5, r7, pc}
 8000e82:	46c0      	nop			; (mov r8, r8)
 8000e84:	2000010f 	.word	0x2000010f

08000e88 <mrf_set_interrupts>:

void mrf_set_interrupts(void) {
 8000e88:	b580      	push	{r7, lr}
 8000e8a:	af00      	add	r7, sp, #0
    // interrupts for rx and tx normal complete
    mrf_write_short(MRF_INTCON, 0b11110110);
 8000e8c:	21f6      	movs	r1, #246	; 0xf6
 8000e8e:	2032      	movs	r0, #50	; 0x32
 8000e90:	f7ff fe59 	bl	8000b46 <mrf_write_short>
}
 8000e94:	46c0      	nop			; (mov r8, r8)
 8000e96:	46bd      	mov	sp, r7
 8000e98:	bd80      	pop	{r7, pc}

08000e9a <mrf_set_channel>:

// Set the channel to 12, 2.41Ghz, xbee channel 0xC
void mrf_set_channel(void) {
 8000e9a:	b580      	push	{r7, lr}
 8000e9c:	af00      	add	r7, sp, #0
    mrf_write_long(MRF_RFCON0, 0x13);
 8000e9e:	2380      	movs	r3, #128	; 0x80
 8000ea0:	009b      	lsls	r3, r3, #2
 8000ea2:	2113      	movs	r1, #19
 8000ea4:	0018      	movs	r0, r3
 8000ea6:	f7ff fe72 	bl	8000b8e <mrf_write_long>
}
 8000eaa:	46c0      	nop			; (mov r8, r8)
 8000eac:	46bd      	mov	sp, r7
 8000eae:	bd80      	pop	{r7, pc}

08000eb0 <mrf_init>:

void mrf_init(void) {
 8000eb0:	b580      	push	{r7, lr}
 8000eb2:	af00      	add	r7, sp, #0
 // Seems a bit ridiculous when I use reset pin anyway
    mrf_write_short(MRF_SOFTRST, 0x7); // from manual
 8000eb4:	2107      	movs	r1, #7
 8000eb6:	202a      	movs	r0, #42	; 0x2a
 8000eb8:	f7ff fe45 	bl	8000b46 <mrf_write_short>
    while (mrf_read_short(MRF_SOFTRST) & 0x7 != 0) {
 8000ebc:	46c0      	nop			; (mov r8, r8)
 8000ebe:	202a      	movs	r0, #42	; 0x2a
 8000ec0:	f7ff fded 	bl	8000a9e <mrf_read_short>
 8000ec4:	0003      	movs	r3, r0
 8000ec6:	001a      	movs	r2, r3
 8000ec8:	2301      	movs	r3, #1
 8000eca:	4013      	ands	r3, r2
 8000ecc:	d1f7      	bne.n	8000ebe <mrf_init+0xe>
        ; // wait for soft reset to finish
    }

    mrf_write_short(MRF_PACON2, 0x98); //  Initialize FIFOEN = 1 and TXONTS = 0x6.
 8000ece:	2198      	movs	r1, #152	; 0x98
 8000ed0:	2018      	movs	r0, #24
 8000ed2:	f7ff fe38 	bl	8000b46 <mrf_write_short>
    mrf_write_short(MRF_TXSTBL, 0x95); //  Initialize RFSTBL = 0x9.
 8000ed6:	2195      	movs	r1, #149	; 0x95
 8000ed8:	202e      	movs	r0, #46	; 0x2e
 8000eda:	f7ff fe34 	bl	8000b46 <mrf_write_short>

    mrf_write_long(MRF_RFCON0, 0x03); //  Initialize RFOPT = 0x03.
 8000ede:	2380      	movs	r3, #128	; 0x80
 8000ee0:	009b      	lsls	r3, r3, #2
 8000ee2:	2103      	movs	r1, #3
 8000ee4:	0018      	movs	r0, r3
 8000ee6:	f7ff fe52 	bl	8000b8e <mrf_write_long>
    mrf_write_long(MRF_RFCON1, 0x01); //  Initialize VCOOPT = 0x02.
 8000eea:	4b1f      	ldr	r3, [pc, #124]	; (8000f68 <mrf_init+0xb8>)
 8000eec:	2101      	movs	r1, #1
 8000eee:	0018      	movs	r0, r3
 8000ef0:	f7ff fe4d 	bl	8000b8e <mrf_write_long>
    mrf_write_long(MRF_RFCON2, 0x80); //  Enable PLL (PLLEN = 1).
 8000ef4:	4b1d      	ldr	r3, [pc, #116]	; (8000f6c <mrf_init+0xbc>)
 8000ef6:	2180      	movs	r1, #128	; 0x80
 8000ef8:	0018      	movs	r0, r3
 8000efa:	f7ff fe48 	bl	8000b8e <mrf_write_long>
    mrf_write_long(MRF_RFCON6, 0x90); //  Initialize TXFIL = 1 and 20MRECVR = 1.
 8000efe:	4b1c      	ldr	r3, [pc, #112]	; (8000f70 <mrf_init+0xc0>)
 8000f00:	2190      	movs	r1, #144	; 0x90
 8000f02:	0018      	movs	r0, r3
 8000f04:	f7ff fe43 	bl	8000b8e <mrf_write_long>
    mrf_write_long(MRF_RFCON7, 0x80); //  Initialize SLPCLKSEL = 0x2 (100 kHz Internal oscillator).
 8000f08:	4b1a      	ldr	r3, [pc, #104]	; (8000f74 <mrf_init+0xc4>)
 8000f0a:	2180      	movs	r1, #128	; 0x80
 8000f0c:	0018      	movs	r0, r3
 8000f0e:	f7ff fe3e 	bl	8000b8e <mrf_write_long>
    mrf_write_long(MRF_RFCON8, 0x10); //  Initialize RFVCO = 1.
 8000f12:	2382      	movs	r3, #130	; 0x82
 8000f14:	009b      	lsls	r3, r3, #2
 8000f16:	2110      	movs	r1, #16
 8000f18:	0018      	movs	r0, r3
 8000f1a:	f7ff fe38 	bl	8000b8e <mrf_write_long>
    mrf_write_long(MRF_SLPCON1, 0x21); //  Initialize CLKOUTEN = 1 and SLPCLKDIV = 0x01.
 8000f1e:	2388      	movs	r3, #136	; 0x88
 8000f20:	009b      	lsls	r3, r3, #2
 8000f22:	2121      	movs	r1, #33	; 0x21
 8000f24:	0018      	movs	r0, r3
 8000f26:	f7ff fe32 	bl	8000b8e <mrf_write_long>

    //  Configuration for nonbeacon-enabled devices (see Section 3.8 Beacon-Enabled and Nonbeacon-Enabled Networks):
    mrf_write_short(MRF_BBREG2, 0x80); // Set CCA mode to ED
 8000f2a:	2180      	movs	r1, #128	; 0x80
 8000f2c:	203a      	movs	r0, #58	; 0x3a
 8000f2e:	f7ff fe0a 	bl	8000b46 <mrf_write_short>
    mrf_write_short(MRF_CCAEDTH, 0x60); //  Set CCA ED threshold.
 8000f32:	2160      	movs	r1, #96	; 0x60
 8000f34:	203f      	movs	r0, #63	; 0x3f
 8000f36:	f7ff fe06 	bl	8000b46 <mrf_write_short>
    mrf_write_short(MRF_BBREG6, 0x40); //  Set appended RSSI value to RXFIFO.
 8000f3a:	2140      	movs	r1, #64	; 0x40
 8000f3c:	203e      	movs	r0, #62	; 0x3e
 8000f3e:	f7ff fe02 	bl	8000b46 <mrf_write_short>
    mrf_set_interrupts();
 8000f42:	f7ff ffa1 	bl	8000e88 <mrf_set_interrupts>
    mrf_set_channel();
 8000f46:	f7ff ffa8 	bl	8000e9a <mrf_set_channel>
    // max power is by default.. just leave it...
    //Set transmitter power - See REGISTER 2-62: RF CONTROL 3 REGISTER (ADDRESS: 0x203).
    mrf_write_short(MRF_RFCTL, 0x04); //   Reset RF state machine.
 8000f4a:	2104      	movs	r1, #4
 8000f4c:	2036      	movs	r0, #54	; 0x36
 8000f4e:	f7ff fdfa 	bl	8000b46 <mrf_write_short>
    mrf_write_short(MRF_RFCTL, 0x00); // part 2
 8000f52:	2100      	movs	r1, #0
 8000f54:	2036      	movs	r0, #54	; 0x36
 8000f56:	f7ff fdf6 	bl	8000b46 <mrf_write_short>
    _delay_ms(1); // delay at least 192usec
 8000f5a:	2001      	movs	r0, #1
 8000f5c:	f002 f842 	bl	8002fe4 <_delay_ms>
}
 8000f60:	46c0      	nop			; (mov r8, r8)
 8000f62:	46bd      	mov	sp, r7
 8000f64:	bd80      	pop	{r7, pc}
 8000f66:	46c0      	nop			; (mov r8, r8)
 8000f68:	00000201 	.word	0x00000201
 8000f6c:	00000202 	.word	0x00000202
 8000f70:	00000206 	.word	0x00000206
 8000f74:	00000207 	.word	0x00000207

08000f78 <mrf_interrupt_handler>:
 * Otherwise, you run the risk of having a new packet trample all over the current packet.
 * (TODO: why is this so hard to get right?!)
 *
 * Note, this is really only a problem in promiscuous mode...
 */
void mrf_interrupt_handler(void) {
 8000f78:	b5b0      	push	{r4, r5, r7, lr}
 8000f7a:	b084      	sub	sp, #16
 8000f7c:	af00      	add	r7, sp, #0
    uint8_t last_interrupt = mrf_read_short(MRF_INTSTAT);
 8000f7e:	250b      	movs	r5, #11
 8000f80:	197c      	adds	r4, r7, r5
 8000f82:	2031      	movs	r0, #49	; 0x31
 8000f84:	f7ff fd8b 	bl	8000a9e <mrf_read_short>
 8000f88:	0003      	movs	r3, r0
 8000f8a:	7023      	strb	r3, [r4, #0]
    if (last_interrupt & MRF_I_RXIF) {
 8000f8c:	197b      	adds	r3, r7, r5
 8000f8e:	781b      	ldrb	r3, [r3, #0]
 8000f90:	2208      	movs	r2, #8
 8000f92:	4013      	ands	r3, r2
 8000f94:	d100      	bne.n	8000f98 <mrf_interrupt_handler+0x20>
 8000f96:	e0b2      	b.n	80010fe <mrf_interrupt_handler+0x186>
        flag_got_rx++;
 8000f98:	4b70      	ldr	r3, [pc, #448]	; (800115c <mrf_interrupt_handler+0x1e4>)
 8000f9a:	781b      	ldrb	r3, [r3, #0]
 8000f9c:	b2db      	uxtb	r3, r3
 8000f9e:	3301      	adds	r3, #1
 8000fa0:	b2da      	uxtb	r2, r3
 8000fa2:	4b6e      	ldr	r3, [pc, #440]	; (800115c <mrf_interrupt_handler+0x1e4>)
 8000fa4:	701a      	strb	r2, [r3, #0]
        // read out the packet data...
        mrf_write_short(MRF_BBREG1, 0x04);  // RXDECINV - disable receiver
 8000fa6:	2104      	movs	r1, #4
 8000fa8:	2039      	movs	r0, #57	; 0x39
 8000faa:	f7ff fdcc 	bl	8000b46 <mrf_write_short>
        uint8_t frame_length = mrf_read_long(0x300);  // read start of rxfifo for
 8000fae:	230a      	movs	r3, #10
 8000fb0:	18fc      	adds	r4, r7, r3
 8000fb2:	23c0      	movs	r3, #192	; 0xc0
 8000fb4:	009b      	lsls	r3, r3, #2
 8000fb6:	0018      	movs	r0, r3
 8000fb8:	f7ff fd92 	bl	8000ae0 <mrf_read_long>
 8000fbc:	0003      	movs	r3, r0
 8000fbe:	7023      	strb	r3, [r4, #0]

        uint16_t frame_control = mrf_read_long(0x301);
 8000fc0:	4b67      	ldr	r3, [pc, #412]	; (8001160 <mrf_interrupt_handler+0x1e8>)
 8000fc2:	0018      	movs	r0, r3
 8000fc4:	f7ff fd8c 	bl	8000ae0 <mrf_read_long>
 8000fc8:	0003      	movs	r3, r0
 8000fca:	001a      	movs	r2, r3
 8000fcc:	2408      	movs	r4, #8
 8000fce:	193b      	adds	r3, r7, r4
 8000fd0:	801a      	strh	r2, [r3, #0]
        frame_control |= mrf_read_long(0x302) << 8;
 8000fd2:	4b64      	ldr	r3, [pc, #400]	; (8001164 <mrf_interrupt_handler+0x1ec>)
 8000fd4:	0018      	movs	r0, r3
 8000fd6:	f7ff fd83 	bl	8000ae0 <mrf_read_long>
 8000fda:	0003      	movs	r3, r0
 8000fdc:	021b      	lsls	r3, r3, #8
 8000fde:	b21a      	sxth	r2, r3
 8000fe0:	0021      	movs	r1, r4
 8000fe2:	187b      	adds	r3, r7, r1
 8000fe4:	2000      	movs	r0, #0
 8000fe6:	5e1b      	ldrsh	r3, [r3, r0]
 8000fe8:	4313      	orrs	r3, r2
 8000fea:	b21a      	sxth	r2, r3
 8000fec:	187b      	adds	r3, r7, r1
 8000fee:	801a      	strh	r2, [r3, #0]
        mrf_rx_info.frame_type = frame_control & 0x07;
 8000ff0:	187b      	adds	r3, r7, r1
 8000ff2:	881b      	ldrh	r3, [r3, #0]
 8000ff4:	b2db      	uxtb	r3, r3
 8000ff6:	2207      	movs	r2, #7
 8000ff8:	4013      	ands	r3, r2
 8000ffa:	b2da      	uxtb	r2, r3
 8000ffc:	4b5a      	ldr	r3, [pc, #360]	; (8001168 <mrf_interrupt_handler+0x1f0>)
 8000ffe:	705a      	strb	r2, [r3, #1]
        mrf_rx_info.pan_compression = (frame_control >> 6) & 0x1;
 8001000:	187b      	adds	r3, r7, r1
 8001002:	881b      	ldrh	r3, [r3, #0]
 8001004:	099b      	lsrs	r3, r3, #6
 8001006:	b29b      	uxth	r3, r3
 8001008:	b2db      	uxtb	r3, r3
 800100a:	2201      	movs	r2, #1
 800100c:	4013      	ands	r3, r2
 800100e:	b2da      	uxtb	r2, r3
 8001010:	4b55      	ldr	r3, [pc, #340]	; (8001168 <mrf_interrupt_handler+0x1f0>)
 8001012:	711a      	strb	r2, [r3, #4]
        mrf_rx_info.ack_bit = (frame_control >> 5) & 0x1;
 8001014:	187b      	adds	r3, r7, r1
 8001016:	881b      	ldrh	r3, [r3, #0]
 8001018:	095b      	lsrs	r3, r3, #5
 800101a:	b29b      	uxth	r3, r3
 800101c:	b2db      	uxtb	r3, r3
 800101e:	2201      	movs	r2, #1
 8001020:	4013      	ands	r3, r2
 8001022:	b2da      	uxtb	r2, r3
 8001024:	4b50      	ldr	r3, [pc, #320]	; (8001168 <mrf_interrupt_handler+0x1f0>)
 8001026:	70da      	strb	r2, [r3, #3]
        mrf_rx_info.dest_addr_mode = (frame_control >> 10) & 0x3;
 8001028:	187b      	adds	r3, r7, r1
 800102a:	881b      	ldrh	r3, [r3, #0]
 800102c:	0a9b      	lsrs	r3, r3, #10
 800102e:	b29b      	uxth	r3, r3
 8001030:	b2db      	uxtb	r3, r3
 8001032:	2203      	movs	r2, #3
 8001034:	4013      	ands	r3, r2
 8001036:	b2da      	uxtb	r2, r3
 8001038:	4b4b      	ldr	r3, [pc, #300]	; (8001168 <mrf_interrupt_handler+0x1f0>)
 800103a:	719a      	strb	r2, [r3, #6]
        mrf_rx_info.frame_version = (frame_control >> 12) & 0x3;
 800103c:	187b      	adds	r3, r7, r1
 800103e:	881b      	ldrh	r3, [r3, #0]
 8001040:	0b1b      	lsrs	r3, r3, #12
 8001042:	b29b      	uxth	r3, r3
 8001044:	b2db      	uxtb	r3, r3
 8001046:	2203      	movs	r2, #3
 8001048:	4013      	ands	r3, r2
 800104a:	b2da      	uxtb	r2, r3
 800104c:	4b46      	ldr	r3, [pc, #280]	; (8001168 <mrf_interrupt_handler+0x1f0>)
 800104e:	715a      	strb	r2, [r3, #5]
        mrf_rx_info.src_addr_mode = (frame_control >> 14) & 0x3;
 8001050:	187b      	adds	r3, r7, r1
 8001052:	881b      	ldrh	r3, [r3, #0]
 8001054:	0b9b      	lsrs	r3, r3, #14
 8001056:	b29b      	uxth	r3, r3
 8001058:	b2db      	uxtb	r3, r3
 800105a:	2203      	movs	r2, #3
 800105c:	4013      	ands	r3, r2
 800105e:	b2da      	uxtb	r2, r3
 8001060:	4b41      	ldr	r3, [pc, #260]	; (8001168 <mrf_interrupt_handler+0x1f0>)
 8001062:	71da      	strb	r2, [r3, #7]
        mrf_rx_info.sequence_number = mrf_read_long(0x303);
 8001064:	4b41      	ldr	r3, [pc, #260]	; (800116c <mrf_interrupt_handler+0x1f4>)
 8001066:	0018      	movs	r0, r3
 8001068:	f7ff fd3a 	bl	8000ae0 <mrf_read_long>
 800106c:	0003      	movs	r3, r0
 800106e:	001a      	movs	r2, r3
 8001070:	4b3d      	ldr	r3, [pc, #244]	; (8001168 <mrf_interrupt_handler+0x1f0>)
 8001072:	721a      	strb	r2, [r3, #8]

        // only three bytes have been removed, frame control and sequence id
        // the data starts at 4 though, because byte 0 was the mrf length
        // also hide the FCS bytes, even though we've copied them into the rx buffer
        for (int i = 0; i <= frame_length - 4; i++) {
 8001074:	2300      	movs	r3, #0
 8001076:	60fb      	str	r3, [r7, #12]
 8001078:	e013      	b.n	80010a2 <mrf_interrupt_handler+0x12a>
            mrf_rx_buf[i] = mrf_read_long(0x304 + i);
 800107a:	68fb      	ldr	r3, [r7, #12]
 800107c:	b29b      	uxth	r3, r3
 800107e:	22c1      	movs	r2, #193	; 0xc1
 8001080:	0092      	lsls	r2, r2, #2
 8001082:	4694      	mov	ip, r2
 8001084:	4463      	add	r3, ip
 8001086:	b29b      	uxth	r3, r3
 8001088:	0018      	movs	r0, r3
 800108a:	f7ff fd29 	bl	8000ae0 <mrf_read_long>
 800108e:	0003      	movs	r3, r0
 8001090:	0019      	movs	r1, r3
 8001092:	4a37      	ldr	r2, [pc, #220]	; (8001170 <mrf_interrupt_handler+0x1f8>)
 8001094:	68fb      	ldr	r3, [r7, #12]
 8001096:	18d3      	adds	r3, r2, r3
 8001098:	1c0a      	adds	r2, r1, #0
 800109a:	701a      	strb	r2, [r3, #0]
        for (int i = 0; i <= frame_length - 4; i++) {
 800109c:	68fb      	ldr	r3, [r7, #12]
 800109e:	3301      	adds	r3, #1
 80010a0:	60fb      	str	r3, [r7, #12]
 80010a2:	230a      	movs	r3, #10
 80010a4:	18fb      	adds	r3, r7, r3
 80010a6:	781b      	ldrb	r3, [r3, #0]
 80010a8:	3b04      	subs	r3, #4
 80010aa:	68fa      	ldr	r2, [r7, #12]
 80010ac:	429a      	cmp	r2, r3
 80010ae:	dde4      	ble.n	800107a <mrf_interrupt_handler+0x102>
        }
        mrf_rx_info.frame_length = frame_length - 3 - 2;
 80010b0:	240a      	movs	r4, #10
 80010b2:	193b      	adds	r3, r7, r4
 80010b4:	781b      	ldrb	r3, [r3, #0]
 80010b6:	3b05      	subs	r3, #5
 80010b8:	b2da      	uxtb	r2, r3
 80010ba:	4b2b      	ldr	r3, [pc, #172]	; (8001168 <mrf_interrupt_handler+0x1f0>)
 80010bc:	701a      	strb	r2, [r3, #0]
        mrf_rx_info.lqi = mrf_read_long(0x300 + frame_length + 1);
 80010be:	193b      	adds	r3, r7, r4
 80010c0:	781b      	ldrb	r3, [r3, #0]
 80010c2:	b29b      	uxth	r3, r3
 80010c4:	4a26      	ldr	r2, [pc, #152]	; (8001160 <mrf_interrupt_handler+0x1e8>)
 80010c6:	4694      	mov	ip, r2
 80010c8:	4463      	add	r3, ip
 80010ca:	b29b      	uxth	r3, r3
 80010cc:	0018      	movs	r0, r3
 80010ce:	f7ff fd07 	bl	8000ae0 <mrf_read_long>
 80010d2:	0003      	movs	r3, r0
 80010d4:	001a      	movs	r2, r3
 80010d6:	4b24      	ldr	r3, [pc, #144]	; (8001168 <mrf_interrupt_handler+0x1f0>)
 80010d8:	725a      	strb	r2, [r3, #9]
        mrf_rx_info.rssi = mrf_read_long(0x300 + frame_length + 2);
 80010da:	193b      	adds	r3, r7, r4
 80010dc:	781b      	ldrb	r3, [r3, #0]
 80010de:	b29b      	uxth	r3, r3
 80010e0:	4a20      	ldr	r2, [pc, #128]	; (8001164 <mrf_interrupt_handler+0x1ec>)
 80010e2:	4694      	mov	ip, r2
 80010e4:	4463      	add	r3, ip
 80010e6:	b29b      	uxth	r3, r3
 80010e8:	0018      	movs	r0, r3
 80010ea:	f7ff fcf9 	bl	8000ae0 <mrf_read_long>
 80010ee:	0003      	movs	r3, r0
 80010f0:	001a      	movs	r2, r3
 80010f2:	4b1d      	ldr	r3, [pc, #116]	; (8001168 <mrf_interrupt_handler+0x1f0>)
 80010f4:	729a      	strb	r2, [r3, #10]

        mrf_write_short(MRF_BBREG1, 0x00);  // RXDECINV - enable receiver
 80010f6:	2100      	movs	r1, #0
 80010f8:	2039      	movs	r0, #57	; 0x39
 80010fa:	f7ff fd24 	bl	8000b46 <mrf_write_short>

    }
    if (last_interrupt & MRF_I_TXNIF) {
 80010fe:	230b      	movs	r3, #11
 8001100:	18fb      	adds	r3, r7, r3
 8001102:	781b      	ldrb	r3, [r3, #0]
 8001104:	2201      	movs	r2, #1
 8001106:	4013      	ands	r3, r2
 8001108:	d023      	beq.n	8001152 <mrf_interrupt_handler+0x1da>
        flag_got_tx++;
 800110a:	4b1a      	ldr	r3, [pc, #104]	; (8001174 <mrf_interrupt_handler+0x1fc>)
 800110c:	781b      	ldrb	r3, [r3, #0]
 800110e:	b2db      	uxtb	r3, r3
 8001110:	3301      	adds	r3, #1
 8001112:	b2da      	uxtb	r2, r3
 8001114:	4b17      	ldr	r3, [pc, #92]	; (8001174 <mrf_interrupt_handler+0x1fc>)
 8001116:	701a      	strb	r2, [r3, #0]
        uint8_t tmp = mrf_read_short(MRF_TXSTAT);
 8001118:	1dfc      	adds	r4, r7, #7
 800111a:	2024      	movs	r0, #36	; 0x24
 800111c:	f7ff fcbf 	bl	8000a9e <mrf_read_short>
 8001120:	0003      	movs	r3, r0
 8001122:	7023      	strb	r3, [r4, #0]
        // 1 means it failed, we want 1 to mean it worked.
        mrf_tx_info.tx_ok = !(tmp & ~(1 << TXNSTAT));
 8001124:	1dfb      	adds	r3, r7, #7
 8001126:	781b      	ldrb	r3, [r3, #0]
 8001128:	2201      	movs	r2, #1
 800112a:	4393      	bics	r3, r2
 800112c:	425a      	negs	r2, r3
 800112e:	4153      	adcs	r3, r2
 8001130:	b2db      	uxtb	r3, r3
 8001132:	001a      	movs	r2, r3
 8001134:	4b10      	ldr	r3, [pc, #64]	; (8001178 <mrf_interrupt_handler+0x200>)
 8001136:	701a      	strb	r2, [r3, #0]
        mrf_tx_info.retries = tmp >> 6;
 8001138:	1dfb      	adds	r3, r7, #7
 800113a:	781b      	ldrb	r3, [r3, #0]
 800113c:	099b      	lsrs	r3, r3, #6
 800113e:	b2da      	uxtb	r2, r3
 8001140:	4b0d      	ldr	r3, [pc, #52]	; (8001178 <mrf_interrupt_handler+0x200>)
 8001142:	705a      	strb	r2, [r3, #1]
        mrf_tx_info.channel_busy = (tmp & (1 << CCAFAIL));
 8001144:	1dfb      	adds	r3, r7, #7
 8001146:	781b      	ldrb	r3, [r3, #0]
 8001148:	2220      	movs	r2, #32
 800114a:	4013      	ands	r3, r2
 800114c:	b2da      	uxtb	r2, r3
 800114e:	4b0a      	ldr	r3, [pc, #40]	; (8001178 <mrf_interrupt_handler+0x200>)
 8001150:	709a      	strb	r2, [r3, #2]
    }
}
 8001152:	46c0      	nop			; (mov r8, r8)
 8001154:	46bd      	mov	sp, r7
 8001156:	b004      	add	sp, #16
 8001158:	bdb0      	pop	{r4, r5, r7, pc}
 800115a:	46c0      	nop			; (mov r8, r8)
 800115c:	2000013d 	.word	0x2000013d
 8001160:	00000301 	.word	0x00000301
 8001164:	00000302 	.word	0x00000302
 8001168:	20000110 	.word	0x20000110
 800116c:	00000303 	.word	0x00000303
 8001170:	20000090 	.word	0x20000090
 8001174:	2000013c 	.word	0x2000013c
 8001178:	2000011c 	.word	0x2000011c

0800117c <mrf_check_flags>:

/**
 * Call this function periodically, it will invoke your nominated handlers
 */
void mrf_check_flags(void (*rx_handler) (mrf_rx_info_t *rxinfo, uint8_t *rxbuffer),
                     void (*tx_handler) (mrf_tx_info_t *txinfo)){
 800117c:	b580      	push	{r7, lr}
 800117e:	b082      	sub	sp, #8
 8001180:	af00      	add	r7, sp, #0
 8001182:	6078      	str	r0, [r7, #4]
 8001184:	6039      	str	r1, [r7, #0]
    // TODO - we could check whether the flags are > 1 here, indicating data was lost?
    if (flag_got_rx) {
 8001186:	4b10      	ldr	r3, [pc, #64]	; (80011c8 <mrf_check_flags+0x4c>)
 8001188:	781b      	ldrb	r3, [r3, #0]
 800118a:	b2db      	uxtb	r3, r3
 800118c:	2b00      	cmp	r3, #0
 800118e:	d007      	beq.n	80011a0 <mrf_check_flags+0x24>
        flag_got_rx = 0;
 8001190:	4b0d      	ldr	r3, [pc, #52]	; (80011c8 <mrf_check_flags+0x4c>)
 8001192:	2200      	movs	r2, #0
 8001194:	701a      	strb	r2, [r3, #0]
        rx_handler(&mrf_rx_info, mrf_rx_buf);
 8001196:	490d      	ldr	r1, [pc, #52]	; (80011cc <mrf_check_flags+0x50>)
 8001198:	4a0d      	ldr	r2, [pc, #52]	; (80011d0 <mrf_check_flags+0x54>)
 800119a:	687b      	ldr	r3, [r7, #4]
 800119c:	0010      	movs	r0, r2
 800119e:	4798      	blx	r3
    }
    if (flag_got_tx) {
 80011a0:	4b0c      	ldr	r3, [pc, #48]	; (80011d4 <mrf_check_flags+0x58>)
 80011a2:	781b      	ldrb	r3, [r3, #0]
 80011a4:	b2db      	uxtb	r3, r3
 80011a6:	2b00      	cmp	r3, #0
 80011a8:	d009      	beq.n	80011be <mrf_check_flags+0x42>
        flag_got_tx = 0;
 80011aa:	4b0a      	ldr	r3, [pc, #40]	; (80011d4 <mrf_check_flags+0x58>)
 80011ac:	2200      	movs	r2, #0
 80011ae:	701a      	strb	r2, [r3, #0]
        if (tx_handler) {
 80011b0:	683b      	ldr	r3, [r7, #0]
 80011b2:	2b00      	cmp	r3, #0
 80011b4:	d003      	beq.n	80011be <mrf_check_flags+0x42>
            tx_handler(&mrf_tx_info);
 80011b6:	4a08      	ldr	r2, [pc, #32]	; (80011d8 <mrf_check_flags+0x5c>)
 80011b8:	683b      	ldr	r3, [r7, #0]
 80011ba:	0010      	movs	r0, r2
 80011bc:	4798      	blx	r3
        }
    }
}
 80011be:	46c0      	nop			; (mov r8, r8)
 80011c0:	46bd      	mov	sp, r7
 80011c2:	b002      	add	sp, #8
 80011c4:	bd80      	pop	{r7, pc}
 80011c6:	46c0      	nop			; (mov r8, r8)
 80011c8:	2000013d 	.word	0x2000013d
 80011cc:	20000090 	.word	0x20000090
 80011d0:	20000110 	.word	0x20000110
 80011d4:	2000013c 	.word	0x2000013c
 80011d8:	2000011c 	.word	0x2000011c

080011dc <read_register>:

// SPI helpers //

// Reads single register
static uint8_t read_register(lora_sx1276 *lora, uint8_t address)
{
 80011dc:	b590      	push	{r4, r7, lr}
 80011de:	b087      	sub	sp, #28
 80011e0:	af00      	add	r7, sp, #0
 80011e2:	6078      	str	r0, [r7, #4]
 80011e4:	000a      	movs	r2, r1
 80011e6:	1cfb      	adds	r3, r7, #3
 80011e8:	701a      	strb	r2, [r3, #0]
  uint8_t value = 0;
 80011ea:	240f      	movs	r4, #15
 80011ec:	193b      	adds	r3, r7, r4
 80011ee:	2200      	movs	r2, #0
 80011f0:	701a      	strb	r2, [r3, #0]

  // 7bit controls read/write mode
  CLEAR_BIT(address, BIT_7);
 80011f2:	1cfb      	adds	r3, r7, #3
 80011f4:	781b      	ldrb	r3, [r3, #0]
 80011f6:	227f      	movs	r2, #127	; 0x7f
 80011f8:	4013      	ands	r3, r2
 80011fa:	b2da      	uxtb	r2, r3
 80011fc:	1cfb      	adds	r3, r7, #3
 80011fe:	701a      	strb	r2, [r3, #0]

  // Start SPI transaction
  HAL_GPIO_WritePin(lora->nss_port, lora->nss_pin, GPIO_PIN_RESET);
 8001200:	687b      	ldr	r3, [r7, #4]
 8001202:	6858      	ldr	r0, [r3, #4]
 8001204:	687b      	ldr	r3, [r7, #4]
 8001206:	891b      	ldrh	r3, [r3, #8]
 8001208:	2200      	movs	r2, #0
 800120a:	0019      	movs	r1, r3
 800120c:	f002 fdb1 	bl	8003d72 <HAL_GPIO_WritePin>
  // Transmit reg address, then receive it value
  uint32_t res1 = HAL_SPI_Transmit(lora->spi, &address, 1, lora->spi_timeout);
 8001210:	687b      	ldr	r3, [r7, #4]
 8001212:	6818      	ldr	r0, [r3, #0]
 8001214:	687b      	ldr	r3, [r7, #4]
 8001216:	68db      	ldr	r3, [r3, #12]
 8001218:	1cf9      	adds	r1, r7, #3
 800121a:	2201      	movs	r2, #1
 800121c:	f003 face 	bl	80047bc <HAL_SPI_Transmit>
 8001220:	0003      	movs	r3, r0
 8001222:	617b      	str	r3, [r7, #20]
  uint32_t res2 = HAL_SPI_Receive(lora->spi, &value, 1, lora->spi_timeout);
 8001224:	687b      	ldr	r3, [r7, #4]
 8001226:	6818      	ldr	r0, [r3, #0]
 8001228:	687b      	ldr	r3, [r7, #4]
 800122a:	68db      	ldr	r3, [r3, #12]
 800122c:	1939      	adds	r1, r7, r4
 800122e:	2201      	movs	r2, #1
 8001230:	f003 fc46 	bl	8004ac0 <HAL_SPI_Receive>
 8001234:	0003      	movs	r3, r0
 8001236:	613b      	str	r3, [r7, #16]
  // End SPI transaction
  HAL_GPIO_WritePin(lora->nss_port, lora->nss_pin, GPIO_PIN_SET);
 8001238:	687b      	ldr	r3, [r7, #4]
 800123a:	6858      	ldr	r0, [r3, #4]
 800123c:	687b      	ldr	r3, [r7, #4]
 800123e:	891b      	ldrh	r3, [r3, #8]
 8001240:	2201      	movs	r2, #1
 8001242:	0019      	movs	r1, r3
 8001244:	f002 fd95 	bl	8003d72 <HAL_GPIO_WritePin>

  if (res1 != HAL_OK || res2 != HAL_OK) {
    DEBUGF("SPI transmit/receive failed (%d %d)", res1, res2);
  }

  return value;
 8001248:	193b      	adds	r3, r7, r4
 800124a:	781b      	ldrb	r3, [r3, #0]
}
 800124c:	0018      	movs	r0, r3
 800124e:	46bd      	mov	sp, r7
 8001250:	b007      	add	sp, #28
 8001252:	bd90      	pop	{r4, r7, pc}

08001254 <write_register>:

// Writes single register
static void write_register(lora_sx1276 *lora, uint8_t address, uint8_t value)
{
 8001254:	b590      	push	{r4, r7, lr}
 8001256:	b085      	sub	sp, #20
 8001258:	af00      	add	r7, sp, #0
 800125a:	6078      	str	r0, [r7, #4]
 800125c:	0008      	movs	r0, r1
 800125e:	0011      	movs	r1, r2
 8001260:	1cfb      	adds	r3, r7, #3
 8001262:	1c02      	adds	r2, r0, #0
 8001264:	701a      	strb	r2, [r3, #0]
 8001266:	1cbb      	adds	r3, r7, #2
 8001268:	1c0a      	adds	r2, r1, #0
 800126a:	701a      	strb	r2, [r3, #0]
  // 7bit controls read/write mode
  SET_BIT(address, BIT_7);
 800126c:	1cfb      	adds	r3, r7, #3
 800126e:	1cfa      	adds	r2, r7, #3
 8001270:	7812      	ldrb	r2, [r2, #0]
 8001272:	2180      	movs	r1, #128	; 0x80
 8001274:	4249      	negs	r1, r1
 8001276:	430a      	orrs	r2, r1
 8001278:	701a      	strb	r2, [r3, #0]

  // Reg address + its new value
  uint16_t payload = (value << 8) | address;
 800127a:	1cbb      	adds	r3, r7, #2
 800127c:	781b      	ldrb	r3, [r3, #0]
 800127e:	021b      	lsls	r3, r3, #8
 8001280:	b21a      	sxth	r2, r3
 8001282:	1cfb      	adds	r3, r7, #3
 8001284:	781b      	ldrb	r3, [r3, #0]
 8001286:	b21b      	sxth	r3, r3
 8001288:	4313      	orrs	r3, r2
 800128a:	b21b      	sxth	r3, r3
 800128c:	b29a      	uxth	r2, r3
 800128e:	240a      	movs	r4, #10
 8001290:	193b      	adds	r3, r7, r4
 8001292:	801a      	strh	r2, [r3, #0]

  // Start SPI transaction, send address + value
  HAL_GPIO_WritePin(lora->nss_port, lora->nss_pin, GPIO_PIN_RESET);
 8001294:	687b      	ldr	r3, [r7, #4]
 8001296:	6858      	ldr	r0, [r3, #4]
 8001298:	687b      	ldr	r3, [r7, #4]
 800129a:	891b      	ldrh	r3, [r3, #8]
 800129c:	2200      	movs	r2, #0
 800129e:	0019      	movs	r1, r3
 80012a0:	f002 fd67 	bl	8003d72 <HAL_GPIO_WritePin>
  HAL_Delay(100);
 80012a4:	2064      	movs	r0, #100	; 0x64
 80012a6:	f002 fa6f 	bl	8003788 <HAL_Delay>
  uint32_t res = HAL_SPI_Transmit(lora->spi, (uint8_t*)&payload, 2, lora->spi_timeout);
 80012aa:	687b      	ldr	r3, [r7, #4]
 80012ac:	6818      	ldr	r0, [r3, #0]
 80012ae:	687b      	ldr	r3, [r7, #4]
 80012b0:	68db      	ldr	r3, [r3, #12]
 80012b2:	1939      	adds	r1, r7, r4
 80012b4:	2202      	movs	r2, #2
 80012b6:	f003 fa81 	bl	80047bc <HAL_SPI_Transmit>
 80012ba:	0003      	movs	r3, r0
 80012bc:	60fb      	str	r3, [r7, #12]
  // End SPI transaction
  HAL_GPIO_WritePin(lora->nss_port, lora->nss_pin, GPIO_PIN_SET);
 80012be:	687b      	ldr	r3, [r7, #4]
 80012c0:	6858      	ldr	r0, [r3, #4]
 80012c2:	687b      	ldr	r3, [r7, #4]
 80012c4:	891b      	ldrh	r3, [r3, #8]
 80012c6:	2201      	movs	r2, #1
 80012c8:	0019      	movs	r1, r3
 80012ca:	f002 fd52 	bl	8003d72 <HAL_GPIO_WritePin>

  if (res != HAL_OK) {
    DEBUGF("SPI transmit failed: %d", res);
  }
}
 80012ce:	46c0      	nop			; (mov r8, r8)
 80012d0:	46bd      	mov	sp, r7
 80012d2:	b005      	add	sp, #20
 80012d4:	bd90      	pop	{r4, r7, pc}

080012d6 <write_fifo>:

// Copies bytes from buffer into radio FIFO given len length
static void write_fifo(lora_sx1276 *lora, uint8_t *buffer, uint8_t len, uint8_t mode)
{
 80012d6:	b590      	push	{r4, r7, lr}
 80012d8:	b089      	sub	sp, #36	; 0x24
 80012da:	af00      	add	r7, sp, #0
 80012dc:	60f8      	str	r0, [r7, #12]
 80012de:	60b9      	str	r1, [r7, #8]
 80012e0:	0019      	movs	r1, r3
 80012e2:	1dfb      	adds	r3, r7, #7
 80012e4:	701a      	strb	r2, [r3, #0]
 80012e6:	1dbb      	adds	r3, r7, #6
 80012e8:	1c0a      	adds	r2, r1, #0
 80012ea:	701a      	strb	r2, [r3, #0]
  uint8_t address = REG_FIFO | BIT_7;
 80012ec:	2417      	movs	r4, #23
 80012ee:	193b      	adds	r3, r7, r4
 80012f0:	2280      	movs	r2, #128	; 0x80
 80012f2:	701a      	strb	r2, [r3, #0]

  // Start SPI transaction, send address
  HAL_GPIO_WritePin(lora->nss_port, lora->nss_pin, GPIO_PIN_RESET);
 80012f4:	68fb      	ldr	r3, [r7, #12]
 80012f6:	6858      	ldr	r0, [r3, #4]
 80012f8:	68fb      	ldr	r3, [r7, #12]
 80012fa:	891b      	ldrh	r3, [r3, #8]
 80012fc:	2200      	movs	r2, #0
 80012fe:	0019      	movs	r1, r3
 8001300:	f002 fd37 	bl	8003d72 <HAL_GPIO_WritePin>
  uint32_t res1 = HAL_SPI_Transmit(lora->spi, &address, 1, lora->spi_timeout);
 8001304:	68fb      	ldr	r3, [r7, #12]
 8001306:	6818      	ldr	r0, [r3, #0]
 8001308:	68fb      	ldr	r3, [r7, #12]
 800130a:	68db      	ldr	r3, [r3, #12]
 800130c:	1939      	adds	r1, r7, r4
 800130e:	2201      	movs	r2, #1
 8001310:	f003 fa54 	bl	80047bc <HAL_SPI_Transmit>
 8001314:	0003      	movs	r3, r0
 8001316:	61fb      	str	r3, [r7, #28]
  if (mode == TRANSFER_MODE_DMA) {
 8001318:	1dbb      	adds	r3, r7, #6
 800131a:	781b      	ldrb	r3, [r3, #0]
 800131c:	2b01      	cmp	r3, #1
 800131e:	d109      	bne.n	8001334 <write_fifo+0x5e>
    HAL_SPI_Transmit_DMA(lora->spi, buffer, len);
 8001320:	68fb      	ldr	r3, [r7, #12]
 8001322:	6818      	ldr	r0, [r3, #0]
 8001324:	1dfb      	adds	r3, r7, #7
 8001326:	781b      	ldrb	r3, [r3, #0]
 8001328:	b29a      	uxth	r2, r3
 800132a:	68bb      	ldr	r3, [r7, #8]
 800132c:	0019      	movs	r1, r3
 800132e:	f003 ff45 	bl	80051bc <HAL_SPI_Transmit_DMA>
 8001332:	e013      	b.n	800135c <write_fifo+0x86>
    // Intentionally leave SPI active - let DMA finish transfer
    return;
  }
  uint32_t res2 = HAL_SPI_Transmit(lora->spi, buffer, len, lora->spi_timeout);
 8001334:	68fb      	ldr	r3, [r7, #12]
 8001336:	6818      	ldr	r0, [r3, #0]
 8001338:	1dfb      	adds	r3, r7, #7
 800133a:	781b      	ldrb	r3, [r3, #0]
 800133c:	b29a      	uxth	r2, r3
 800133e:	68fb      	ldr	r3, [r7, #12]
 8001340:	68db      	ldr	r3, [r3, #12]
 8001342:	68b9      	ldr	r1, [r7, #8]
 8001344:	f003 fa3a 	bl	80047bc <HAL_SPI_Transmit>
 8001348:	0003      	movs	r3, r0
 800134a:	61bb      	str	r3, [r7, #24]
  // End SPI transaction
  HAL_GPIO_WritePin(lora->nss_port, lora->nss_pin, GPIO_PIN_SET);
 800134c:	68fb      	ldr	r3, [r7, #12]
 800134e:	6858      	ldr	r0, [r3, #4]
 8001350:	68fb      	ldr	r3, [r7, #12]
 8001352:	891b      	ldrh	r3, [r3, #8]
 8001354:	2201      	movs	r2, #1
 8001356:	0019      	movs	r1, r3
 8001358:	f002 fd0b 	bl	8003d72 <HAL_GPIO_WritePin>

  if (res1 != HAL_OK || res2 != HAL_OK) {
    DEBUGF("SPI transmit failed");
  }
}
 800135c:	46bd      	mov	sp, r7
 800135e:	b009      	add	sp, #36	; 0x24
 8001360:	bd90      	pop	{r4, r7, pc}

08001362 <read_fifo>:

// Reads data "len" size from FIFO into buffer
static void read_fifo(lora_sx1276 *lora, uint8_t *buffer, uint8_t len, uint8_t mode)
{
 8001362:	b590      	push	{r4, r7, lr}
 8001364:	b089      	sub	sp, #36	; 0x24
 8001366:	af00      	add	r7, sp, #0
 8001368:	60f8      	str	r0, [r7, #12]
 800136a:	60b9      	str	r1, [r7, #8]
 800136c:	0019      	movs	r1, r3
 800136e:	1dfb      	adds	r3, r7, #7
 8001370:	701a      	strb	r2, [r3, #0]
 8001372:	1dbb      	adds	r3, r7, #6
 8001374:	1c0a      	adds	r2, r1, #0
 8001376:	701a      	strb	r2, [r3, #0]
  uint8_t address = REG_FIFO;
 8001378:	2417      	movs	r4, #23
 800137a:	193b      	adds	r3, r7, r4
 800137c:	2200      	movs	r2, #0
 800137e:	701a      	strb	r2, [r3, #0]

  // Start SPI transaction, send address
  HAL_GPIO_WritePin(lora->nss_port, lora->nss_pin, GPIO_PIN_RESET);
 8001380:	68fb      	ldr	r3, [r7, #12]
 8001382:	6858      	ldr	r0, [r3, #4]
 8001384:	68fb      	ldr	r3, [r7, #12]
 8001386:	891b      	ldrh	r3, [r3, #8]
 8001388:	2200      	movs	r2, #0
 800138a:	0019      	movs	r1, r3
 800138c:	f002 fcf1 	bl	8003d72 <HAL_GPIO_WritePin>
  uint32_t res1 = HAL_SPI_Transmit(lora->spi, &address, 1, lora->spi_timeout);
 8001390:	68fb      	ldr	r3, [r7, #12]
 8001392:	6818      	ldr	r0, [r3, #0]
 8001394:	68fb      	ldr	r3, [r7, #12]
 8001396:	68db      	ldr	r3, [r3, #12]
 8001398:	1939      	adds	r1, r7, r4
 800139a:	2201      	movs	r2, #1
 800139c:	f003 fa0e 	bl	80047bc <HAL_SPI_Transmit>
 80013a0:	0003      	movs	r3, r0
 80013a2:	61fb      	str	r3, [r7, #28]
  uint32_t res2;
  if (mode == TRANSFER_MODE_DMA) {
 80013a4:	1dbb      	adds	r3, r7, #6
 80013a6:	781b      	ldrb	r3, [r3, #0]
 80013a8:	2b01      	cmp	r3, #1
 80013aa:	d10b      	bne.n	80013c4 <read_fifo+0x62>
    res2 = HAL_SPI_Receive_DMA(lora->spi, buffer, len);
 80013ac:	68fb      	ldr	r3, [r7, #12]
 80013ae:	6818      	ldr	r0, [r3, #0]
 80013b0:	1dfb      	adds	r3, r7, #7
 80013b2:	781b      	ldrb	r3, [r3, #0]
 80013b4:	b29a      	uxth	r2, r3
 80013b6:	68bb      	ldr	r3, [r7, #8]
 80013b8:	0019      	movs	r1, r3
 80013ba:	f003 fffd 	bl	80053b8 <HAL_SPI_Receive_DMA>
 80013be:	0003      	movs	r3, r0
 80013c0:	61bb      	str	r3, [r7, #24]
  }

  if (res1 != HAL_OK || res2 != HAL_OK) {
    DEBUGF("SPI receive/transmit failed");
  }
}
 80013c2:	e013      	b.n	80013ec <read_fifo+0x8a>
    res2 = HAL_SPI_Receive(lora->spi, buffer, len, lora->spi_timeout);
 80013c4:	68fb      	ldr	r3, [r7, #12]
 80013c6:	6818      	ldr	r0, [r3, #0]
 80013c8:	1dfb      	adds	r3, r7, #7
 80013ca:	781b      	ldrb	r3, [r3, #0]
 80013cc:	b29a      	uxth	r2, r3
 80013ce:	68fb      	ldr	r3, [r7, #12]
 80013d0:	68db      	ldr	r3, [r3, #12]
 80013d2:	68b9      	ldr	r1, [r7, #8]
 80013d4:	f003 fb74 	bl	8004ac0 <HAL_SPI_Receive>
 80013d8:	0003      	movs	r3, r0
 80013da:	61bb      	str	r3, [r7, #24]
    HAL_GPIO_WritePin(lora->nss_port, lora->nss_pin, GPIO_PIN_SET);
 80013dc:	68fb      	ldr	r3, [r7, #12]
 80013de:	6858      	ldr	r0, [r3, #4]
 80013e0:	68fb      	ldr	r3, [r7, #12]
 80013e2:	891b      	ldrh	r3, [r3, #8]
 80013e4:	2201      	movs	r2, #1
 80013e6:	0019      	movs	r1, r3
 80013e8:	f002 fcc3 	bl	8003d72 <HAL_GPIO_WritePin>
}
 80013ec:	46c0      	nop			; (mov r8, r8)
 80013ee:	46bd      	mov	sp, r7
 80013f0:	b009      	add	sp, #36	; 0x24
 80013f2:	bd90      	pop	{r4, r7, pc}

080013f4 <set_mode>:

static void set_mode(lora_sx1276 *lora, uint8_t mode)
{
 80013f4:	b580      	push	{r7, lr}
 80013f6:	b082      	sub	sp, #8
 80013f8:	af00      	add	r7, sp, #0
 80013fa:	6078      	str	r0, [r7, #4]
 80013fc:	000a      	movs	r2, r1
 80013fe:	1cfb      	adds	r3, r7, #3
 8001400:	701a      	strb	r2, [r3, #0]
  write_register(lora, REG_OP_MODE, OPMODE_LONG_RANGE_MODE | mode);
 8001402:	1cfb      	adds	r3, r7, #3
 8001404:	781b      	ldrb	r3, [r3, #0]
 8001406:	2280      	movs	r2, #128	; 0x80
 8001408:	4252      	negs	r2, r2
 800140a:	4313      	orrs	r3, r2
 800140c:	b2da      	uxtb	r2, r3
 800140e:	687b      	ldr	r3, [r7, #4]
 8001410:	2101      	movs	r1, #1
 8001412:	0018      	movs	r0, r3
 8001414:	f7ff ff1e 	bl	8001254 <write_register>
}
 8001418:	46c0      	nop			; (mov r8, r8)
 800141a:	46bd      	mov	sp, r7
 800141c:	b002      	add	sp, #8
 800141e:	bd80      	pop	{r7, pc}

08001420 <set_OCP>:

// Set Overload Current Protection
static void set_OCP(lora_sx1276 *lora, uint8_t imax)
{
 8001420:	b580      	push	{r7, lr}
 8001422:	b084      	sub	sp, #16
 8001424:	af00      	add	r7, sp, #0
 8001426:	6078      	str	r0, [r7, #4]
 8001428:	000a      	movs	r2, r1
 800142a:	1cfb      	adds	r3, r7, #3
 800142c:	701a      	strb	r2, [r3, #0]
  uint8_t value;

  // Minimum available current is 45mA, maximum 240mA
  // As per page 80 of datasheet
  if (imax < 45) {
 800142e:	1cfb      	adds	r3, r7, #3
 8001430:	781b      	ldrb	r3, [r3, #0]
 8001432:	2b2c      	cmp	r3, #44	; 0x2c
 8001434:	d802      	bhi.n	800143c <set_OCP+0x1c>
    imax = 45;
 8001436:	1cfb      	adds	r3, r7, #3
 8001438:	222d      	movs	r2, #45	; 0x2d
 800143a:	701a      	strb	r2, [r3, #0]
  }
  if (imax > 240) {
 800143c:	1cfb      	adds	r3, r7, #3
 800143e:	781b      	ldrb	r3, [r3, #0]
 8001440:	2bf0      	cmp	r3, #240	; 0xf0
 8001442:	d902      	bls.n	800144a <set_OCP+0x2a>
    imax = 240;
 8001444:	1cfb      	adds	r3, r7, #3
 8001446:	22f0      	movs	r2, #240	; 0xf0
 8001448:	701a      	strb	r2, [r3, #0]
  }

  if (imax < 130) {
 800144a:	1cfb      	adds	r3, r7, #3
 800144c:	781b      	ldrb	r3, [r3, #0]
 800144e:	2b81      	cmp	r3, #129	; 0x81
 8001450:	d80c      	bhi.n	800146c <set_OCP+0x4c>
    value = (imax - 45) / 5;
 8001452:	1cfb      	adds	r3, r7, #3
 8001454:	781b      	ldrb	r3, [r3, #0]
 8001456:	3b2d      	subs	r3, #45	; 0x2d
 8001458:	2105      	movs	r1, #5
 800145a:	0018      	movs	r0, r3
 800145c:	f7fe fede 	bl	800021c <__divsi3>
 8001460:	0003      	movs	r3, r0
 8001462:	001a      	movs	r2, r3
 8001464:	230f      	movs	r3, #15
 8001466:	18fb      	adds	r3, r7, r3
 8001468:	701a      	strb	r2, [r3, #0]
 800146a:	e00b      	b.n	8001484 <set_OCP+0x64>
  } else {
    value = (imax + 30) / 10;
 800146c:	1cfb      	adds	r3, r7, #3
 800146e:	781b      	ldrb	r3, [r3, #0]
 8001470:	331e      	adds	r3, #30
 8001472:	210a      	movs	r1, #10
 8001474:	0018      	movs	r0, r3
 8001476:	f7fe fed1 	bl	800021c <__divsi3>
 800147a:	0003      	movs	r3, r0
 800147c:	001a      	movs	r2, r3
 800147e:	230f      	movs	r3, #15
 8001480:	18fb      	adds	r3, r7, r3
 8001482:	701a      	strb	r2, [r3, #0]
  }

  write_register(lora, REG_OCP, OCP_ON | value);
 8001484:	230f      	movs	r3, #15
 8001486:	18fb      	adds	r3, r7, r3
 8001488:	781b      	ldrb	r3, [r3, #0]
 800148a:	2220      	movs	r2, #32
 800148c:	4313      	orrs	r3, r2
 800148e:	b2da      	uxtb	r2, r3
 8001490:	687b      	ldr	r3, [r7, #4]
 8001492:	210b      	movs	r1, #11
 8001494:	0018      	movs	r0, r3
 8001496:	f7ff fedd 	bl	8001254 <write_register>
}
 800149a:	46c0      	nop			; (mov r8, r8)
 800149c:	46bd      	mov	sp, r7
 800149e:	b004      	add	sp, #16
 80014a0:	bd80      	pop	{r7, pc}

080014a2 <set_low_data_rate_optimization>:

static void set_low_data_rate_optimization(lora_sx1276 *lora)
{
 80014a2:	b580      	push	{r7, lr}
 80014a4:	b088      	sub	sp, #32
 80014a6:	af00      	add	r7, sp, #0
 80014a8:	6078      	str	r0, [r7, #4]
  assert_param(lora);

  // Read current signal bandwidth
  uint64_t bandwidth = read_register(lora, REG_MODEM_CONFIG_1) >> 4;
 80014aa:	687b      	ldr	r3, [r7, #4]
 80014ac:	211d      	movs	r1, #29
 80014ae:	0018      	movs	r0, r3
 80014b0:	f7ff fe94 	bl	80011dc <read_register>
 80014b4:	0003      	movs	r3, r0
 80014b6:	091b      	lsrs	r3, r3, #4
 80014b8:	b2db      	uxtb	r3, r3
 80014ba:	613b      	str	r3, [r7, #16]
 80014bc:	2300      	movs	r3, #0
 80014be:	617b      	str	r3, [r7, #20]
  // Read current spreading factor
  uint8_t  sf = read_register(lora, REG_MODEM_CONFIG_2) >> 4;
 80014c0:	687b      	ldr	r3, [r7, #4]
 80014c2:	211e      	movs	r1, #30
 80014c4:	0018      	movs	r0, r3
 80014c6:	f7ff fe89 	bl	80011dc <read_register>
 80014ca:	0003      	movs	r3, r0
 80014cc:	001a      	movs	r2, r3
 80014ce:	210f      	movs	r1, #15
 80014d0:	187b      	adds	r3, r7, r1
 80014d2:	0912      	lsrs	r2, r2, #4
 80014d4:	701a      	strb	r2, [r3, #0]

  uint8_t  mc3 = MC3_AGCAUTO;
 80014d6:	231f      	movs	r3, #31
 80014d8:	18fb      	adds	r3, r7, r3
 80014da:	2204      	movs	r2, #4
 80014dc:	701a      	strb	r2, [r3, #0]

  if (sf >= 11 && bandwidth == LORA_BANDWIDTH_125_KHZ) {
 80014de:	187b      	adds	r3, r7, r1
 80014e0:	781b      	ldrb	r3, [r3, #0]
 80014e2:	2b0a      	cmp	r3, #10
 80014e4:	d90c      	bls.n	8001500 <set_low_data_rate_optimization+0x5e>
 80014e6:	693b      	ldr	r3, [r7, #16]
 80014e8:	2b07      	cmp	r3, #7
 80014ea:	d109      	bne.n	8001500 <set_low_data_rate_optimization+0x5e>
 80014ec:	697b      	ldr	r3, [r7, #20]
 80014ee:	2b00      	cmp	r3, #0
 80014f0:	d106      	bne.n	8001500 <set_low_data_rate_optimization+0x5e>
    mc3 |= MC3_MOBILE_NODE;
 80014f2:	221f      	movs	r2, #31
 80014f4:	18bb      	adds	r3, r7, r2
 80014f6:	18ba      	adds	r2, r7, r2
 80014f8:	7812      	ldrb	r2, [r2, #0]
 80014fa:	2108      	movs	r1, #8
 80014fc:	430a      	orrs	r2, r1
 80014fe:	701a      	strb	r2, [r3, #0]
  }

  write_register(lora, REG_MODEM_CONFIG_3, mc3);
 8001500:	231f      	movs	r3, #31
 8001502:	18fb      	adds	r3, r7, r3
 8001504:	781a      	ldrb	r2, [r3, #0]
 8001506:	687b      	ldr	r3, [r7, #4]
 8001508:	2126      	movs	r1, #38	; 0x26
 800150a:	0018      	movs	r0, r3
 800150c:	f7ff fea2 	bl	8001254 <write_register>
}
 8001510:	46c0      	nop			; (mov r8, r8)
 8001512:	46bd      	mov	sp, r7
 8001514:	b008      	add	sp, #32
 8001516:	bd80      	pop	{r7, pc}

08001518 <lora_mode_sleep>:

void lora_mode_sleep(lora_sx1276 *lora)
{
 8001518:	b580      	push	{r7, lr}
 800151a:	b082      	sub	sp, #8
 800151c:	af00      	add	r7, sp, #0
 800151e:	6078      	str	r0, [r7, #4]
  assert_param(lora);

  set_mode(lora, OPMODE_SLEEP);
 8001520:	687b      	ldr	r3, [r7, #4]
 8001522:	2100      	movs	r1, #0
 8001524:	0018      	movs	r0, r3
 8001526:	f7ff ff65 	bl	80013f4 <set_mode>
}
 800152a:	46c0      	nop			; (mov r8, r8)
 800152c:	46bd      	mov	sp, r7
 800152e:	b002      	add	sp, #8
 8001530:	bd80      	pop	{r7, pc}

08001532 <lora_mode_receive_continious>:

void lora_mode_receive_continious(lora_sx1276 *lora)
{
 8001532:	b580      	push	{r7, lr}
 8001534:	b082      	sub	sp, #8
 8001536:	af00      	add	r7, sp, #0
 8001538:	6078      	str	r0, [r7, #4]
  assert_param(lora);

  // Update base FIFO address for incoming packets
  write_register(lora, REG_FIFO_RX_BASE_ADDR, lora->rx_base_addr);
 800153a:	687b      	ldr	r3, [r7, #4]
 800153c:	7e5a      	ldrb	r2, [r3, #25]
 800153e:	687b      	ldr	r3, [r7, #4]
 8001540:	210f      	movs	r1, #15
 8001542:	0018      	movs	r0, r3
 8001544:	f7ff fe86 	bl	8001254 <write_register>
  // Clear all RX related IRQs
  write_register(lora, REG_IRQ_FLAGS, IRQ_FLAGS_RX_ALL);
 8001548:	687b      	ldr	r3, [r7, #4]
 800154a:	22f0      	movs	r2, #240	; 0xf0
 800154c:	2112      	movs	r1, #18
 800154e:	0018      	movs	r0, r3
 8001550:	f7ff fe80 	bl	8001254 <write_register>

  set_mode(lora, OPMODE_RX_CONTINUOUS);
 8001554:	687b      	ldr	r3, [r7, #4]
 8001556:	2105      	movs	r1, #5
 8001558:	0018      	movs	r0, r3
 800155a:	f7ff ff4b 	bl	80013f4 <set_mode>
}
 800155e:	46c0      	nop			; (mov r8, r8)
 8001560:	46bd      	mov	sp, r7
 8001562:	b002      	add	sp, #8
 8001564:	bd80      	pop	{r7, pc}

08001566 <lora_mode_standby>:

  set_mode(lora, OPMODE_RX_SINGLE);
}

void lora_mode_standby(lora_sx1276 *lora)
{
 8001566:	b580      	push	{r7, lr}
 8001568:	b082      	sub	sp, #8
 800156a:	af00      	add	r7, sp, #0
 800156c:	6078      	str	r0, [r7, #4]
  assert_param(lora);

  set_mode(lora, OPMODE_STDBY);
 800156e:	687b      	ldr	r3, [r7, #4]
 8001570:	2101      	movs	r1, #1
 8001572:	0018      	movs	r0, r3
 8001574:	f7ff ff3e 	bl	80013f4 <set_mode>
}
 8001578:	46c0      	nop			; (mov r8, r8)
 800157a:	46bd      	mov	sp, r7
 800157c:	b002      	add	sp, #8
 800157e:	bd80      	pop	{r7, pc}

08001580 <lora_set_explicit_header_mode>:
  mc1 |= MC1_IMPLICIT_HEADER_MODE;
  write_register(lora, REG_MODEM_CONFIG_1, mc1);
}

void lora_set_explicit_header_mode(lora_sx1276 *lora)
{
 8001580:	b5b0      	push	{r4, r5, r7, lr}
 8001582:	b084      	sub	sp, #16
 8001584:	af00      	add	r7, sp, #0
 8001586:	6078      	str	r0, [r7, #4]
  assert_param(lora);

  uint8_t mc1 = read_register(lora, REG_MODEM_CONFIG_1);
 8001588:	200f      	movs	r0, #15
 800158a:	0005      	movs	r5, r0
 800158c:	183c      	adds	r4, r7, r0
 800158e:	687b      	ldr	r3, [r7, #4]
 8001590:	211d      	movs	r1, #29
 8001592:	0018      	movs	r0, r3
 8001594:	f7ff fe22 	bl	80011dc <read_register>
 8001598:	0003      	movs	r3, r0
 800159a:	7023      	strb	r3, [r4, #0]
  mc1 &= ~MC1_IMPLICIT_HEADER_MODE;
 800159c:	0028      	movs	r0, r5
 800159e:	183b      	adds	r3, r7, r0
 80015a0:	183a      	adds	r2, r7, r0
 80015a2:	7812      	ldrb	r2, [r2, #0]
 80015a4:	2101      	movs	r1, #1
 80015a6:	438a      	bics	r2, r1
 80015a8:	701a      	strb	r2, [r3, #0]
  write_register(lora, REG_MODEM_CONFIG_1, mc1);
 80015aa:	183b      	adds	r3, r7, r0
 80015ac:	781a      	ldrb	r2, [r3, #0]
 80015ae:	687b      	ldr	r3, [r7, #4]
 80015b0:	211d      	movs	r1, #29
 80015b2:	0018      	movs	r0, r3
 80015b4:	f7ff fe4e 	bl	8001254 <write_register>
}
 80015b8:	46c0      	nop			; (mov r8, r8)
 80015ba:	46bd      	mov	sp, r7
 80015bc:	b004      	add	sp, #16
 80015be:	bdb0      	pop	{r4, r5, r7, pc}

080015c0 <lora_set_tx_power>:

void lora_set_tx_power(lora_sx1276 *lora, uint8_t level)
{
 80015c0:	b580      	push	{r7, lr}
 80015c2:	b082      	sub	sp, #8
 80015c4:	af00      	add	r7, sp, #0
 80015c6:	6078      	str	r0, [r7, #4]
 80015c8:	000a      	movs	r2, r1
 80015ca:	1cfb      	adds	r3, r7, #3
 80015cc:	701a      	strb	r2, [r3, #0]
  assert_param(lora);

  if (lora->pa_mode == LORA_PA_OUTPUT_RFO) {
 80015ce:	687b      	ldr	r3, [r7, #4]
 80015d0:	695b      	ldr	r3, [r3, #20]
 80015d2:	2b00      	cmp	r3, #0
 80015d4:	d111      	bne.n	80015fa <lora_set_tx_power+0x3a>
    // RFO pin
    assert_param(level <= 15);
    if (level > 15) {
 80015d6:	1cfb      	adds	r3, r7, #3
 80015d8:	781b      	ldrb	r3, [r3, #0]
 80015da:	2b0f      	cmp	r3, #15
 80015dc:	d902      	bls.n	80015e4 <lora_set_tx_power+0x24>
      level = 15;
 80015de:	1cfb      	adds	r3, r7, #3
 80015e0:	220f      	movs	r2, #15
 80015e2:	701a      	strb	r2, [r3, #0]
    }
    // 7 bit -> PaSelect: 0 for RFO    --- = 0x70
    // 6-4 bits -> MaxPower (select all) --^
    // 3-0 bits -> Output power, dB (max 15)
    write_register(lora, REG_PA_CONFIG, 0x70 | level);
 80015e4:	1cfb      	adds	r3, r7, #3
 80015e6:	781b      	ldrb	r3, [r3, #0]
 80015e8:	2270      	movs	r2, #112	; 0x70
 80015ea:	4313      	orrs	r3, r2
 80015ec:	b2da      	uxtb	r2, r3
 80015ee:	687b      	ldr	r3, [r7, #4]
 80015f0:	2109      	movs	r1, #9
 80015f2:	0018      	movs	r0, r3
 80015f4:	f7ff fe2e 	bl	8001254 <write_register>
    // Minimum power level is 2 which is 0 for chip
    level -= 2;
    // 7 bit -> PaSelect: 1 for PA_BOOST
    write_register(lora, REG_PA_CONFIG, BIT_7 | level);
  }
}
 80015f8:	e03d      	b.n	8001676 <lora_set_tx_power+0xb6>
    if (level > 20) {
 80015fa:	1cfb      	adds	r3, r7, #3
 80015fc:	781b      	ldrb	r3, [r3, #0]
 80015fe:	2b14      	cmp	r3, #20
 8001600:	d902      	bls.n	8001608 <lora_set_tx_power+0x48>
      level = 20;
 8001602:	1cfb      	adds	r3, r7, #3
 8001604:	2214      	movs	r2, #20
 8001606:	701a      	strb	r2, [r3, #0]
    if (level < 2) {
 8001608:	1cfb      	adds	r3, r7, #3
 800160a:	781b      	ldrb	r3, [r3, #0]
 800160c:	2b01      	cmp	r3, #1
 800160e:	d802      	bhi.n	8001616 <lora_set_tx_power+0x56>
      level = 2;
 8001610:	1cfb      	adds	r3, r7, #3
 8001612:	2202      	movs	r2, #2
 8001614:	701a      	strb	r2, [r3, #0]
    if (level > 17) {
 8001616:	1cfb      	adds	r3, r7, #3
 8001618:	781b      	ldrb	r3, [r3, #0]
 800161a:	2b11      	cmp	r3, #17
 800161c:	d910      	bls.n	8001640 <lora_set_tx_power+0x80>
      level -= 3;
 800161e:	1cfb      	adds	r3, r7, #3
 8001620:	1cfa      	adds	r2, r7, #3
 8001622:	7812      	ldrb	r2, [r2, #0]
 8001624:	3a03      	subs	r2, #3
 8001626:	701a      	strb	r2, [r3, #0]
      write_register(lora, REG_PA_DAC, PA_DAC_HIGH_POWER);
 8001628:	687b      	ldr	r3, [r7, #4]
 800162a:	2287      	movs	r2, #135	; 0x87
 800162c:	214d      	movs	r1, #77	; 0x4d
 800162e:	0018      	movs	r0, r3
 8001630:	f7ff fe10 	bl	8001254 <write_register>
      set_OCP(lora, 140);
 8001634:	687b      	ldr	r3, [r7, #4]
 8001636:	218c      	movs	r1, #140	; 0x8c
 8001638:	0018      	movs	r0, r3
 800163a:	f7ff fef1 	bl	8001420 <set_OCP>
 800163e:	e00a      	b.n	8001656 <lora_set_tx_power+0x96>
      write_register(lora, REG_PA_DAC, PA_DAC_HALF_POWER);
 8001640:	687b      	ldr	r3, [r7, #4]
 8001642:	2284      	movs	r2, #132	; 0x84
 8001644:	214d      	movs	r1, #77	; 0x4d
 8001646:	0018      	movs	r0, r3
 8001648:	f7ff fe04 	bl	8001254 <write_register>
      set_OCP(lora, 97);
 800164c:	687b      	ldr	r3, [r7, #4]
 800164e:	2161      	movs	r1, #97	; 0x61
 8001650:	0018      	movs	r0, r3
 8001652:	f7ff fee5 	bl	8001420 <set_OCP>
    level -= 2;
 8001656:	1cfb      	adds	r3, r7, #3
 8001658:	1cfa      	adds	r2, r7, #3
 800165a:	7812      	ldrb	r2, [r2, #0]
 800165c:	3a02      	subs	r2, #2
 800165e:	701a      	strb	r2, [r3, #0]
    write_register(lora, REG_PA_CONFIG, BIT_7 | level);
 8001660:	1cfb      	adds	r3, r7, #3
 8001662:	781b      	ldrb	r3, [r3, #0]
 8001664:	2280      	movs	r2, #128	; 0x80
 8001666:	4252      	negs	r2, r2
 8001668:	4313      	orrs	r3, r2
 800166a:	b2da      	uxtb	r2, r3
 800166c:	687b      	ldr	r3, [r7, #4]
 800166e:	2109      	movs	r1, #9
 8001670:	0018      	movs	r0, r3
 8001672:	f7ff fdef 	bl	8001254 <write_register>
}
 8001676:	46c0      	nop			; (mov r8, r8)
 8001678:	46bd      	mov	sp, r7
 800167a:	b002      	add	sp, #8
 800167c:	bd80      	pop	{r7, pc}
	...

08001680 <lora_set_frequency>:

void lora_set_frequency(lora_sx1276 *lora, uint64_t freq)
{
 8001680:	b5b0      	push	{r4, r5, r7, lr}
 8001682:	b08a      	sub	sp, #40	; 0x28
 8001684:	af00      	add	r7, sp, #0
 8001686:	61f8      	str	r0, [r7, #28]
 8001688:	613a      	str	r2, [r7, #16]
 800168a:	617b      	str	r3, [r7, #20]
  assert_param(lora);

  // From datasheet: FREQ = (FRF * 32 Mhz) / (2 ^ 19)
  uint64_t frf = (freq << 19) / (32 * MHZ);
 800168c:	693b      	ldr	r3, [r7, #16]
 800168e:	0b5b      	lsrs	r3, r3, #13
 8001690:	697a      	ldr	r2, [r7, #20]
 8001692:	04d2      	lsls	r2, r2, #19
 8001694:	60fa      	str	r2, [r7, #12]
 8001696:	68fa      	ldr	r2, [r7, #12]
 8001698:	431a      	orrs	r2, r3
 800169a:	60fa      	str	r2, [r7, #12]
 800169c:	693b      	ldr	r3, [r7, #16]
 800169e:	04db      	lsls	r3, r3, #19
 80016a0:	60bb      	str	r3, [r7, #8]
 80016a2:	4a1a      	ldr	r2, [pc, #104]	; (800170c <lora_set_frequency+0x8c>)
 80016a4:	2300      	movs	r3, #0
 80016a6:	68b8      	ldr	r0, [r7, #8]
 80016a8:	68f9      	ldr	r1, [r7, #12]
 80016aa:	f7fe fea3 	bl	80003f4 <__aeabi_uldivmod>
 80016ae:	0002      	movs	r2, r0
 80016b0:	000b      	movs	r3, r1
 80016b2:	623a      	str	r2, [r7, #32]
 80016b4:	627b      	str	r3, [r7, #36]	; 0x24

  write_register(lora, REG_FRF_MSB, frf >> 16);
 80016b6:	6a7b      	ldr	r3, [r7, #36]	; 0x24
 80016b8:	041b      	lsls	r3, r3, #16
 80016ba:	6a3a      	ldr	r2, [r7, #32]
 80016bc:	0c12      	lsrs	r2, r2, #16
 80016be:	603a      	str	r2, [r7, #0]
 80016c0:	683a      	ldr	r2, [r7, #0]
 80016c2:	431a      	orrs	r2, r3
 80016c4:	603a      	str	r2, [r7, #0]
 80016c6:	6a7b      	ldr	r3, [r7, #36]	; 0x24
 80016c8:	0c1b      	lsrs	r3, r3, #16
 80016ca:	607b      	str	r3, [r7, #4]
 80016cc:	783a      	ldrb	r2, [r7, #0]
 80016ce:	69fb      	ldr	r3, [r7, #28]
 80016d0:	2106      	movs	r1, #6
 80016d2:	0018      	movs	r0, r3
 80016d4:	f7ff fdbe 	bl	8001254 <write_register>
  write_register(lora, REG_FRF_MID, (frf & 0xff00) >> 8);
 80016d8:	6a7b      	ldr	r3, [r7, #36]	; 0x24
 80016da:	061b      	lsls	r3, r3, #24
 80016dc:	6a3a      	ldr	r2, [r7, #32]
 80016de:	0a14      	lsrs	r4, r2, #8
 80016e0:	431c      	orrs	r4, r3
 80016e2:	6a7b      	ldr	r3, [r7, #36]	; 0x24
 80016e4:	0a1d      	lsrs	r5, r3, #8
 80016e6:	b2e2      	uxtb	r2, r4
 80016e8:	69fb      	ldr	r3, [r7, #28]
 80016ea:	2107      	movs	r1, #7
 80016ec:	0018      	movs	r0, r3
 80016ee:	f7ff fdb1 	bl	8001254 <write_register>
  write_register(lora, REG_FRF_LSB, frf & 0xff);
 80016f2:	6a3b      	ldr	r3, [r7, #32]
 80016f4:	6a7c      	ldr	r4, [r7, #36]	; 0x24
 80016f6:	b2da      	uxtb	r2, r3
 80016f8:	69fb      	ldr	r3, [r7, #28]
 80016fa:	2108      	movs	r1, #8
 80016fc:	0018      	movs	r0, r3
 80016fe:	f7ff fda9 	bl	8001254 <write_register>
}
 8001702:	46c0      	nop			; (mov r8, r8)
 8001704:	46bd      	mov	sp, r7
 8001706:	b00a      	add	sp, #40	; 0x28
 8001708:	bdb0      	pop	{r4, r5, r7, pc}
 800170a:	46c0      	nop			; (mov r8, r8)
 800170c:	01e84800 	.word	0x01e84800

08001710 <lora_packet_rssi>:

uint8_t lora_packet_rssi(lora_sx1276 *lora)
{
 8001710:	b590      	push	{r4, r7, lr}
 8001712:	b085      	sub	sp, #20
 8001714:	af00      	add	r7, sp, #0
 8001716:	6078      	str	r0, [r7, #4]
  assert_param(lora);

  uint8_t rssi = read_register(lora, REG_PKT_RSSI_VALUE);
 8001718:	230f      	movs	r3, #15
 800171a:	18fc      	adds	r4, r7, r3
 800171c:	687b      	ldr	r3, [r7, #4]
 800171e:	211a      	movs	r1, #26
 8001720:	0018      	movs	r0, r3
 8001722:	f7ff fd5b 	bl	80011dc <read_register>
 8001726:	0003      	movs	r3, r0
 8001728:	7023      	strb	r3, [r4, #0]

  return lora->frequency < (868 * MHZ) ? rssi - 164 : rssi - 157;
 800172a:	687b      	ldr	r3, [r7, #4]
 800172c:	691b      	ldr	r3, [r3, #16]
 800172e:	4a09      	ldr	r2, [pc, #36]	; (8001754 <lora_packet_rssi+0x44>)
 8001730:	4293      	cmp	r3, r2
 8001732:	d805      	bhi.n	8001740 <lora_packet_rssi+0x30>
 8001734:	230f      	movs	r3, #15
 8001736:	18fb      	adds	r3, r7, r3
 8001738:	781b      	ldrb	r3, [r3, #0]
 800173a:	335c      	adds	r3, #92	; 0x5c
 800173c:	b2db      	uxtb	r3, r3
 800173e:	e004      	b.n	800174a <lora_packet_rssi+0x3a>
 8001740:	230f      	movs	r3, #15
 8001742:	18fb      	adds	r3, r7, r3
 8001744:	781b      	ldrb	r3, [r3, #0]
 8001746:	3363      	adds	r3, #99	; 0x63
 8001748:	b2db      	uxtb	r3, r3
}
 800174a:	0018      	movs	r0, r3
 800174c:	46bd      	mov	sp, r7
 800174e:	b005      	add	sp, #20
 8001750:	bd90      	pop	{r4, r7, pc}
 8001752:	46c0      	nop			; (mov r8, r8)
 8001754:	33bca0ff 	.word	0x33bca0ff

08001758 <lora_set_spreading_factor>:

  set_low_data_rate_optimization(lora);
}

void lora_set_spreading_factor(lora_sx1276 *lora, uint8_t sf)
{
 8001758:	b5b0      	push	{r4, r5, r7, lr}
 800175a:	b084      	sub	sp, #16
 800175c:	af00      	add	r7, sp, #0
 800175e:	6078      	str	r0, [r7, #4]
 8001760:	000a      	movs	r2, r1
 8001762:	1cfb      	adds	r3, r7, #3
 8001764:	701a      	strb	r2, [r3, #0]
  assert_param(lora && sf <= 12 && sf >=6);

  if (sf < 6) {
 8001766:	1cfb      	adds	r3, r7, #3
 8001768:	781b      	ldrb	r3, [r3, #0]
 800176a:	2b05      	cmp	r3, #5
 800176c:	d803      	bhi.n	8001776 <lora_set_spreading_factor+0x1e>
    sf = 6;
 800176e:	1cfb      	adds	r3, r7, #3
 8001770:	2206      	movs	r2, #6
 8001772:	701a      	strb	r2, [r3, #0]
 8001774:	e006      	b.n	8001784 <lora_set_spreading_factor+0x2c>
  } else if (sf > 12) {
 8001776:	1cfb      	adds	r3, r7, #3
 8001778:	781b      	ldrb	r3, [r3, #0]
 800177a:	2b0c      	cmp	r3, #12
 800177c:	d902      	bls.n	8001784 <lora_set_spreading_factor+0x2c>
    sf = 12;
 800177e:	1cfb      	adds	r3, r7, #3
 8001780:	220c      	movs	r2, #12
 8001782:	701a      	strb	r2, [r3, #0]
  }

  if (sf == 6) {
 8001784:	1cfb      	adds	r3, r7, #3
 8001786:	781b      	ldrb	r3, [r3, #0]
 8001788:	2b06      	cmp	r3, #6
 800178a:	d10c      	bne.n	80017a6 <lora_set_spreading_factor+0x4e>
    write_register(lora, REG_DETECTION_OPTIMIZE, 0xc5);
 800178c:	687b      	ldr	r3, [r7, #4]
 800178e:	22c5      	movs	r2, #197	; 0xc5
 8001790:	2131      	movs	r1, #49	; 0x31
 8001792:	0018      	movs	r0, r3
 8001794:	f7ff fd5e 	bl	8001254 <write_register>
    write_register(lora, REG_DETECTION_THRESHOLD, 0x0c);
 8001798:	687b      	ldr	r3, [r7, #4]
 800179a:	220c      	movs	r2, #12
 800179c:	2137      	movs	r1, #55	; 0x37
 800179e:	0018      	movs	r0, r3
 80017a0:	f7ff fd58 	bl	8001254 <write_register>
 80017a4:	e00b      	b.n	80017be <lora_set_spreading_factor+0x66>
  } else {
    write_register(lora, REG_DETECTION_OPTIMIZE, 0xc3);
 80017a6:	687b      	ldr	r3, [r7, #4]
 80017a8:	22c3      	movs	r2, #195	; 0xc3
 80017aa:	2131      	movs	r1, #49	; 0x31
 80017ac:	0018      	movs	r0, r3
 80017ae:	f7ff fd51 	bl	8001254 <write_register>
    write_register(lora, REG_DETECTION_THRESHOLD, 0x0a);
 80017b2:	687b      	ldr	r3, [r7, #4]
 80017b4:	220a      	movs	r2, #10
 80017b6:	2137      	movs	r1, #55	; 0x37
 80017b8:	0018      	movs	r0, r3
 80017ba:	f7ff fd4b 	bl	8001254 <write_register>
  }
  // Set new spread factor
  uint8_t mc2 = read_register(lora, REG_MODEM_CONFIG_2);
 80017be:	250f      	movs	r5, #15
 80017c0:	197c      	adds	r4, r7, r5
 80017c2:	687b      	ldr	r3, [r7, #4]
 80017c4:	211e      	movs	r1, #30
 80017c6:	0018      	movs	r0, r3
 80017c8:	f7ff fd08 	bl	80011dc <read_register>
 80017cc:	0003      	movs	r3, r0
 80017ce:	7023      	strb	r3, [r4, #0]
  mc2 |= sf << 4;
 80017d0:	1cfb      	adds	r3, r7, #3
 80017d2:	781b      	ldrb	r3, [r3, #0]
 80017d4:	011b      	lsls	r3, r3, #4
 80017d6:	b25a      	sxtb	r2, r3
 80017d8:	197b      	adds	r3, r7, r5
 80017da:	781b      	ldrb	r3, [r3, #0]
 80017dc:	b25b      	sxtb	r3, r3
 80017de:	4313      	orrs	r3, r2
 80017e0:	b25a      	sxtb	r2, r3
 80017e2:	197b      	adds	r3, r7, r5
 80017e4:	701a      	strb	r2, [r3, #0]
  // uint8_t new_config = (current_config & 0x0f) | ((sf << 4) & 0xf0);
  write_register(lora, REG_MODEM_CONFIG_2, mc2);
 80017e6:	197b      	adds	r3, r7, r5
 80017e8:	781a      	ldrb	r2, [r3, #0]
 80017ea:	687b      	ldr	r3, [r7, #4]
 80017ec:	211e      	movs	r1, #30
 80017ee:	0018      	movs	r0, r3
 80017f0:	f7ff fd30 	bl	8001254 <write_register>

  set_low_data_rate_optimization(lora);
 80017f4:	687b      	ldr	r3, [r7, #4]
 80017f6:	0018      	movs	r0, r3
 80017f8:	f7ff fe53 	bl	80014a2 <set_low_data_rate_optimization>
}
 80017fc:	46c0      	nop			; (mov r8, r8)
 80017fe:	46bd      	mov	sp, r7
 8001800:	b004      	add	sp, #16
 8001802:	bdb0      	pop	{r4, r5, r7, pc}

08001804 <lora_set_preamble_length>:
  mc1 |= rate << 1;
  write_register(lora, REG_MODEM_CONFIG_1, mc1);
}

void lora_set_preamble_length(lora_sx1276 *lora, uint16_t len)
{
 8001804:	b580      	push	{r7, lr}
 8001806:	b082      	sub	sp, #8
 8001808:	af00      	add	r7, sp, #0
 800180a:	6078      	str	r0, [r7, #4]
 800180c:	000a      	movs	r2, r1
 800180e:	1cbb      	adds	r3, r7, #2
 8001810:	801a      	strh	r2, [r3, #0]
  assert_param(lora);

  write_register(lora, REG_PREAMBLE_MSB, len >> 8);
 8001812:	1cbb      	adds	r3, r7, #2
 8001814:	881b      	ldrh	r3, [r3, #0]
 8001816:	0a1b      	lsrs	r3, r3, #8
 8001818:	b29b      	uxth	r3, r3
 800181a:	b2da      	uxtb	r2, r3
 800181c:	687b      	ldr	r3, [r7, #4]
 800181e:	2120      	movs	r1, #32
 8001820:	0018      	movs	r0, r3
 8001822:	f7ff fd17 	bl	8001254 <write_register>
  write_register(lora, REG_PREAMBLE_LSB, len & 0xf);
 8001826:	1cbb      	adds	r3, r7, #2
 8001828:	881b      	ldrh	r3, [r3, #0]
 800182a:	b2db      	uxtb	r3, r3
 800182c:	220f      	movs	r2, #15
 800182e:	4013      	ands	r3, r2
 8001830:	b2da      	uxtb	r2, r3
 8001832:	687b      	ldr	r3, [r7, #4]
 8001834:	2121      	movs	r1, #33	; 0x21
 8001836:	0018      	movs	r0, r3
 8001838:	f7ff fd0c 	bl	8001254 <write_register>
}
 800183c:	46c0      	nop			; (mov r8, r8)
 800183e:	46bd      	mov	sp, r7
 8001840:	b002      	add	sp, #8
 8001842:	bd80      	pop	{r7, pc}

08001844 <lora_version>:

uint8_t lora_version(lora_sx1276 *lora)
{
 8001844:	b580      	push	{r7, lr}
 8001846:	b082      	sub	sp, #8
 8001848:	af00      	add	r7, sp, #0
 800184a:	6078      	str	r0, [r7, #4]
  assert_param(lora);

  return read_register(lora, REG_VERSION);
 800184c:	687b      	ldr	r3, [r7, #4]
 800184e:	2142      	movs	r1, #66	; 0x42
 8001850:	0018      	movs	r0, r3
 8001852:	f7ff fcc3 	bl	80011dc <read_register>
 8001856:	0003      	movs	r3, r0
}
 8001858:	0018      	movs	r0, r3
 800185a:	46bd      	mov	sp, r7
 800185c:	b002      	add	sp, #8
 800185e:	bd80      	pop	{r7, pc}

08001860 <lora_is_transmitting>:

uint8_t lora_is_transmitting(lora_sx1276 *lora)
{
 8001860:	b5b0      	push	{r4, r5, r7, lr}
 8001862:	b084      	sub	sp, #16
 8001864:	af00      	add	r7, sp, #0
 8001866:	6078      	str	r0, [r7, #4]
  assert_param(lora);

  uint8_t opmode = read_register(lora, REG_OP_MODE);
 8001868:	250f      	movs	r5, #15
 800186a:	197c      	adds	r4, r7, r5
 800186c:	687b      	ldr	r3, [r7, #4]
 800186e:	2101      	movs	r1, #1
 8001870:	0018      	movs	r0, r3
 8001872:	f7ff fcb3 	bl	80011dc <read_register>
 8001876:	0003      	movs	r3, r0
 8001878:	7023      	strb	r3, [r4, #0]

  return opmode & (1 << OPMODE_TX) ? LORA_BUSY : LORA_OK;
 800187a:	197b      	adds	r3, r7, r5
 800187c:	781b      	ldrb	r3, [r3, #0]
 800187e:	2208      	movs	r2, #8
 8001880:	4013      	ands	r3, r2
 8001882:	d001      	beq.n	8001888 <lora_is_transmitting+0x28>
 8001884:	2305      	movs	r3, #5
 8001886:	e000      	b.n	800188a <lora_is_transmitting+0x2a>
 8001888:	2300      	movs	r3, #0
}
 800188a:	0018      	movs	r0, r3
 800188c:	46bd      	mov	sp, r7
 800188e:	b004      	add	sp, #16
 8001890:	bdb0      	pop	{r4, r5, r7, pc}

08001892 <lora_send_packet_base>:

static uint8_t lora_send_packet_base(lora_sx1276 *lora, uint8_t *data, uint8_t data_len, uint8_t mode)
{
 8001892:	b590      	push	{r4, r7, lr}
 8001894:	b085      	sub	sp, #20
 8001896:	af00      	add	r7, sp, #0
 8001898:	60f8      	str	r0, [r7, #12]
 800189a:	60b9      	str	r1, [r7, #8]
 800189c:	0019      	movs	r1, r3
 800189e:	1dfb      	adds	r3, r7, #7
 80018a0:	701a      	strb	r2, [r3, #0]
 80018a2:	1dbb      	adds	r3, r7, #6
 80018a4:	1c0a      	adds	r2, r1, #0
 80018a6:	701a      	strb	r2, [r3, #0]
  assert_param(lora && data && data_len > 0);

  if (lora_is_transmitting(lora)) {
 80018a8:	68fb      	ldr	r3, [r7, #12]
 80018aa:	0018      	movs	r0, r3
 80018ac:	f7ff ffd8 	bl	8001860 <lora_is_transmitting>
 80018b0:	1e03      	subs	r3, r0, #0
 80018b2:	d001      	beq.n	80018b8 <lora_send_packet_base+0x26>
    return LORA_BUSY;
 80018b4:	2305      	movs	r3, #5
 80018b6:	e034      	b.n	8001922 <lora_send_packet_base+0x90>
  }

  // Wakeup radio because of FIFO is only available in STANDBY mode
  set_mode(lora, OPMODE_STDBY);
 80018b8:	68fb      	ldr	r3, [r7, #12]
 80018ba:	2101      	movs	r1, #1
 80018bc:	0018      	movs	r0, r3
 80018be:	f7ff fd99 	bl	80013f4 <set_mode>

  // Clear TX IRQ flag, to be sure
  write_register(lora, REG_IRQ_FLAGS, IRQ_FLAGS_TX_DONE);
 80018c2:	68fb      	ldr	r3, [r7, #12]
 80018c4:	2208      	movs	r2, #8
 80018c6:	2112      	movs	r1, #18
 80018c8:	0018      	movs	r0, r3
 80018ca:	f7ff fcc3 	bl	8001254 <write_register>

  // Set FIFO pointer to the beginning of the buffer
  write_register(lora, REG_FIFO_ADDR_PTR, lora->tx_base_addr);
 80018ce:	68fb      	ldr	r3, [r7, #12]
 80018d0:	7e1a      	ldrb	r2, [r3, #24]
 80018d2:	68fb      	ldr	r3, [r7, #12]
 80018d4:	210d      	movs	r1, #13
 80018d6:	0018      	movs	r0, r3
 80018d8:	f7ff fcbc 	bl	8001254 <write_register>
  write_register(lora, REG_FIFO_TX_BASE_ADDR, lora->tx_base_addr);
 80018dc:	68fb      	ldr	r3, [r7, #12]
 80018de:	7e1a      	ldrb	r2, [r3, #24]
 80018e0:	68fb      	ldr	r3, [r7, #12]
 80018e2:	210e      	movs	r1, #14
 80018e4:	0018      	movs	r0, r3
 80018e6:	f7ff fcb5 	bl	8001254 <write_register>
  write_register(lora, REG_PAYLOAD_LENGTH, data_len);
 80018ea:	1dfb      	adds	r3, r7, #7
 80018ec:	781a      	ldrb	r2, [r3, #0]
 80018ee:	68fb      	ldr	r3, [r7, #12]
 80018f0:	2122      	movs	r1, #34	; 0x22
 80018f2:	0018      	movs	r0, r3
 80018f4:	f7ff fcae 	bl	8001254 <write_register>

  // Copy packet into radio FIFO
  write_fifo(lora, data, data_len, mode);
 80018f8:	1dbb      	adds	r3, r7, #6
 80018fa:	781c      	ldrb	r4, [r3, #0]
 80018fc:	1dfb      	adds	r3, r7, #7
 80018fe:	781a      	ldrb	r2, [r3, #0]
 8001900:	68b9      	ldr	r1, [r7, #8]
 8001902:	68f8      	ldr	r0, [r7, #12]
 8001904:	0023      	movs	r3, r4
 8001906:	f7ff fce6 	bl	80012d6 <write_fifo>
  if (mode == TRANSFER_MODE_DMA) {
 800190a:	1dbb      	adds	r3, r7, #6
 800190c:	781b      	ldrb	r3, [r3, #0]
 800190e:	2b01      	cmp	r3, #1
 8001910:	d101      	bne.n	8001916 <lora_send_packet_base+0x84>
    return LORA_OK;
 8001912:	2300      	movs	r3, #0
 8001914:	e005      	b.n	8001922 <lora_send_packet_base+0x90>
  }

  // Put radio in TX mode - packet will be transmitted ASAP
  set_mode(lora, OPMODE_TX);
 8001916:	68fb      	ldr	r3, [r7, #12]
 8001918:	2103      	movs	r1, #3
 800191a:	0018      	movs	r0, r3
 800191c:	f7ff fd6a 	bl	80013f4 <set_mode>
  return LORA_OK;
 8001920:	2300      	movs	r3, #0
}
 8001922:	0018      	movs	r0, r3
 8001924:	46bd      	mov	sp, r7
 8001926:	b005      	add	sp, #20
 8001928:	bd90      	pop	{r4, r7, pc}

0800192a <lora_send_packet>:

uint8_t lora_send_packet(lora_sx1276 *lora, uint8_t *data, uint8_t data_len)
{
 800192a:	b580      	push	{r7, lr}
 800192c:	b084      	sub	sp, #16
 800192e:	af00      	add	r7, sp, #0
 8001930:	60f8      	str	r0, [r7, #12]
 8001932:	60b9      	str	r1, [r7, #8]
 8001934:	1dfb      	adds	r3, r7, #7
 8001936:	701a      	strb	r2, [r3, #0]
  return lora_send_packet_base(lora, data, data_len, TRANSFER_MODE_BLOCKING);
 8001938:	1dfb      	adds	r3, r7, #7
 800193a:	781a      	ldrb	r2, [r3, #0]
 800193c:	68b9      	ldr	r1, [r7, #8]
 800193e:	68f8      	ldr	r0, [r7, #12]
 8001940:	2302      	movs	r3, #2
 8001942:	f7ff ffa6 	bl	8001892 <lora_send_packet_base>
 8001946:	0003      	movs	r3, r0
}
 8001948:	0018      	movs	r0, r3
 800194a:	46bd      	mov	sp, r7
 800194c:	b004      	add	sp, #16
 800194e:	bd80      	pop	{r7, pc}

08001950 <lora_is_packet_available>:
    write_register(lora, REG_MODEM_CONFIG_2, mc2);
  }
}

uint8_t lora_is_packet_available(lora_sx1276 *lora)
{
 8001950:	b5b0      	push	{r4, r5, r7, lr}
 8001952:	b084      	sub	sp, #16
 8001954:	af00      	add	r7, sp, #0
 8001956:	6078      	str	r0, [r7, #4]
  assert_param(lora);

  uint8_t irqs = read_register(lora, REG_IRQ_FLAGS);
 8001958:	250f      	movs	r5, #15
 800195a:	197c      	adds	r4, r7, r5
 800195c:	687b      	ldr	r3, [r7, #4]
 800195e:	2112      	movs	r1, #18
 8001960:	0018      	movs	r0, r3
 8001962:	f7ff fc3b 	bl	80011dc <read_register>
 8001966:	0003      	movs	r3, r0
 8001968:	7023      	strb	r3, [r4, #0]

  // In case of Single receive mode RX_TIMEOUT will be issued
  return  irqs & (IRQ_FLAGS_RX_DONE | IRQ_FLAGS_RX_TIMEOUT);
 800196a:	197b      	adds	r3, r7, r5
 800196c:	781b      	ldrb	r3, [r3, #0]
 800196e:	223f      	movs	r2, #63	; 0x3f
 8001970:	4393      	bics	r3, r2
 8001972:	b2db      	uxtb	r3, r3
}
 8001974:	0018      	movs	r0, r3
 8001976:	46bd      	mov	sp, r7
 8001978:	b004      	add	sp, #16
 800197a:	bdb0      	pop	{r4, r5, r7, pc}

0800197c <lora_receive_packet_base>:

static uint8_t lora_receive_packet_base(lora_sx1276 *lora, uint8_t *buffer, uint8_t buffer_len, uint8_t *error, uint8_t mode)
{
 800197c:	b5b0      	push	{r4, r5, r7, lr}
 800197e:	b086      	sub	sp, #24
 8001980:	af00      	add	r7, sp, #0
 8001982:	60f8      	str	r0, [r7, #12]
 8001984:	60b9      	str	r1, [r7, #8]
 8001986:	603b      	str	r3, [r7, #0]
 8001988:	1dfb      	adds	r3, r7, #7
 800198a:	701a      	strb	r2, [r3, #0]
  assert_param(lora && buffer && buffer_len > 0);

  uint8_t res = LORA_EMPTY;
 800198c:	2317      	movs	r3, #23
 800198e:	18fb      	adds	r3, r7, r3
 8001990:	2206      	movs	r2, #6
 8001992:	701a      	strb	r2, [r3, #0]
  uint8_t len = 0;
 8001994:	2316      	movs	r3, #22
 8001996:	18fb      	adds	r3, r7, r3
 8001998:	2200      	movs	r2, #0
 800199a:	701a      	strb	r2, [r3, #0]

  // Read/Reset IRQs
  uint8_t state = read_register(lora, REG_IRQ_FLAGS);
 800199c:	2515      	movs	r5, #21
 800199e:	197c      	adds	r4, r7, r5
 80019a0:	68fb      	ldr	r3, [r7, #12]
 80019a2:	2112      	movs	r1, #18
 80019a4:	0018      	movs	r0, r3
 80019a6:	f7ff fc19 	bl	80011dc <read_register>
 80019aa:	0003      	movs	r3, r0
 80019ac:	7023      	strb	r3, [r4, #0]
  write_register(lora, REG_IRQ_FLAGS, IRQ_FLAGS_RX_ALL);
 80019ae:	68fb      	ldr	r3, [r7, #12]
 80019b0:	22f0      	movs	r2, #240	; 0xf0
 80019b2:	2112      	movs	r1, #18
 80019b4:	0018      	movs	r0, r3
 80019b6:	f7ff fc4d 	bl	8001254 <write_register>

  if (state & IRQ_FLAGS_RX_TIMEOUT) {
 80019ba:	197b      	adds	r3, r7, r5
 80019bc:	781b      	ldrb	r3, [r3, #0]
 80019be:	b25b      	sxtb	r3, r3
 80019c0:	2b00      	cmp	r3, #0
 80019c2:	da04      	bge.n	80019ce <lora_receive_packet_base+0x52>
    DEBUGF("timeout");
    res = LORA_TIMEOUT;
 80019c4:	2317      	movs	r3, #23
 80019c6:	18fb      	adds	r3, r7, r3
 80019c8:	2202      	movs	r2, #2
 80019ca:	701a      	strb	r2, [r3, #0]
    goto done;
 80019cc:	e06b      	b.n	8001aa6 <lora_receive_packet_base+0x12a>
  }

  if (state & IRQ_FLAGS_RX_DONE) {
 80019ce:	2315      	movs	r3, #21
 80019d0:	18fb      	adds	r3, r7, r3
 80019d2:	781b      	ldrb	r3, [r3, #0]
 80019d4:	2240      	movs	r2, #64	; 0x40
 80019d6:	4013      	ands	r3, r2
 80019d8:	d064      	beq.n	8001aa4 <lora_receive_packet_base+0x128>
    if (!(state & IRQ_FLAGS_VALID_HEADER)) {
 80019da:	2315      	movs	r3, #21
 80019dc:	18fb      	adds	r3, r7, r3
 80019de:	781b      	ldrb	r3, [r3, #0]
 80019e0:	2210      	movs	r2, #16
 80019e2:	4013      	ands	r3, r2
 80019e4:	d104      	bne.n	80019f0 <lora_receive_packet_base+0x74>
      DEBUGF("invalid header");
      res = LORA_INVALID_HEADER;
 80019e6:	2317      	movs	r3, #23
 80019e8:	18fb      	adds	r3, r7, r3
 80019ea:	2203      	movs	r2, #3
 80019ec:	701a      	strb	r2, [r3, #0]
      goto done;
 80019ee:	e05a      	b.n	8001aa6 <lora_receive_packet_base+0x12a>
    }
    // Packet has been received
    if (state & IRQ_FLAGS_PAYLOAD_CRC_ERROR) {
 80019f0:	2315      	movs	r3, #21
 80019f2:	18fb      	adds	r3, r7, r3
 80019f4:	781b      	ldrb	r3, [r3, #0]
 80019f6:	2220      	movs	r2, #32
 80019f8:	4013      	ands	r3, r2
 80019fa:	d004      	beq.n	8001a06 <lora_receive_packet_base+0x8a>
      DEBUGF("CRC error");
      res = LORA_CRC_ERROR;
 80019fc:	2317      	movs	r3, #23
 80019fe:	18fb      	adds	r3, r7, r3
 8001a00:	2201      	movs	r2, #1
 8001a02:	701a      	strb	r2, [r3, #0]
      goto done;
 8001a04:	e04f      	b.n	8001aa6 <lora_receive_packet_base+0x12a>
    }
    // Query for current header mode - implicit / explicit
    uint8_t implicit = read_register(lora, REG_MODEM_CONFIG_1) & MC1_IMPLICIT_HEADER_MODE;
 8001a06:	68fb      	ldr	r3, [r7, #12]
 8001a08:	211d      	movs	r1, #29
 8001a0a:	0018      	movs	r0, r3
 8001a0c:	f7ff fbe6 	bl	80011dc <read_register>
 8001a10:	0003      	movs	r3, r0
 8001a12:	0019      	movs	r1, r3
 8001a14:	2014      	movs	r0, #20
 8001a16:	183b      	adds	r3, r7, r0
 8001a18:	2201      	movs	r2, #1
 8001a1a:	400a      	ands	r2, r1
 8001a1c:	701a      	strb	r2, [r3, #0]
    if (implicit) {
 8001a1e:	183b      	adds	r3, r7, r0
 8001a20:	781b      	ldrb	r3, [r3, #0]
 8001a22:	2b00      	cmp	r3, #0
 8001a24:	d009      	beq.n	8001a3a <lora_receive_packet_base+0xbe>
      len = read_register(lora, REG_PAYLOAD_LENGTH);
 8001a26:	2316      	movs	r3, #22
 8001a28:	18fc      	adds	r4, r7, r3
 8001a2a:	68fb      	ldr	r3, [r7, #12]
 8001a2c:	2122      	movs	r1, #34	; 0x22
 8001a2e:	0018      	movs	r0, r3
 8001a30:	f7ff fbd4 	bl	80011dc <read_register>
 8001a34:	0003      	movs	r3, r0
 8001a36:	7023      	strb	r3, [r4, #0]
 8001a38:	e008      	b.n	8001a4c <lora_receive_packet_base+0xd0>
    } else {
      len = read_register(lora, REG_RX_NB_BYTES);
 8001a3a:	2316      	movs	r3, #22
 8001a3c:	18fc      	adds	r4, r7, r3
 8001a3e:	68fb      	ldr	r3, [r7, #12]
 8001a40:	2113      	movs	r1, #19
 8001a42:	0018      	movs	r0, r3
 8001a44:	f7ff fbca 	bl	80011dc <read_register>
 8001a48:	0003      	movs	r3, r0
 8001a4a:	7023      	strb	r3, [r4, #0]
    }
    if (len >= buffer_len) {
 8001a4c:	2316      	movs	r3, #22
 8001a4e:	18fa      	adds	r2, r7, r3
 8001a50:	1dfb      	adds	r3, r7, #7
 8001a52:	7812      	ldrb	r2, [r2, #0]
 8001a54:	781b      	ldrb	r3, [r3, #0]
 8001a56:	429a      	cmp	r2, r3
 8001a58:	d304      	bcc.n	8001a64 <lora_receive_packet_base+0xe8>
      len = buffer_len;
 8001a5a:	2316      	movs	r3, #22
 8001a5c:	18fb      	adds	r3, r7, r3
 8001a5e:	1dfa      	adds	r2, r7, #7
 8001a60:	7812      	ldrb	r2, [r2, #0]
 8001a62:	701a      	strb	r2, [r3, #0]
    }
    // Set FIFO to beginning of the packet
    uint8_t offset = read_register(lora, REG_FIFO_RX_CURRENT_ADDR);
 8001a64:	2513      	movs	r5, #19
 8001a66:	197c      	adds	r4, r7, r5
 8001a68:	68fb      	ldr	r3, [r7, #12]
 8001a6a:	2110      	movs	r1, #16
 8001a6c:	0018      	movs	r0, r3
 8001a6e:	f7ff fbb5 	bl	80011dc <read_register>
 8001a72:	0003      	movs	r3, r0
 8001a74:	7023      	strb	r3, [r4, #0]
    write_register(lora, REG_FIFO_ADDR_PTR, offset);
 8001a76:	197b      	adds	r3, r7, r5
 8001a78:	781a      	ldrb	r2, [r3, #0]
 8001a7a:	68fb      	ldr	r3, [r7, #12]
 8001a7c:	210d      	movs	r1, #13
 8001a7e:	0018      	movs	r0, r3
 8001a80:	f7ff fbe8 	bl	8001254 <write_register>
    // Read payload
    read_fifo(lora, buffer, len, mode);
 8001a84:	2328      	movs	r3, #40	; 0x28
 8001a86:	18fb      	adds	r3, r7, r3
 8001a88:	781c      	ldrb	r4, [r3, #0]
 8001a8a:	2316      	movs	r3, #22
 8001a8c:	18fb      	adds	r3, r7, r3
 8001a8e:	781a      	ldrb	r2, [r3, #0]
 8001a90:	68b9      	ldr	r1, [r7, #8]
 8001a92:	68f8      	ldr	r0, [r7, #12]
 8001a94:	0023      	movs	r3, r4
 8001a96:	f7ff fc64 	bl	8001362 <read_fifo>
    res = LORA_OK;
 8001a9a:	2317      	movs	r3, #23
 8001a9c:	18fb      	adds	r3, r7, r3
 8001a9e:	2200      	movs	r2, #0
 8001aa0:	701a      	strb	r2, [r3, #0]
 8001aa2:	e000      	b.n	8001aa6 <lora_receive_packet_base+0x12a>
  }

done:
 8001aa4:	46c0      	nop			; (mov r8, r8)
  if (error) {
 8001aa6:	683b      	ldr	r3, [r7, #0]
 8001aa8:	2b00      	cmp	r3, #0
 8001aaa:	d004      	beq.n	8001ab6 <lora_receive_packet_base+0x13a>
    *error = res;
 8001aac:	683b      	ldr	r3, [r7, #0]
 8001aae:	2217      	movs	r2, #23
 8001ab0:	18ba      	adds	r2, r7, r2
 8001ab2:	7812      	ldrb	r2, [r2, #0]
 8001ab4:	701a      	strb	r2, [r3, #0]
  }

  return len;
 8001ab6:	2316      	movs	r3, #22
 8001ab8:	18fb      	adds	r3, r7, r3
 8001aba:	781b      	ldrb	r3, [r3, #0]
}
 8001abc:	0018      	movs	r0, r3
 8001abe:	46bd      	mov	sp, r7
 8001ac0:	b006      	add	sp, #24
 8001ac2:	bdb0      	pop	{r4, r5, r7, pc}

08001ac4 <lora_receive_packet>:

uint8_t lora_receive_packet(lora_sx1276 *lora, uint8_t *buffer, uint8_t buffer_len, uint8_t *error)
{
 8001ac4:	b590      	push	{r4, r7, lr}
 8001ac6:	b087      	sub	sp, #28
 8001ac8:	af02      	add	r7, sp, #8
 8001aca:	60f8      	str	r0, [r7, #12]
 8001acc:	60b9      	str	r1, [r7, #8]
 8001ace:	603b      	str	r3, [r7, #0]
 8001ad0:	1dfb      	adds	r3, r7, #7
 8001ad2:	701a      	strb	r2, [r3, #0]
  return lora_receive_packet_base(lora, buffer, buffer_len, error, TRANSFER_MODE_BLOCKING);
 8001ad4:	683c      	ldr	r4, [r7, #0]
 8001ad6:	1dfb      	adds	r3, r7, #7
 8001ad8:	781a      	ldrb	r2, [r3, #0]
 8001ada:	68b9      	ldr	r1, [r7, #8]
 8001adc:	68f8      	ldr	r0, [r7, #12]
 8001ade:	2302      	movs	r3, #2
 8001ae0:	9300      	str	r3, [sp, #0]
 8001ae2:	0023      	movs	r3, r4
 8001ae4:	f7ff ff4a 	bl	800197c <lora_receive_packet_base>
 8001ae8:	0003      	movs	r3, r0
}
 8001aea:	0018      	movs	r0, r3
 8001aec:	46bd      	mov	sp, r7
 8001aee:	b005      	add	sp, #20
 8001af0:	bd90      	pop	{r4, r7, pc}

08001af2 <lora_receive_packet_blocking>:
  HAL_GPIO_WritePin(lora->nss_port, lora->nss_pin, GPIO_PIN_SET);
}

uint8_t lora_receive_packet_blocking(lora_sx1276 *lora, uint8_t *buffer, uint8_t buffer_len,
                   uint32_t timeout, uint8_t *error)
{
 8001af2:	b590      	push	{r4, r7, lr}
 8001af4:	b087      	sub	sp, #28
 8001af6:	af00      	add	r7, sp, #0
 8001af8:	60f8      	str	r0, [r7, #12]
 8001afa:	60b9      	str	r1, [r7, #8]
 8001afc:	603b      	str	r3, [r7, #0]
 8001afe:	1dfb      	adds	r3, r7, #7
 8001b00:	701a      	strb	r2, [r3, #0]
  assert_param(lora && buffer && buffer_len > 0);

  uint32_t elapsed = 0;
 8001b02:	2300      	movs	r3, #0
 8001b04:	617b      	str	r3, [r7, #20]

  // Wait up to timeout for packet
  while (elapsed < timeout) {
 8001b06:	e00b      	b.n	8001b20 <lora_receive_packet_blocking+0x2e>
    if (lora_is_packet_available(lora)) {
 8001b08:	68fb      	ldr	r3, [r7, #12]
 8001b0a:	0018      	movs	r0, r3
 8001b0c:	f7ff ff20 	bl	8001950 <lora_is_packet_available>
 8001b10:	1e03      	subs	r3, r0, #0
 8001b12:	d10a      	bne.n	8001b2a <lora_receive_packet_blocking+0x38>
      break;
    }
    HAL_Delay(1);
 8001b14:	2001      	movs	r0, #1
 8001b16:	f001 fe37 	bl	8003788 <HAL_Delay>
    elapsed++;
 8001b1a:	697b      	ldr	r3, [r7, #20]
 8001b1c:	3301      	adds	r3, #1
 8001b1e:	617b      	str	r3, [r7, #20]
  while (elapsed < timeout) {
 8001b20:	697a      	ldr	r2, [r7, #20]
 8001b22:	683b      	ldr	r3, [r7, #0]
 8001b24:	429a      	cmp	r2, r3
 8001b26:	d3ef      	bcc.n	8001b08 <lora_receive_packet_blocking+0x16>
 8001b28:	e000      	b.n	8001b2c <lora_receive_packet_blocking+0x3a>
      break;
 8001b2a:	46c0      	nop			; (mov r8, r8)
  }

  return lora_receive_packet(lora, buffer, buffer_len, error);
 8001b2c:	6abc      	ldr	r4, [r7, #40]	; 0x28
 8001b2e:	1dfb      	adds	r3, r7, #7
 8001b30:	781a      	ldrb	r2, [r3, #0]
 8001b32:	68b9      	ldr	r1, [r7, #8]
 8001b34:	68f8      	ldr	r0, [r7, #12]
 8001b36:	0023      	movs	r3, r4
 8001b38:	f7ff ffc4 	bl	8001ac4 <lora_receive_packet>
 8001b3c:	0003      	movs	r3, r0
}
 8001b3e:	0018      	movs	r0, r3
 8001b40:	46bd      	mov	sp, r7
 8001b42:	b007      	add	sp, #28
 8001b44:	bd90      	pop	{r4, r7, pc}

08001b46 <lora_init>:
  write_register(lora, REG_DIO_MAPPING_1, 0x40);
}

uint8_t lora_init(lora_sx1276 *lora, SPI_HandleTypeDef *spi, GPIO_TypeDef *nss_port,
    uint16_t nss_pin, uint64_t freq)
{
 8001b46:	b5b0      	push	{r4, r5, r7, lr}
 8001b48:	b086      	sub	sp, #24
 8001b4a:	af00      	add	r7, sp, #0
 8001b4c:	60f8      	str	r0, [r7, #12]
 8001b4e:	60b9      	str	r1, [r7, #8]
 8001b50:	607a      	str	r2, [r7, #4]
 8001b52:	001a      	movs	r2, r3
 8001b54:	1cbb      	adds	r3, r7, #2
 8001b56:	801a      	strh	r2, [r3, #0]
  assert_param(lora && spi);

  // Init params with default values
  lora->spi = spi;
 8001b58:	68fb      	ldr	r3, [r7, #12]
 8001b5a:	68ba      	ldr	r2, [r7, #8]
 8001b5c:	601a      	str	r2, [r3, #0]
  lora->nss_port = nss_port;
 8001b5e:	68fb      	ldr	r3, [r7, #12]
 8001b60:	687a      	ldr	r2, [r7, #4]
 8001b62:	605a      	str	r2, [r3, #4]
  lora->nss_pin = nss_pin;
 8001b64:	68fb      	ldr	r3, [r7, #12]
 8001b66:	1cba      	adds	r2, r7, #2
 8001b68:	8812      	ldrh	r2, [r2, #0]
 8001b6a:	811a      	strh	r2, [r3, #8]
  lora->frequency = freq;
 8001b6c:	6aba      	ldr	r2, [r7, #40]	; 0x28
 8001b6e:	68fb      	ldr	r3, [r7, #12]
 8001b70:	611a      	str	r2, [r3, #16]
  lora->pa_mode = LORA_PA_OUTPUT_PA_BOOST;
 8001b72:	68fb      	ldr	r3, [r7, #12]
 8001b74:	2201      	movs	r2, #1
 8001b76:	615a      	str	r2, [r3, #20]
  lora->tx_base_addr = LORA_DEFAULT_TX_ADDR;
 8001b78:	68fb      	ldr	r3, [r7, #12]
 8001b7a:	2200      	movs	r2, #0
 8001b7c:	761a      	strb	r2, [r3, #24]
  lora->rx_base_addr = LORA_DEFAULT_RX_ADDR;
 8001b7e:	68fb      	ldr	r3, [r7, #12]
 8001b80:	2200      	movs	r2, #0
 8001b82:	765a      	strb	r2, [r3, #25]
  lora->spi_timeout = LORA_DEFAULT_SPI_TIMEOUT;
 8001b84:	68fb      	ldr	r3, [r7, #12]
 8001b86:	22fa      	movs	r2, #250	; 0xfa
 8001b88:	0092      	lsls	r2, r2, #2
 8001b8a:	60da      	str	r2, [r3, #12]

  // Check version
  uint8_t ver = lora_version(lora);
 8001b8c:	2517      	movs	r5, #23
 8001b8e:	197c      	adds	r4, r7, r5
 8001b90:	68fb      	ldr	r3, [r7, #12]
 8001b92:	0018      	movs	r0, r3
 8001b94:	f7ff fe56 	bl	8001844 <lora_version>
 8001b98:	0003      	movs	r3, r0
 8001b9a:	7023      	strb	r3, [r4, #0]
  if (ver != LORA_COMPATIBLE_VERSION) {
 8001b9c:	197b      	adds	r3, r7, r5
 8001b9e:	781b      	ldrb	r3, [r3, #0]
 8001ba0:	2b12      	cmp	r3, #18
 8001ba2:	d001      	beq.n	8001ba8 <lora_init+0x62>
    DEBUGF("Got wrong radio version 0x%x, expected 0x12", ver);
    return LORA_ERROR;
 8001ba4:	2304      	movs	r3, #4
 8001ba6:	e040      	b.n	8001c2a <lora_init+0xe4>
  }

  // Modem parameters (freq, mode, etc) must be done in SLEEP mode.
  lora_mode_sleep(lora);
 8001ba8:	68fb      	ldr	r3, [r7, #12]
 8001baa:	0018      	movs	r0, r3
 8001bac:	f7ff fcb4 	bl	8001518 <lora_mode_sleep>
  // Enable LoRa mode (since it can be switched on only in sleep)
  lora_mode_sleep(lora);
 8001bb0:	68fb      	ldr	r3, [r7, #12]
 8001bb2:	0018      	movs	r0, r3
 8001bb4:	f7ff fcb0 	bl	8001518 <lora_mode_sleep>

  // Set frequency
  lora_set_frequency(lora, freq);
 8001bb8:	6abb      	ldr	r3, [r7, #40]	; 0x28
 8001bba:	6afc      	ldr	r4, [r7, #44]	; 0x2c
 8001bbc:	68f9      	ldr	r1, [r7, #12]
 8001bbe:	001a      	movs	r2, r3
 8001bc0:	0023      	movs	r3, r4
 8001bc2:	0008      	movs	r0, r1
 8001bc4:	f7ff fd5c 	bl	8001680 <lora_set_frequency>
  lora_set_spreading_factor(lora, LORA_DEFAULT_SF);
 8001bc8:	68fb      	ldr	r3, [r7, #12]
 8001bca:	2107      	movs	r1, #7
 8001bcc:	0018      	movs	r0, r3
 8001bce:	f7ff fdc3 	bl	8001758 <lora_set_spreading_factor>
  lora_set_preamble_length(lora, LORA_DEFAULT_PREAMBLE_LEN);
 8001bd2:	68fb      	ldr	r3, [r7, #12]
 8001bd4:	210a      	movs	r1, #10
 8001bd6:	0018      	movs	r0, r3
 8001bd8:	f7ff fe14 	bl	8001804 <lora_set_preamble_length>
  // By default - explicit header mode
  lora_set_explicit_header_mode(lora);
 8001bdc:	68fb      	ldr	r3, [r7, #12]
 8001bde:	0018      	movs	r0, r3
 8001be0:	f7ff fcce 	bl	8001580 <lora_set_explicit_header_mode>
  // Set LNA boost
  uint8_t current_lna = read_register(lora, REG_LNA);
 8001be4:	2516      	movs	r5, #22
 8001be6:	197c      	adds	r4, r7, r5
 8001be8:	68fb      	ldr	r3, [r7, #12]
 8001bea:	210c      	movs	r1, #12
 8001bec:	0018      	movs	r0, r3
 8001bee:	f7ff faf5 	bl	80011dc <read_register>
 8001bf2:	0003      	movs	r3, r0
 8001bf4:	7023      	strb	r3, [r4, #0]
  write_register(lora, REG_LNA,  current_lna | 0x03);
 8001bf6:	197b      	adds	r3, r7, r5
 8001bf8:	781b      	ldrb	r3, [r3, #0]
 8001bfa:	2203      	movs	r2, #3
 8001bfc:	4313      	orrs	r3, r2
 8001bfe:	b2da      	uxtb	r2, r3
 8001c00:	68fb      	ldr	r3, [r7, #12]
 8001c02:	210c      	movs	r1, #12
 8001c04:	0018      	movs	r0, r3
 8001c06:	f7ff fb25 	bl	8001254 <write_register>
  // Set auto AGC
  write_register(lora, REG_MODEM_CONFIG_3, 0x04);
 8001c0a:	68fb      	ldr	r3, [r7, #12]
 8001c0c:	2204      	movs	r2, #4
 8001c0e:	2126      	movs	r1, #38	; 0x26
 8001c10:	0018      	movs	r0, r3
 8001c12:	f7ff fb1f 	bl	8001254 <write_register>
  // Set default output power
  lora_set_tx_power(lora, LORA_DEFAULT_TX_POWER);
 8001c16:	68fb      	ldr	r3, [r7, #12]
 8001c18:	2111      	movs	r1, #17
 8001c1a:	0018      	movs	r0, r3
 8001c1c:	f7ff fcd0 	bl	80015c0 <lora_set_tx_power>
  // Set default mode
  lora_mode_standby(lora);
 8001c20:	68fb      	ldr	r3, [r7, #12]
 8001c22:	0018      	movs	r0, r3
 8001c24:	f7ff fc9f 	bl	8001566 <lora_mode_standby>

  return LORA_OK;
 8001c28:	2300      	movs	r3, #0
}
 8001c2a:	0018      	movs	r0, r3
 8001c2c:	46bd      	mov	sp, r7
 8001c2e:	b006      	add	sp, #24
 8001c30:	bdb0      	pop	{r4, r5, r7, pc}
	...

08001c34 <main>:

/**
 * @brief  The application entry point.
 * @retval int
 */
int main(void) {
 8001c34:	b5f0      	push	{r4, r5, r6, r7, lr}
 8001c36:	b09b      	sub	sp, #108	; 0x6c
 8001c38:	af04      	add	r7, sp, #16
    /* USER CODE BEGIN 1 */
    uint8_t PROGRAM = 0;
 8001c3a:	2357      	movs	r3, #87	; 0x57
 8001c3c:	18fb      	adds	r3, r7, r3
 8001c3e:	2200      	movs	r2, #0
 8001c40:	701a      	strb	r2, [r3, #0]
    /* USER CODE END 1 */

    /* MCU Configuration--------------------------------------------------------*/

    /* Reset of all peripherals, Initializes the Flash interface and the Systick. */
    HAL_Init();
 8001c42:	f001 fd3d 	bl	80036c0 <HAL_Init>

    /* USER CODE BEGIN Init */
    /* USER CODE END Init */

    /* Configure the system clock */
    SystemClock_Config();
 8001c46:	f000 fe11 	bl	800286c <SystemClock_Config>
    /* USER CODE BEGIN SysInit */

    /* USER CODE END SysInit */

    /* Initialize all configured peripherals */
    MX_GPIO_Init();
 8001c4a:	f000 febd 	bl	80029c8 <MX_GPIO_Init>
    MX_SPI1_Init();
 8001c4e:	f000 fe4d 	bl	80028ec <MX_SPI1_Init>
    MX_USART2_UART_Init();
 8001c52:	f000 fe89 	bl	8002968 <MX_USART2_UART_Init>
    /* USER CODE BEGIN 2 */
    RetargetInit( & huart2);
 8001c56:	4bdb      	ldr	r3, [pc, #876]	; (8001fc4 <main+0x390>)
 8001c58:	0018      	movs	r0, r3
 8001c5a:	f001 fb29 	bl	80032b0 <RetargetInit>
    // Init LCD
    init_LCD();
 8001c5e:	f7fe fda5 	bl	80007ac <init_LCD>

    // Initialise LORA
    lora_sx1276 lora;
    uint8_t res = lora_init( & lora, & hspi1, LORA_NSS_GPIO_Port, LORA_NSS_Pin, LORA_BASE_FREQUENCY_EU);
 8001c62:	234f      	movs	r3, #79	; 0x4f
 8001c64:	18fd      	adds	r5, r7, r3
 8001c66:	2380      	movs	r3, #128	; 0x80
 8001c68:	00da      	lsls	r2, r3, #3
 8001c6a:	4ed7      	ldr	r6, [pc, #860]	; (8001fc8 <main+0x394>)
 8001c6c:	49d7      	ldr	r1, [pc, #860]	; (8001fcc <main+0x398>)
 8001c6e:	2028      	movs	r0, #40	; 0x28
 8001c70:	1838      	adds	r0, r7, r0
 8001c72:	4bd7      	ldr	r3, [pc, #860]	; (8001fd0 <main+0x39c>)
 8001c74:	2400      	movs	r4, #0
 8001c76:	9300      	str	r3, [sp, #0]
 8001c78:	9401      	str	r4, [sp, #4]
 8001c7a:	0013      	movs	r3, r2
 8001c7c:	0032      	movs	r2, r6
 8001c7e:	f7ff ff62 	bl	8001b46 <lora_init>
 8001c82:	0003      	movs	r3, r0
 8001c84:	702b      	strb	r3, [r5, #0]
    uint8_t ver = lora_version( & lora);
 8001c86:	224e      	movs	r2, #78	; 0x4e
 8001c88:	18bc      	adds	r4, r7, r2
 8001c8a:	2028      	movs	r0, #40	; 0x28
 8001c8c:	183b      	adds	r3, r7, r0
 8001c8e:	0018      	movs	r0, r3
 8001c90:	f7ff fdd8 	bl	8001844 <lora_version>
 8001c94:	0003      	movs	r3, r0
 8001c96:	7023      	strb	r3, [r4, #0]
    _delay_ms(100);
 8001c98:	2064      	movs	r0, #100	; 0x64
 8001c9a:	f001 f9a3 	bl	8002fe4 <_delay_ms>
    printf("Starting Lora up...");
 8001c9e:	4bcd      	ldr	r3, [pc, #820]	; (8001fd4 <main+0x3a0>)
 8001ca0:	0018      	movs	r0, r3
 8001ca2:	f004 fe95 	bl	80069d0 <iprintf>
    if (res != LORA_OK) {
 8001ca6:	234f      	movs	r3, #79	; 0x4f
 8001ca8:	18fb      	adds	r3, r7, r3
 8001caa:	781b      	ldrb	r3, [r3, #0]
 8001cac:	2b00      	cmp	r3, #0
 8001cae:	d029      	beq.n	8001d04 <main+0xd0>
        // Initialization failed
        printf("failed\n");
 8001cb0:	4bc9      	ldr	r3, [pc, #804]	; (8001fd8 <main+0x3a4>)
 8001cb2:	0018      	movs	r0, r3
 8001cb4:	f004 ff1a 	bl	8006aec <puts>
        lcd_putstring("LORA failed!");
 8001cb8:	4bc8      	ldr	r3, [pc, #800]	; (8001fdc <main+0x3a8>)
 8001cba:	0018      	movs	r0, r3
 8001cbc:	f7fe fe8c 	bl	80009d8 <lcd_putstring>
        lcd_command(LINE_TWO);
 8001cc0:	20c0      	movs	r0, #192	; 0xc0
 8001cc2:	f7fe fca3 	bl	800060c <lcd_command>
        lcd_putstring("Please reset");
 8001cc6:	4bc6      	ldr	r3, [pc, #792]	; (8001fe0 <main+0x3ac>)
 8001cc8:	0018      	movs	r0, r3
 8001cca:	f7fe fe85 	bl	80009d8 <lcd_putstring>

        while (1) {
            if (HAL_GPIO_ReadPin(SW0_GPIO_Port, SW0_Pin) == 0) {
 8001cce:	2390      	movs	r3, #144	; 0x90
 8001cd0:	05db      	lsls	r3, r3, #23
 8001cd2:	2101      	movs	r1, #1
 8001cd4:	0018      	movs	r0, r3
 8001cd6:	f002 f82f 	bl	8003d38 <HAL_GPIO_ReadPin>
 8001cda:	1e03      	subs	r3, r0, #0
 8001cdc:	d10c      	bne.n	8001cf8 <main+0xc4>
                _delay_ms(DEBOUNCE);
 8001cde:	2396      	movs	r3, #150	; 0x96
 8001ce0:	005b      	lsls	r3, r3, #1
 8001ce2:	0018      	movs	r0, r3
 8001ce4:	f001 f97e 	bl	8002fe4 <_delay_ms>
                lcd_command(CLEAR);
 8001ce8:	2001      	movs	r0, #1
 8001cea:	f7fe fc8f 	bl	800060c <lcd_command>
                lcd_putstring("Bypass LORA");
 8001cee:	4bbd      	ldr	r3, [pc, #756]	; (8001fe4 <main+0x3b0>)
 8001cf0:	0018      	movs	r0, r3
 8001cf2:	f7fe fe71 	bl	80009d8 <lcd_putstring>
                break;
 8001cf6:	e011      	b.n	8001d1c <main+0xe8>
            }
            _delay_ms(1000);
 8001cf8:	23fa      	movs	r3, #250	; 0xfa
 8001cfa:	009b      	lsls	r3, r3, #2
 8001cfc:	0018      	movs	r0, r3
 8001cfe:	f001 f971 	bl	8002fe4 <_delay_ms>
            if (HAL_GPIO_ReadPin(SW0_GPIO_Port, SW0_Pin) == 0) {
 8001d02:	e7e4      	b.n	8001cce <main+0x9a>
        }

    } else {
        printf("\nLora version: %d\n", ver);
 8001d04:	234e      	movs	r3, #78	; 0x4e
 8001d06:	18fb      	adds	r3, r7, r3
 8001d08:	781a      	ldrb	r2, [r3, #0]
 8001d0a:	4bb7      	ldr	r3, [pc, #732]	; (8001fe8 <main+0x3b4>)
 8001d0c:	0011      	movs	r1, r2
 8001d0e:	0018      	movs	r0, r3
 8001d10:	f004 fe5e 	bl	80069d0 <iprintf>
        lcd_putstring("LORA up!");
 8001d14:	4bb5      	ldr	r3, [pc, #724]	; (8001fec <main+0x3b8>)
 8001d16:	0018      	movs	r0, r3
 8001d18:	f7fe fe5e 	bl	80009d8 <lcd_putstring>
    }

    // Initialize MRF module
    mrf_reset();
 8001d1c:	f001 f8a6 	bl	8002e6c <mrf_reset>
    mrf_deselect();
 8001d20:	f001 f93a 	bl	8002f98 <mrf_deselect>
    printf("MRF starting up...");
 8001d24:	4bb2      	ldr	r3, [pc, #712]	; (8001ff0 <main+0x3bc>)
 8001d26:	0018      	movs	r0, r3
 8001d28:	f004 fe52 	bl	80069d0 <iprintf>
    uint8_t g = mrf_read_short(MRF_RXMCR);
 8001d2c:	254d      	movs	r5, #77	; 0x4d
 8001d2e:	197c      	adds	r4, r7, r5
 8001d30:	2000      	movs	r0, #0
 8001d32:	f7fe feb4 	bl	8000a9e <mrf_read_short>
 8001d36:	0003      	movs	r3, r0
 8001d38:	7023      	strb	r3, [r4, #0]
    if (g != 0x00) {
 8001d3a:	197b      	adds	r3, r7, r5
 8001d3c:	781b      	ldrb	r3, [r3, #0]
 8001d3e:	2b00      	cmp	r3, #0
 8001d40:	d038      	beq.n	8001db4 <main+0x180>
        // Initialization failed
        UlToStr(val, g, 3);
 8001d42:	234d      	movs	r3, #77	; 0x4d
 8001d44:	18fb      	adds	r3, r7, r3
 8001d46:	7819      	ldrb	r1, [r3, #0]
 8001d48:	4baa      	ldr	r3, [pc, #680]	; (8001ff4 <main+0x3c0>)
 8001d4a:	2203      	movs	r2, #3
 8001d4c:	0018      	movs	r0, r3
 8001d4e:	f001 fa79 	bl	8003244 <UlToStr>
        lcd_putstring(val);
 8001d52:	4ba8      	ldr	r3, [pc, #672]	; (8001ff4 <main+0x3c0>)
 8001d54:	0018      	movs	r0, r3
 8001d56:	f7fe fe3f 	bl	80009d8 <lcd_putstring>
        lcd_command(LINE_TWO);
 8001d5a:	20c0      	movs	r0, #192	; 0xc0
 8001d5c:	f7fe fc56 	bl	800060c <lcd_command>
        printf("failed\n");
 8001d60:	4b9d      	ldr	r3, [pc, #628]	; (8001fd8 <main+0x3a4>)
 8001d62:	0018      	movs	r0, r3
 8001d64:	f004 fec2 	bl	8006aec <puts>
        lcd_putstring("MRF failed!");
 8001d68:	4ba3      	ldr	r3, [pc, #652]	; (8001ff8 <main+0x3c4>)
 8001d6a:	0018      	movs	r0, r3
 8001d6c:	f7fe fe34 	bl	80009d8 <lcd_putstring>
        lcd_command(LINE_TWO);
 8001d70:	20c0      	movs	r0, #192	; 0xc0
 8001d72:	f7fe fc4b 	bl	800060c <lcd_command>
        lcd_putstring("Please reset");
 8001d76:	4b9a      	ldr	r3, [pc, #616]	; (8001fe0 <main+0x3ac>)
 8001d78:	0018      	movs	r0, r3
 8001d7a:	f7fe fe2d 	bl	80009d8 <lcd_putstring>
        while (1) {
            if (HAL_GPIO_ReadPin(SW0_GPIO_Port, SW0_Pin) == 0) {
 8001d7e:	2390      	movs	r3, #144	; 0x90
 8001d80:	05db      	lsls	r3, r3, #23
 8001d82:	2101      	movs	r1, #1
 8001d84:	0018      	movs	r0, r3
 8001d86:	f001 ffd7 	bl	8003d38 <HAL_GPIO_ReadPin>
 8001d8a:	1e03      	subs	r3, r0, #0
 8001d8c:	d10c      	bne.n	8001da8 <main+0x174>
                _delay_ms(DEBOUNCE);
 8001d8e:	2396      	movs	r3, #150	; 0x96
 8001d90:	005b      	lsls	r3, r3, #1
 8001d92:	0018      	movs	r0, r3
 8001d94:	f001 f926 	bl	8002fe4 <_delay_ms>
                lcd_command(CLEAR);
 8001d98:	2001      	movs	r0, #1
 8001d9a:	f7fe fc37 	bl	800060c <lcd_command>
                lcd_putstring("Bypass MRF");
 8001d9e:	4b97      	ldr	r3, [pc, #604]	; (8001ffc <main+0x3c8>)
 8001da0:	0018      	movs	r0, r3
 8001da2:	f7fe fe19 	bl	80009d8 <lcd_putstring>
                break;
 8001da6:	e01f      	b.n	8001de8 <main+0x1b4>
            }
            _delay_ms(1000);
 8001da8:	23fa      	movs	r3, #250	; 0xfa
 8001daa:	009b      	lsls	r3, r3, #2
 8001dac:	0018      	movs	r0, r3
 8001dae:	f001 f919 	bl	8002fe4 <_delay_ms>
            if (HAL_GPIO_ReadPin(SW0_GPIO_Port, SW0_Pin) == 0) {
 8001db2:	e7e4      	b.n	8001d7e <main+0x14a>
        }
    } else {
        mrf_write_short(MRF_SOFTRST, 0x7); // from manual
 8001db4:	2107      	movs	r1, #7
 8001db6:	202a      	movs	r0, #42	; 0x2a
 8001db8:	f7fe fec5 	bl	8000b46 <mrf_write_short>
        while ((mrf_read_short(MRF_SOFTRST) & 0x7) != 0) {
 8001dbc:	46c0      	nop			; (mov r8, r8)
 8001dbe:	202a      	movs	r0, #42	; 0x2a
 8001dc0:	f7fe fe6d 	bl	8000a9e <mrf_read_short>
 8001dc4:	0003      	movs	r3, r0
 8001dc6:	001a      	movs	r2, r3
 8001dc8:	2307      	movs	r3, #7
 8001dca:	4013      	ands	r3, r2
 8001dcc:	d1f7      	bne.n	8001dbe <main+0x18a>
            ; // wait for soft reset to finish
        }
        mrf_init();
 8001dce:	f7ff f86f 	bl	8000eb0 <mrf_init>
        mrf_set_ignorebytes(2);
 8001dd2:	2002      	movs	r0, #2
 8001dd4:	f7fe ff44 	bl	8000c60 <mrf_set_ignorebytes>
        mrf_pan_write(0xFFFF);
 8001dd8:	4b89      	ldr	r3, [pc, #548]	; (8002000 <main+0x3cc>)
 8001dda:	0018      	movs	r0, r3
 8001ddc:	f7fe ff25 	bl	8000c2a <mrf_pan_write>
        lcd_putstring("MRF up!");
 8001de0:	4b88      	ldr	r3, [pc, #544]	; (8002004 <main+0x3d0>)
 8001de2:	0018      	movs	r0, r3
 8001de4:	f7fe fdf8 	bl	80009d8 <lcd_putstring>
    }

    mrf_promiscuous(1);
 8001de8:	2001      	movs	r0, #1
 8001dea:	f7fe ff7c 	bl	8000ce6 <mrf_promiscuous>
    mrf_address16_write(0xFFFF);
 8001dee:	4b84      	ldr	r3, [pc, #528]	; (8002000 <main+0x3cc>)
 8001df0:	0018      	movs	r0, r3
 8001df2:	f7fe ff45 	bl	8000c80 <mrf_address16_write>

    _delay_ms(1000);
 8001df6:	23fa      	movs	r3, #250	; 0xfa
 8001df8:	009b      	lsls	r3, r3, #2
 8001dfa:	0018      	movs	r0, r3
 8001dfc:	f001 f8f2 	bl	8002fe4 <_delay_ms>
    lcd_command(CLEAR);
 8001e00:	2001      	movs	r0, #1
 8001e02:	f7fe fc03 	bl	800060c <lcd_command>
    lcd_putstring("Setup complete");
 8001e06:	4b80      	ldr	r3, [pc, #512]	; (8002008 <main+0x3d4>)
 8001e08:	0018      	movs	r0, r3
 8001e0a:	f7fe fde5 	bl	80009d8 <lcd_putstring>
    /* USER CODE END 2 */

    /* Infinite loop */
    /* USER CODE BEGIN WHILE */
    while (1) {
        switch (PROGRAM) {
 8001e0e:	2357      	movs	r3, #87	; 0x57
 8001e10:	18fb      	adds	r3, r7, r3
 8001e12:	781b      	ldrb	r3, [r3, #0]
 8001e14:	2b04      	cmp	r3, #4
 8001e16:	d901      	bls.n	8001e1c <main+0x1e8>
 8001e18:	f000 fd00 	bl	800281c <main+0xbe8>
 8001e1c:	009a      	lsls	r2, r3, #2
 8001e1e:	4b7b      	ldr	r3, [pc, #492]	; (800200c <main+0x3d8>)
 8001e20:	18d3      	adds	r3, r2, r3
 8001e22:	681b      	ldr	r3, [r3, #0]
 8001e24:	469f      	mov	pc, r3
        case 0: // Default with access to separate receiveing stations.
            if (HAL_GPIO_ReadPin(SW0_GPIO_Port, SW0_Pin) == 0) {
 8001e26:	2390      	movs	r3, #144	; 0x90
 8001e28:	05db      	lsls	r3, r3, #23
 8001e2a:	2101      	movs	r1, #1
 8001e2c:	0018      	movs	r0, r3
 8001e2e:	f001 ff83 	bl	8003d38 <HAL_GPIO_ReadPin>
 8001e32:	1e03      	subs	r3, r0, #0
 8001e34:	d125      	bne.n	8001e82 <main+0x24e>
                _delay_ms(DEBOUNCE);
 8001e36:	2396      	movs	r3, #150	; 0x96
 8001e38:	005b      	lsls	r3, r3, #1
 8001e3a:	0018      	movs	r0, r3
 8001e3c:	f001 f8d2 	bl	8002fe4 <_delay_ms>
                if (HAL_GPIO_ReadPin(SW0_GPIO_Port, SW0_Pin) == 0) {
 8001e40:	2390      	movs	r3, #144	; 0x90
 8001e42:	05db      	lsls	r3, r3, #23
 8001e44:	2101      	movs	r1, #1
 8001e46:	0018      	movs	r0, r3
 8001e48:	f001 ff76 	bl	8003d38 <HAL_GPIO_ReadPin>
 8001e4c:	1e03      	subs	r3, r0, #0
 8001e4e:	d116      	bne.n	8001e7e <main+0x24a>
                    _delay_ms(DEBOUNCE);
 8001e50:	2396      	movs	r3, #150	; 0x96
 8001e52:	005b      	lsls	r3, r3, #1
 8001e54:	0018      	movs	r0, r3
 8001e56:	f001 f8c5 	bl	8002fe4 <_delay_ms>
                    lcd_command(CLEAR);
 8001e5a:	2001      	movs	r0, #1
 8001e5c:	f7fe fbd6 	bl	800060c <lcd_command>
                    lcd_putstring("Going into tower mode.");
 8001e60:	4b6b      	ldr	r3, [pc, #428]	; (8002010 <main+0x3dc>)
 8001e62:	0018      	movs	r0, r3
 8001e64:	f7fe fdb8 	bl	80009d8 <lcd_putstring>
                    _delay_ms(1000);
 8001e68:	23fa      	movs	r3, #250	; 0xfa
 8001e6a:	009b      	lsls	r3, r3, #2
 8001e6c:	0018      	movs	r0, r3
 8001e6e:	f001 f8b9 	bl	8002fe4 <_delay_ms>
                    PROGRAM = 1;
 8001e72:	2357      	movs	r3, #87	; 0x57
 8001e74:	18fb      	adds	r3, r7, r3
 8001e76:	2201      	movs	r2, #1
 8001e78:	701a      	strb	r2, [r3, #0]
                    continue;
 8001e7a:	f000 fce1 	bl	8002840 <main+0xc0c>
                }
                print_display();
 8001e7e:	f000 fe75 	bl	8002b6c <print_display>
            }

            if (HAL_GPIO_ReadPin(SW1_GPIO_Port, SW1_Pin) == 0) {
 8001e82:	2390      	movs	r3, #144	; 0x90
 8001e84:	05db      	lsls	r3, r3, #23
 8001e86:	2102      	movs	r1, #2
 8001e88:	0018      	movs	r0, r3
 8001e8a:	f001 ff55 	bl	8003d38 <HAL_GPIO_ReadPin>
 8001e8e:	1e03      	subs	r3, r0, #0
 8001e90:	d158      	bne.n	8001f44 <main+0x310>
                _delay_ms(DEBOUNCE);
 8001e92:	2396      	movs	r3, #150	; 0x96
 8001e94:	005b      	lsls	r3, r3, #1
 8001e96:	0018      	movs	r0, r3
 8001e98:	f001 f8a4 	bl	8002fe4 <_delay_ms>
                lcd_command(CLEAR); // Clear LCD
 8001e9c:	2001      	movs	r0, #1
 8001e9e:	f7fe fbb5 	bl	800060c <lcd_command>
                lcd_putstring("Obtaining MRF");
 8001ea2:	4b5c      	ldr	r3, [pc, #368]	; (8002014 <main+0x3e0>)
 8001ea4:	0018      	movs	r0, r3
 8001ea6:	f7fe fd97 	bl	80009d8 <lcd_putstring>
                uint8_t t = 0;
 8001eaa:	2356      	movs	r3, #86	; 0x56
 8001eac:	18fb      	adds	r3, r7, r3
 8001eae:	2200      	movs	r2, #0
 8001eb0:	701a      	strb	r2, [r3, #0]
                volatile uint8_t counter = 0;
 8001eb2:	2326      	movs	r3, #38	; 0x26
 8001eb4:	18fb      	adds	r3, r7, r3
 8001eb6:	2200      	movs	r2, #0
 8001eb8:	701a      	strb	r2, [r3, #0]

                uint8_t tmp = last_mrf_rssi;
 8001eba:	2349      	movs	r3, #73	; 0x49
 8001ebc:	18fb      	adds	r3, r7, r3
 8001ebe:	4a56      	ldr	r2, [pc, #344]	; (8002018 <main+0x3e4>)
 8001ec0:	7812      	ldrb	r2, [r2, #0]
 8001ec2:	701a      	strb	r2, [r3, #0]
                lcd_command(LINE_TWO);
 8001ec4:	20c0      	movs	r0, #192	; 0xc0
 8001ec6:	f7fe fba1 	bl	800060c <lcd_command>
                while (last_mrf_rssi == tmp) {
 8001eca:	e022      	b.n	8001f12 <main+0x2de>
                    receive_mrf();
 8001ecc:	f001 f92c 	bl	8003128 <receive_mrf>
                    if (counter >= MIN_WAIT) {
 8001ed0:	2326      	movs	r3, #38	; 0x26
 8001ed2:	18fb      	adds	r3, r7, r3
 8001ed4:	781b      	ldrb	r3, [r3, #0]
 8001ed6:	b2db      	uxtb	r3, r3
 8001ed8:	2b63      	cmp	r3, #99	; 0x63
 8001eda:	d904      	bls.n	8001ee6 <main+0x2b2>
                        t = 1;
 8001edc:	2356      	movs	r3, #86	; 0x56
 8001ede:	18fb      	adds	r3, r7, r3
 8001ee0:	2201      	movs	r2, #1
 8001ee2:	701a      	strb	r2, [r3, #0]
                        break;
 8001ee4:	e01c      	b.n	8001f20 <main+0x2ec>
                    }
                    counter += 1; // counter will get to 100ms * ( MIN_WAIT = 100) = 10s
 8001ee6:	2126      	movs	r1, #38	; 0x26
 8001ee8:	187b      	adds	r3, r7, r1
 8001eea:	781b      	ldrb	r3, [r3, #0]
 8001eec:	b2db      	uxtb	r3, r3
 8001eee:	3301      	adds	r3, #1
 8001ef0:	b2da      	uxtb	r2, r3
 8001ef2:	187b      	adds	r3, r7, r1
 8001ef4:	701a      	strb	r2, [r3, #0]

                    if (counter % 100 == 0) {
 8001ef6:	187b      	adds	r3, r7, r1
 8001ef8:	781b      	ldrb	r3, [r3, #0]
 8001efa:	b2db      	uxtb	r3, r3
 8001efc:	2164      	movs	r1, #100	; 0x64
 8001efe:	0018      	movs	r0, r3
 8001f00:	f7fe f988 	bl	8000214 <__aeabi_uidivmod>
 8001f04:	000b      	movs	r3, r1
 8001f06:	b2db      	uxtb	r3, r3
 8001f08:	2b00      	cmp	r3, #0
 8001f0a:	d102      	bne.n	8001f12 <main+0x2de>
                        lcd_putchar('.');
 8001f0c:	202e      	movs	r0, #46	; 0x2e
 8001f0e:	f7fe fc99 	bl	8000844 <lcd_putchar>
                while (last_mrf_rssi == tmp) {
 8001f12:	4b41      	ldr	r3, [pc, #260]	; (8002018 <main+0x3e4>)
 8001f14:	781b      	ldrb	r3, [r3, #0]
 8001f16:	2249      	movs	r2, #73	; 0x49
 8001f18:	18ba      	adds	r2, r7, r2
 8001f1a:	7812      	ldrb	r2, [r2, #0]
 8001f1c:	429a      	cmp	r2, r3
 8001f1e:	d0d5      	beq.n	8001ecc <main+0x298>
                    }
                }

                if (t) {
 8001f20:	2356      	movs	r3, #86	; 0x56
 8001f22:	18fb      	adds	r3, r7, r3
 8001f24:	781b      	ldrb	r3, [r3, #0]
 8001f26:	2b00      	cmp	r3, #0
 8001f28:	d00a      	beq.n	8001f40 <main+0x30c>
                    last_mrf_rssi = 0;
 8001f2a:	4b3b      	ldr	r3, [pc, #236]	; (8002018 <main+0x3e4>)
 8001f2c:	2200      	movs	r2, #0
 8001f2e:	701a      	strb	r2, [r3, #0]
                    lcd_command(CLEAR);
 8001f30:	2001      	movs	r0, #1
 8001f32:	f7fe fb6b 	bl	800060c <lcd_command>
                    lcd_putstring("MRF failed");
 8001f36:	4b39      	ldr	r3, [pc, #228]	; (800201c <main+0x3e8>)
 8001f38:	0018      	movs	r0, r3
 8001f3a:	f7fe fd4d 	bl	80009d8 <lcd_putstring>
 8001f3e:	e001      	b.n	8001f44 <main+0x310>
                } else {
                    print_display();
 8001f40:	f000 fe14 	bl	8002b6c <print_display>
                }
            }

            if (HAL_GPIO_ReadPin(SW2_GPIO_Port, SW2_Pin) == 0) {
 8001f44:	2390      	movs	r3, #144	; 0x90
 8001f46:	05db      	lsls	r3, r3, #23
 8001f48:	2104      	movs	r1, #4
 8001f4a:	0018      	movs	r0, r3
 8001f4c:	f001 fef4 	bl	8003d38 <HAL_GPIO_ReadPin>
 8001f50:	1e03      	subs	r3, r0, #0
 8001f52:	d000      	beq.n	8001f56 <main+0x322>
 8001f54:	e08d      	b.n	8002072 <main+0x43e>
                _delay_ms(DEBOUNCE);
 8001f56:	2396      	movs	r3, #150	; 0x96
 8001f58:	005b      	lsls	r3, r3, #1
 8001f5a:	0018      	movs	r0, r3
 8001f5c:	f001 f842 	bl	8002fe4 <_delay_ms>
                lcd_command(CLEAR); // Clear LCD
 8001f60:	2001      	movs	r0, #1
 8001f62:	f7fe fb53 	bl	800060c <lcd_command>
                lcd_putstring("Obtaining LORA");
 8001f66:	4b2e      	ldr	r3, [pc, #184]	; (8002020 <main+0x3ec>)
 8001f68:	0018      	movs	r0, r3
 8001f6a:	f7fe fd35 	bl	80009d8 <lcd_putstring>
                uint8_t t = 0;
 8001f6e:	2355      	movs	r3, #85	; 0x55
 8001f70:	18fb      	adds	r3, r7, r3
 8001f72:	2200      	movs	r2, #0
 8001f74:	701a      	strb	r2, [r3, #0]
                volatile uint8_t counter = 0;
 8001f76:	2325      	movs	r3, #37	; 0x25
 8001f78:	18fb      	adds	r3, r7, r3
 8001f7a:	2200      	movs	r2, #0
 8001f7c:	701a      	strb	r2, [r3, #0]

                uint8_t tmp = last_lora_rssi;
 8001f7e:	2348      	movs	r3, #72	; 0x48
 8001f80:	18fb      	adds	r3, r7, r3
 8001f82:	4a28      	ldr	r2, [pc, #160]	; (8002024 <main+0x3f0>)
 8001f84:	7812      	ldrb	r2, [r2, #0]
 8001f86:	701a      	strb	r2, [r3, #0]
                lcd_command(LINE_TWO);
 8001f88:	20c0      	movs	r0, #192	; 0xc0
 8001f8a:	f7fe fb3f 	bl	800060c <lcd_command>
                while (last_lora_rssi == tmp) {
 8001f8e:	e057      	b.n	8002040 <main+0x40c>
                    receive_lora(lora);
 8001f90:	2328      	movs	r3, #40	; 0x28
 8001f92:	18fb      	adds	r3, r7, r3
 8001f94:	466a      	mov	r2, sp
 8001f96:	0011      	movs	r1, r2
 8001f98:	001a      	movs	r2, r3
 8001f9a:	3210      	adds	r2, #16
 8001f9c:	ca31      	ldmia	r2!, {r0, r4, r5}
 8001f9e:	c131      	stmia	r1!, {r0, r4, r5}
 8001fa0:	6818      	ldr	r0, [r3, #0]
 8001fa2:	6859      	ldr	r1, [r3, #4]
 8001fa4:	689a      	ldr	r2, [r3, #8]
 8001fa6:	68db      	ldr	r3, [r3, #12]
 8001fa8:	f001 f8e8 	bl	800317c <receive_lora>
                    if (counter >= MIN_WAIT) {
 8001fac:	2325      	movs	r3, #37	; 0x25
 8001fae:	18fb      	adds	r3, r7, r3
 8001fb0:	781b      	ldrb	r3, [r3, #0]
 8001fb2:	b2db      	uxtb	r3, r3
 8001fb4:	2b63      	cmp	r3, #99	; 0x63
 8001fb6:	d937      	bls.n	8002028 <main+0x3f4>
                        t = 1;
 8001fb8:	2355      	movs	r3, #85	; 0x55
 8001fba:	18fb      	adds	r3, r7, r3
 8001fbc:	2201      	movs	r2, #1
 8001fbe:	701a      	strb	r2, [r3, #0]
                        break;
 8001fc0:	e045      	b.n	800204e <main+0x41a>
 8001fc2:	46c0      	nop			; (mov r8, r8)
 8001fc4:	200001a8 	.word	0x200001a8
 8001fc8:	48000400 	.word	0x48000400
 8001fcc:	20000144 	.word	0x20000144
 8001fd0:	33bca100 	.word	0x33bca100
 8001fd4:	08007aec 	.word	0x08007aec
 8001fd8:	08007b00 	.word	0x08007b00
 8001fdc:	08007b08 	.word	0x08007b08
 8001fe0:	08007b18 	.word	0x08007b18
 8001fe4:	08007b28 	.word	0x08007b28
 8001fe8:	08007b34 	.word	0x08007b34
 8001fec:	08007b48 	.word	0x08007b48
 8001ff0:	08007b54 	.word	0x08007b54
 8001ff4:	20000140 	.word	0x20000140
 8001ff8:	08007b68 	.word	0x08007b68
 8001ffc:	08007b74 	.word	0x08007b74
 8002000:	0000ffff 	.word	0x0000ffff
 8002004:	08007b80 	.word	0x08007b80
 8002008:	08007b88 	.word	0x08007b88
 800200c:	08007eb4 	.word	0x08007eb4
 8002010:	08007b98 	.word	0x08007b98
 8002014:	08007bb0 	.word	0x08007bb0
 8002018:	20000121 	.word	0x20000121
 800201c:	08007bc0 	.word	0x08007bc0
 8002020:	08007bcc 	.word	0x08007bcc
 8002024:	20000122 	.word	0x20000122
                    }
                    counter += 50;
 8002028:	2125      	movs	r1, #37	; 0x25
 800202a:	187b      	adds	r3, r7, r1
 800202c:	781b      	ldrb	r3, [r3, #0]
 800202e:	b2db      	uxtb	r3, r3
 8002030:	3332      	adds	r3, #50	; 0x32
 8002032:	b2da      	uxtb	r2, r3
 8002034:	187b      	adds	r3, r7, r1
 8002036:	701a      	strb	r2, [r3, #0]

                    lcd_putstring("...");
 8002038:	4be0      	ldr	r3, [pc, #896]	; (80023bc <main+0x788>)
 800203a:	0018      	movs	r0, r3
 800203c:	f7fe fccc 	bl	80009d8 <lcd_putstring>
                while (last_lora_rssi == tmp) {
 8002040:	4bdf      	ldr	r3, [pc, #892]	; (80023c0 <main+0x78c>)
 8002042:	781b      	ldrb	r3, [r3, #0]
 8002044:	2248      	movs	r2, #72	; 0x48
 8002046:	18ba      	adds	r2, r7, r2
 8002048:	7812      	ldrb	r2, [r2, #0]
 800204a:	429a      	cmp	r2, r3
 800204c:	d0a0      	beq.n	8001f90 <main+0x35c>
                }

                if (t) {
 800204e:	2355      	movs	r3, #85	; 0x55
 8002050:	18fb      	adds	r3, r7, r3
 8002052:	781b      	ldrb	r3, [r3, #0]
 8002054:	2b00      	cmp	r3, #0
 8002056:	d00a      	beq.n	800206e <main+0x43a>
                    last_lora_rssi = 0;
 8002058:	4bd9      	ldr	r3, [pc, #868]	; (80023c0 <main+0x78c>)
 800205a:	2200      	movs	r2, #0
 800205c:	701a      	strb	r2, [r3, #0]
                    lcd_command(CLEAR);
 800205e:	2001      	movs	r0, #1
 8002060:	f7fe fad4 	bl	800060c <lcd_command>
                    lcd_putstring("LORA failed");
 8002064:	4bd7      	ldr	r3, [pc, #860]	; (80023c4 <main+0x790>)
 8002066:	0018      	movs	r0, r3
 8002068:	f7fe fcb6 	bl	80009d8 <lcd_putstring>
 800206c:	e001      	b.n	8002072 <main+0x43e>
                } else {
                    print_display();
 800206e:	f000 fd7d 	bl	8002b6c <print_display>
                }
            }

            if (HAL_GPIO_ReadPin(SW3_GPIO_Port, SW3_Pin) == 0) {
 8002072:	2390      	movs	r3, #144	; 0x90
 8002074:	05db      	lsls	r3, r3, #23
 8002076:	2108      	movs	r1, #8
 8002078:	0018      	movs	r0, r3
 800207a:	f001 fe5d 	bl	8003d38 <HAL_GPIO_ReadPin>
 800207e:	1e03      	subs	r3, r0, #0
 8002080:	d001      	beq.n	8002086 <main+0x452>
 8002082:	f000 fbd7 	bl	8002834 <main+0xc00>
                _delay_ms(DEBOUNCE);
 8002086:	2396      	movs	r3, #150	; 0x96
 8002088:	005b      	lsls	r3, r3, #1
 800208a:	0018      	movs	r0, r3
 800208c:	f000 ffaa 	bl	8002fe4 <_delay_ms>
                lcd_command(CLEAR); // Clear LCD
 8002090:	2001      	movs	r0, #1
 8002092:	f7fe fabb 	bl	800060c <lcd_command>
                lcd_putstring("LORA --> ");
 8002096:	4bcc      	ldr	r3, [pc, #816]	; (80023c8 <main+0x794>)
 8002098:	0018      	movs	r0, r3
 800209a:	f7fe fc9d 	bl	80009d8 <lcd_putstring>
                uint8_t t = 0;
 800209e:	2354      	movs	r3, #84	; 0x54
 80020a0:	18fb      	adds	r3, r7, r3
 80020a2:	2200      	movs	r2, #0
 80020a4:	701a      	strb	r2, [r3, #0]
                volatile uint8_t counter = 0;
 80020a6:	2324      	movs	r3, #36	; 0x24
 80020a8:	18fb      	adds	r3, r7, r3
 80020aa:	2200      	movs	r2, #0
 80020ac:	701a      	strb	r2, [r3, #0]

                uint8_t tmp = last_lora_rssi;
 80020ae:	2347      	movs	r3, #71	; 0x47
 80020b0:	18fb      	adds	r3, r7, r3
 80020b2:	4ac3      	ldr	r2, [pc, #780]	; (80023c0 <main+0x78c>)
 80020b4:	7812      	ldrb	r2, [r2, #0]
 80020b6:	701a      	strb	r2, [r3, #0]
                while (last_lora_rssi == tmp) {
 80020b8:	e020      	b.n	80020fc <main+0x4c8>
                    receive_lora(lora);
 80020ba:	2328      	movs	r3, #40	; 0x28
 80020bc:	18fb      	adds	r3, r7, r3
 80020be:	466a      	mov	r2, sp
 80020c0:	0011      	movs	r1, r2
 80020c2:	001a      	movs	r2, r3
 80020c4:	3210      	adds	r2, #16
 80020c6:	ca31      	ldmia	r2!, {r0, r4, r5}
 80020c8:	c131      	stmia	r1!, {r0, r4, r5}
 80020ca:	6818      	ldr	r0, [r3, #0]
 80020cc:	6859      	ldr	r1, [r3, #4]
 80020ce:	689a      	ldr	r2, [r3, #8]
 80020d0:	68db      	ldr	r3, [r3, #12]
 80020d2:	f001 f853 	bl	800317c <receive_lora>
                    if (counter >= MIN_WAIT) {
 80020d6:	2324      	movs	r3, #36	; 0x24
 80020d8:	18fb      	adds	r3, r7, r3
 80020da:	781b      	ldrb	r3, [r3, #0]
 80020dc:	b2db      	uxtb	r3, r3
 80020de:	2b63      	cmp	r3, #99	; 0x63
 80020e0:	d904      	bls.n	80020ec <main+0x4b8>
                        t = 1;
 80020e2:	2354      	movs	r3, #84	; 0x54
 80020e4:	18fb      	adds	r3, r7, r3
 80020e6:	2201      	movs	r2, #1
 80020e8:	701a      	strb	r2, [r3, #0]
                        break;
 80020ea:	e00e      	b.n	800210a <main+0x4d6>
                    }
                    counter += 50;
 80020ec:	2124      	movs	r1, #36	; 0x24
 80020ee:	187b      	adds	r3, r7, r1
 80020f0:	781b      	ldrb	r3, [r3, #0]
 80020f2:	b2db      	uxtb	r3, r3
 80020f4:	3332      	adds	r3, #50	; 0x32
 80020f6:	b2da      	uxtb	r2, r3
 80020f8:	187b      	adds	r3, r7, r1
 80020fa:	701a      	strb	r2, [r3, #0]
                while (last_lora_rssi == tmp) {
 80020fc:	4bb0      	ldr	r3, [pc, #704]	; (80023c0 <main+0x78c>)
 80020fe:	781b      	ldrb	r3, [r3, #0]
 8002100:	2247      	movs	r2, #71	; 0x47
 8002102:	18ba      	adds	r2, r7, r2
 8002104:	7812      	ldrb	r2, [r2, #0]
 8002106:	429a      	cmp	r2, r3
 8002108:	d0d7      	beq.n	80020ba <main+0x486>
                }

                if (t) {
 800210a:	2354      	movs	r3, #84	; 0x54
 800210c:	18fb      	adds	r3, r7, r3
 800210e:	781b      	ldrb	r3, [r3, #0]
 8002110:	2b00      	cmp	r3, #0
 8002112:	d007      	beq.n	8002124 <main+0x4f0>
                    last_lora_rssi = 0;
 8002114:	4baa      	ldr	r3, [pc, #680]	; (80023c0 <main+0x78c>)
 8002116:	2200      	movs	r2, #0
 8002118:	701a      	strb	r2, [r3, #0]
                    lcd_putstring("FAIL");
 800211a:	4bac      	ldr	r3, [pc, #688]	; (80023cc <main+0x798>)
 800211c:	0018      	movs	r0, r3
 800211e:	f7fe fc5b 	bl	80009d8 <lcd_putstring>
 8002122:	e003      	b.n	800212c <main+0x4f8>
                } else {
                    lcd_putstring("GOOD");
 8002124:	4baa      	ldr	r3, [pc, #680]	; (80023d0 <main+0x79c>)
 8002126:	0018      	movs	r0, r3
 8002128:	f7fe fc56 	bl	80009d8 <lcd_putstring>
                }

                lcd_command(LINE_TWO);
 800212c:	20c0      	movs	r0, #192	; 0xc0
 800212e:	f7fe fa6d 	bl	800060c <lcd_command>
                lcd_putstring("MRF --> ");
 8002132:	4ba8      	ldr	r3, [pc, #672]	; (80023d4 <main+0x7a0>)
 8002134:	0018      	movs	r0, r3
 8002136:	f7fe fc4f 	bl	80009d8 <lcd_putstring>
                t = 0;
 800213a:	2354      	movs	r3, #84	; 0x54
 800213c:	18fb      	adds	r3, r7, r3
 800213e:	2200      	movs	r2, #0
 8002140:	701a      	strb	r2, [r3, #0]
                counter = 0;
 8002142:	2324      	movs	r3, #36	; 0x24
 8002144:	18fb      	adds	r3, r7, r3
 8002146:	2200      	movs	r2, #0
 8002148:	701a      	strb	r2, [r3, #0]

                tmp = last_mrf_rssi;
 800214a:	2347      	movs	r3, #71	; 0x47
 800214c:	18fb      	adds	r3, r7, r3
 800214e:	4aa2      	ldr	r2, [pc, #648]	; (80023d8 <main+0x7a4>)
 8002150:	7812      	ldrb	r2, [r2, #0]
 8002152:	701a      	strb	r2, [r3, #0]

                while (last_mrf_rssi == tmp) {
 8002154:	e014      	b.n	8002180 <main+0x54c>
                    receive_mrf();
 8002156:	f000 ffe7 	bl	8003128 <receive_mrf>
                    if (counter >= MIN_WAIT) {
 800215a:	2324      	movs	r3, #36	; 0x24
 800215c:	18fb      	adds	r3, r7, r3
 800215e:	781b      	ldrb	r3, [r3, #0]
 8002160:	b2db      	uxtb	r3, r3
 8002162:	2b63      	cmp	r3, #99	; 0x63
 8002164:	d904      	bls.n	8002170 <main+0x53c>
                        t = 1;
 8002166:	2354      	movs	r3, #84	; 0x54
 8002168:	18fb      	adds	r3, r7, r3
 800216a:	2201      	movs	r2, #1
 800216c:	701a      	strb	r2, [r3, #0]
                        break;
 800216e:	e00e      	b.n	800218e <main+0x55a>
                    }
                    counter += 1; // counter will get to 100ms * ( MIN_WAIT = 100) = 10s
 8002170:	2124      	movs	r1, #36	; 0x24
 8002172:	187b      	adds	r3, r7, r1
 8002174:	781b      	ldrb	r3, [r3, #0]
 8002176:	b2db      	uxtb	r3, r3
 8002178:	3301      	adds	r3, #1
 800217a:	b2da      	uxtb	r2, r3
 800217c:	187b      	adds	r3, r7, r1
 800217e:	701a      	strb	r2, [r3, #0]
                while (last_mrf_rssi == tmp) {
 8002180:	4b95      	ldr	r3, [pc, #596]	; (80023d8 <main+0x7a4>)
 8002182:	781b      	ldrb	r3, [r3, #0]
 8002184:	2247      	movs	r2, #71	; 0x47
 8002186:	18ba      	adds	r2, r7, r2
 8002188:	7812      	ldrb	r2, [r2, #0]
 800218a:	429a      	cmp	r2, r3
 800218c:	d0e3      	beq.n	8002156 <main+0x522>
                }

                if (t) {
 800218e:	2354      	movs	r3, #84	; 0x54
 8002190:	18fb      	adds	r3, r7, r3
 8002192:	781b      	ldrb	r3, [r3, #0]
 8002194:	2b00      	cmp	r3, #0
 8002196:	d007      	beq.n	80021a8 <main+0x574>
                    last_mrf_rssi = 0;
 8002198:	4b8f      	ldr	r3, [pc, #572]	; (80023d8 <main+0x7a4>)
 800219a:	2200      	movs	r2, #0
 800219c:	701a      	strb	r2, [r3, #0]
                    lcd_putstring("FAIL");
 800219e:	4b8b      	ldr	r3, [pc, #556]	; (80023cc <main+0x798>)
 80021a0:	0018      	movs	r0, r3
 80021a2:	f7fe fc19 	bl	80009d8 <lcd_putstring>
                } else {
                    lcd_putstring("GOOD");
                }
            }

            break;
 80021a6:	e345      	b.n	8002834 <main+0xc00>
                    lcd_putstring("GOOD");
 80021a8:	4b89      	ldr	r3, [pc, #548]	; (80023d0 <main+0x79c>)
 80021aa:	0018      	movs	r0, r3
 80021ac:	f7fe fc14 	bl	80009d8 <lcd_putstring>
            break;
 80021b0:	e340      	b.n	8002834 <main+0xc00>
        case 1:
            if (HAL_GPIO_ReadPin(SW0_GPIO_Port, SW0_Pin) == 0) {
 80021b2:	2390      	movs	r3, #144	; 0x90
 80021b4:	05db      	lsls	r3, r3, #23
 80021b6:	2101      	movs	r1, #1
 80021b8:	0018      	movs	r0, r3
 80021ba:	f001 fdbd 	bl	8003d38 <HAL_GPIO_ReadPin>
 80021be:	1e03      	subs	r3, r0, #0
 80021c0:	d124      	bne.n	800220c <main+0x5d8>
                _delay_ms(DEBOUNCE);
 80021c2:	2396      	movs	r3, #150	; 0x96
 80021c4:	005b      	lsls	r3, r3, #1
 80021c6:	0018      	movs	r0, r3
 80021c8:	f000 ff0c 	bl	8002fe4 <_delay_ms>
                if (HAL_GPIO_ReadPin(SW0_GPIO_Port, SW0_Pin) == 0) {
 80021cc:	2390      	movs	r3, #144	; 0x90
 80021ce:	05db      	lsls	r3, r3, #23
 80021d0:	2101      	movs	r1, #1
 80021d2:	0018      	movs	r0, r3
 80021d4:	f001 fdb0 	bl	8003d38 <HAL_GPIO_ReadPin>
 80021d8:	1e03      	subs	r3, r0, #0
 80021da:	d115      	bne.n	8002208 <main+0x5d4>
                    _delay_ms(DEBOUNCE);
 80021dc:	2396      	movs	r3, #150	; 0x96
 80021de:	005b      	lsls	r3, r3, #1
 80021e0:	0018      	movs	r0, r3
 80021e2:	f000 feff 	bl	8002fe4 <_delay_ms>
                    lcd_command(CLEAR);
 80021e6:	2001      	movs	r0, #1
 80021e8:	f7fe fa10 	bl	800060c <lcd_command>
                    lcd_putstring("Going into count mode.");
 80021ec:	4b7b      	ldr	r3, [pc, #492]	; (80023dc <main+0x7a8>)
 80021ee:	0018      	movs	r0, r3
 80021f0:	f7fe fbf2 	bl	80009d8 <lcd_putstring>
                    _delay_ms(1000);
 80021f4:	23fa      	movs	r3, #250	; 0xfa
 80021f6:	009b      	lsls	r3, r3, #2
 80021f8:	0018      	movs	r0, r3
 80021fa:	f000 fef3 	bl	8002fe4 <_delay_ms>
                    PROGRAM = 2;
 80021fe:	2357      	movs	r3, #87	; 0x57
 8002200:	18fb      	adds	r3, r7, r3
 8002202:	2202      	movs	r2, #2
 8002204:	701a      	strb	r2, [r3, #0]
                    continue;
 8002206:	e31b      	b.n	8002840 <main+0xc0c>
                }
                print_joint();
 8002208:	f000 fd0c 	bl	8002c24 <print_joint>
            }

            if (HAL_GPIO_ReadPin(SW3_GPIO_Port, SW3_Pin) == 0) {
 800220c:	2390      	movs	r3, #144	; 0x90
 800220e:	05db      	lsls	r3, r3, #23
 8002210:	2108      	movs	r1, #8
 8002212:	0018      	movs	r0, r3
 8002214:	f001 fd90 	bl	8003d38 <HAL_GPIO_ReadPin>
 8002218:	1e03      	subs	r3, r0, #0
 800221a:	d138      	bne.n	800228e <main+0x65a>
                _delay_ms(DEBOUNCE);
 800221c:	2396      	movs	r3, #150	; 0x96
 800221e:	005b      	lsls	r3, r3, #1
 8002220:	0018      	movs	r0, r3
 8002222:	f000 fedf 	bl	8002fe4 <_delay_ms>
                lcd_command(CLEAR);
 8002226:	2001      	movs	r0, #1
 8002228:	f7fe f9f0 	bl	800060c <lcd_command>
                lcd_putstring("MRF Test - ");
 800222c:	4b6c      	ldr	r3, [pc, #432]	; (80023e0 <main+0x7ac>)
 800222e:	0018      	movs	r0, r3
 8002230:	f7fe fbd2 	bl	80009d8 <lcd_putstring>
                uint8_t g = mrf_read_short(0x12);
 8002234:	254b      	movs	r5, #75	; 0x4b
 8002236:	197c      	adds	r4, r7, r5
 8002238:	2012      	movs	r0, #18
 800223a:	f7fe fc30 	bl	8000a9e <mrf_read_short>
 800223e:	0003      	movs	r3, r0
 8002240:	7023      	strb	r3, [r4, #0]

                if (g == 0x39) {
 8002242:	197b      	adds	r3, r7, r5
 8002244:	781b      	ldrb	r3, [r3, #0]
 8002246:	2b39      	cmp	r3, #57	; 0x39
 8002248:	d107      	bne.n	800225a <main+0x626>
                    lcd_command(LINE_TWO);
 800224a:	20c0      	movs	r0, #192	; 0xc0
 800224c:	f7fe f9de 	bl	800060c <lcd_command>
                    lcd_putstring("Working");
 8002250:	4b64      	ldr	r3, [pc, #400]	; (80023e4 <main+0x7b0>)
 8002252:	0018      	movs	r0, r3
 8002254:	f7fe fbc0 	bl	80009d8 <lcd_putstring>
 8002258:	e012      	b.n	8002280 <main+0x64c>
                } else {
                    UlToStr(val, g, 3);
 800225a:	234b      	movs	r3, #75	; 0x4b
 800225c:	18fb      	adds	r3, r7, r3
 800225e:	7819      	ldrb	r1, [r3, #0]
 8002260:	4b61      	ldr	r3, [pc, #388]	; (80023e8 <main+0x7b4>)
 8002262:	2203      	movs	r2, #3
 8002264:	0018      	movs	r0, r3
 8002266:	f000 ffed 	bl	8003244 <UlToStr>
                    lcd_putstring(val);
 800226a:	4b5f      	ldr	r3, [pc, #380]	; (80023e8 <main+0x7b4>)
 800226c:	0018      	movs	r0, r3
 800226e:	f7fe fbb3 	bl	80009d8 <lcd_putstring>
                    lcd_command(LINE_TWO);
 8002272:	20c0      	movs	r0, #192	; 0xc0
 8002274:	f7fe f9ca 	bl	800060c <lcd_command>
                    lcd_putstring("Fault in SPI lines");
 8002278:	4b5c      	ldr	r3, [pc, #368]	; (80023ec <main+0x7b8>)
 800227a:	0018      	movs	r0, r3
 800227c:	f7fe fbac 	bl	80009d8 <lcd_putstring>
                }
                _delay_ms(2000);
 8002280:	23fa      	movs	r3, #250	; 0xfa
 8002282:	00db      	lsls	r3, r3, #3
 8002284:	0018      	movs	r0, r3
 8002286:	f000 fead 	bl	8002fe4 <_delay_ms>
                print_joint();
 800228a:	f000 fccb 	bl	8002c24 <print_joint>
            }

            if (HAL_GPIO_ReadPin(SW1_GPIO_Port, SW1_Pin) == 0) {
 800228e:	2390      	movs	r3, #144	; 0x90
 8002290:	05db      	lsls	r3, r3, #23
 8002292:	2102      	movs	r1, #2
 8002294:	0018      	movs	r0, r3
 8002296:	f001 fd4f 	bl	8003d38 <HAL_GPIO_ReadPin>
 800229a:	1e03      	subs	r3, r0, #0
 800229c:	d000      	beq.n	80022a0 <main+0x66c>
 800229e:	e0e9      	b.n	8002474 <main+0x840>
                _delay_ms(DEBOUNCE);
 80022a0:	2396      	movs	r3, #150	; 0x96
 80022a2:	005b      	lsls	r3, r3, #1
 80022a4:	0018      	movs	r0, r3
 80022a6:	f000 fe9d 	bl	8002fe4 <_delay_ms>
                lora_mode_receive_continious( & lora);
 80022aa:	2328      	movs	r3, #40	; 0x28
 80022ac:	18fb      	adds	r3, r7, r3
 80022ae:	0018      	movs	r0, r3
 80022b0:	f7ff f93f 	bl	8001532 <lora_mode_receive_continious>
                // Update LORA
                printf("Lora receiving....");
 80022b4:	4b4e      	ldr	r3, [pc, #312]	; (80023f0 <main+0x7bc>)
 80022b6:	0018      	movs	r0, r3
 80022b8:	f004 fb8a 	bl	80069d0 <iprintf>
                lcd_command(CLEAR);
 80022bc:	2001      	movs	r0, #1
 80022be:	f7fe f9a5 	bl	800060c <lcd_command>
                lcd_putstring("Fetching LORA");
 80022c2:	4b4c      	ldr	r3, [pc, #304]	; (80023f4 <main+0x7c0>)
 80022c4:	0018      	movs	r0, r3
 80022c6:	f7fe fb87 	bl	80009d8 <lcd_putstring>
                lcd_command(LINE_TWO);
 80022ca:	20c0      	movs	r0, #192	; 0xc0
 80022cc:	f7fe f99e 	bl	800060c <lcd_command>
                uint8_t buffer[32];
                uint8_t loops = 0;
 80022d0:	2353      	movs	r3, #83	; 0x53
 80022d2:	18fb      	adds	r3, r7, r3
 80022d4:	2200      	movs	r2, #0
 80022d6:	701a      	strb	r2, [r3, #0]
                uint8_t A = 0, B = 0, C = 0;
 80022d8:	2352      	movs	r3, #82	; 0x52
 80022da:	18fb      	adds	r3, r7, r3
 80022dc:	2200      	movs	r2, #0
 80022de:	701a      	strb	r2, [r3, #0]
 80022e0:	2351      	movs	r3, #81	; 0x51
 80022e2:	18fb      	adds	r3, r7, r3
 80022e4:	2200      	movs	r2, #0
 80022e6:	701a      	strb	r2, [r3, #0]
 80022e8:	2350      	movs	r3, #80	; 0x50
 80022ea:	18fb      	adds	r3, r7, r3
 80022ec:	2200      	movs	r2, #0
 80022ee:	701a      	strb	r2, [r3, #0]
                uint8_t res;
                do {
                    lora_receive_packet_blocking( & lora, buffer, sizeof(buffer), 1000, & res);
 80022f0:	23fa      	movs	r3, #250	; 0xfa
 80022f2:	009a      	lsls	r2, r3, #2
 80022f4:	0039      	movs	r1, r7
 80022f6:	2528      	movs	r5, #40	; 0x28
 80022f8:	1978      	adds	r0, r7, r5
 80022fa:	2623      	movs	r6, #35	; 0x23
 80022fc:	19bb      	adds	r3, r7, r6
 80022fe:	9300      	str	r3, [sp, #0]
 8002300:	0013      	movs	r3, r2
 8002302:	2220      	movs	r2, #32
 8002304:	f7ff fbf5 	bl	8001af2 <lora_receive_packet_blocking>
                    uint8_t rssi = lora_packet_rssi( & lora);
 8002308:	234a      	movs	r3, #74	; 0x4a
 800230a:	18fc      	adds	r4, r7, r3
 800230c:	197b      	adds	r3, r7, r5
 800230e:	0018      	movs	r0, r3
 8002310:	f7ff f9fe 	bl	8001710 <lora_packet_rssi>
 8002314:	0003      	movs	r3, r0
 8002316:	7023      	strb	r3, [r4, #0]
                    if (res != LORA_OK) {
 8002318:	19bb      	adds	r3, r7, r6
 800231a:	781b      	ldrb	r3, [r3, #0]
 800231c:	2b00      	cmp	r3, #0
 800231e:	d008      	beq.n	8002332 <main+0x6fe>
                        printf(" No message received!\n");
 8002320:	4b35      	ldr	r3, [pc, #212]	; (80023f8 <main+0x7c4>)
 8002322:	0018      	movs	r0, r3
 8002324:	f004 fbe2 	bl	8006aec <puts>
                        lcd_putstring(".");
 8002328:	4b34      	ldr	r3, [pc, #208]	; (80023fc <main+0x7c8>)
 800232a:	0018      	movs	r0, r3
 800232c:	f7fe fb54 	bl	80009d8 <lcd_putstring>
 8002330:	e083      	b.n	800243a <main+0x806>
                    } else {
                        buffer[1] = '\0';
 8002332:	003b      	movs	r3, r7
 8002334:	2200      	movs	r2, #0
 8002336:	705a      	strb	r2, [r3, #1]
                        if ((uint8_t) buffer[0] == (uint8_t)
 8002338:	003b      	movs	r3, r7
 800233a:	781b      	ldrb	r3, [r3, #0]
 800233c:	2b41      	cmp	r3, #65	; 0x41
 800233e:	d111      	bne.n	8002364 <main+0x730>
                            'A') {
                            A = 1;
 8002340:	2352      	movs	r3, #82	; 0x52
 8002342:	18fb      	adds	r3, r7, r3
 8002344:	2201      	movs	r2, #1
 8002346:	701a      	strb	r2, [r3, #0]
                            printf("Got from tower A");
 8002348:	4b2d      	ldr	r3, [pc, #180]	; (8002400 <main+0x7cc>)
 800234a:	0018      	movs	r0, r3
 800234c:	f004 fb40 	bl	80069d0 <iprintf>
                            lcd_putstring("A");
 8002350:	4b2c      	ldr	r3, [pc, #176]	; (8002404 <main+0x7d0>)
 8002352:	0018      	movs	r0, r3
 8002354:	f7fe fb40 	bl	80009d8 <lcd_putstring>
                            last_lora_TA = rssi;
 8002358:	4b2b      	ldr	r3, [pc, #172]	; (8002408 <main+0x7d4>)
 800235a:	224a      	movs	r2, #74	; 0x4a
 800235c:	18ba      	adds	r2, r7, r2
 800235e:	7812      	ldrb	r2, [r2, #0]
 8002360:	701a      	strb	r2, [r3, #0]
 8002362:	e06a      	b.n	800243a <main+0x806>
                        } else if ((uint8_t) buffer[0] == (uint8_t)
 8002364:	003b      	movs	r3, r7
 8002366:	781b      	ldrb	r3, [r3, #0]
 8002368:	2b42      	cmp	r3, #66	; 0x42
 800236a:	d111      	bne.n	8002390 <main+0x75c>
                            'B') {
                            B = 1;
 800236c:	2351      	movs	r3, #81	; 0x51
 800236e:	18fb      	adds	r3, r7, r3
 8002370:	2201      	movs	r2, #1
 8002372:	701a      	strb	r2, [r3, #0]
                            printf("Got from tower B");
 8002374:	4b25      	ldr	r3, [pc, #148]	; (800240c <main+0x7d8>)
 8002376:	0018      	movs	r0, r3
 8002378:	f004 fb2a 	bl	80069d0 <iprintf>
                            lcd_putstring("B");
 800237c:	4b24      	ldr	r3, [pc, #144]	; (8002410 <main+0x7dc>)
 800237e:	0018      	movs	r0, r3
 8002380:	f7fe fb2a 	bl	80009d8 <lcd_putstring>
                            last_lora_TB = rssi;
 8002384:	4b23      	ldr	r3, [pc, #140]	; (8002414 <main+0x7e0>)
 8002386:	224a      	movs	r2, #74	; 0x4a
 8002388:	18ba      	adds	r2, r7, r2
 800238a:	7812      	ldrb	r2, [r2, #0]
 800238c:	701a      	strb	r2, [r3, #0]
 800238e:	e054      	b.n	800243a <main+0x806>
                        } else if ((uint8_t) buffer[0] == (uint8_t)
 8002390:	003b      	movs	r3, r7
 8002392:	781b      	ldrb	r3, [r3, #0]
 8002394:	2b43      	cmp	r3, #67	; 0x43
 8002396:	d145      	bne.n	8002424 <main+0x7f0>
                            'C') {
                            C = 1;
 8002398:	2350      	movs	r3, #80	; 0x50
 800239a:	18fb      	adds	r3, r7, r3
 800239c:	2201      	movs	r2, #1
 800239e:	701a      	strb	r2, [r3, #0]
                            printf("Got from tower C");
 80023a0:	4b1d      	ldr	r3, [pc, #116]	; (8002418 <main+0x7e4>)
 80023a2:	0018      	movs	r0, r3
 80023a4:	f004 fb14 	bl	80069d0 <iprintf>
                            lcd_putstring("C");
 80023a8:	4b1c      	ldr	r3, [pc, #112]	; (800241c <main+0x7e8>)
 80023aa:	0018      	movs	r0, r3
 80023ac:	f7fe fb14 	bl	80009d8 <lcd_putstring>
                            last_lora_TC = rssi;
 80023b0:	4b1b      	ldr	r3, [pc, #108]	; (8002420 <main+0x7ec>)
 80023b2:	224a      	movs	r2, #74	; 0x4a
 80023b4:	18ba      	adds	r2, r7, r2
 80023b6:	7812      	ldrb	r2, [r2, #0]
 80023b8:	701a      	strb	r2, [r3, #0]
 80023ba:	e03e      	b.n	800243a <main+0x806>
 80023bc:	08007bdc 	.word	0x08007bdc
 80023c0:	20000122 	.word	0x20000122
 80023c4:	08007be0 	.word	0x08007be0
 80023c8:	08007bec 	.word	0x08007bec
 80023cc:	08007bf8 	.word	0x08007bf8
 80023d0:	08007c00 	.word	0x08007c00
 80023d4:	08007c08 	.word	0x08007c08
 80023d8:	20000121 	.word	0x20000121
 80023dc:	08007c14 	.word	0x08007c14
 80023e0:	08007c2c 	.word	0x08007c2c
 80023e4:	08007c38 	.word	0x08007c38
 80023e8:	20000140 	.word	0x20000140
 80023ec:	08007c40 	.word	0x08007c40
 80023f0:	08007c54 	.word	0x08007c54
 80023f4:	08007c68 	.word	0x08007c68
 80023f8:	08007c78 	.word	0x08007c78
 80023fc:	08007c90 	.word	0x08007c90
 8002400:	08007c94 	.word	0x08007c94
 8002404:	08007ca8 	.word	0x08007ca8
 8002408:	20000123 	.word	0x20000123
 800240c:	08007cac 	.word	0x08007cac
 8002410:	08007cc0 	.word	0x08007cc0
 8002414:	20000124 	.word	0x20000124
 8002418:	08007cc4 	.word	0x08007cc4
 800241c:	08007cd8 	.word	0x08007cd8
 8002420:	20000125 	.word	0x20000125
                        } else {
                            buffer[1] = '\0';
 8002424:	003b      	movs	r3, r7
 8002426:	2200      	movs	r2, #0
 8002428:	705a      	strb	r2, [r3, #1]
                            lcd_putstring("e");
 800242a:	4ba2      	ldr	r3, [pc, #648]	; (80026b4 <main+0xa80>)
 800242c:	0018      	movs	r0, r3
 800242e:	f7fe fad3 	bl	80009d8 <lcd_putstring>
                            lcd_putstring(buffer);
 8002432:	003b      	movs	r3, r7
 8002434:	0018      	movs	r0, r3
 8002436:	f7fe facf 	bl	80009d8 <lcd_putstring>
                        }
                    }
                    loops++;
 800243a:	2153      	movs	r1, #83	; 0x53
 800243c:	187b      	adds	r3, r7, r1
 800243e:	781a      	ldrb	r2, [r3, #0]
 8002440:	187b      	adds	r3, r7, r1
 8002442:	3201      	adds	r2, #1
 8002444:	701a      	strb	r2, [r3, #0]
                    if ((A + B + C) == 3) {
 8002446:	2352      	movs	r3, #82	; 0x52
 8002448:	18fb      	adds	r3, r7, r3
 800244a:	781a      	ldrb	r2, [r3, #0]
 800244c:	2351      	movs	r3, #81	; 0x51
 800244e:	18fb      	adds	r3, r7, r3
 8002450:	781b      	ldrb	r3, [r3, #0]
 8002452:	18d2      	adds	r2, r2, r3
 8002454:	2350      	movs	r3, #80	; 0x50
 8002456:	18fb      	adds	r3, r7, r3
 8002458:	781b      	ldrb	r3, [r3, #0]
 800245a:	18d3      	adds	r3, r2, r3
 800245c:	2b03      	cmp	r3, #3
 800245e:	d006      	beq.n	800246e <main+0x83a>
                        break;
                    }
                } while (loops < 15);
 8002460:	2353      	movs	r3, #83	; 0x53
 8002462:	18fb      	adds	r3, r7, r3
 8002464:	781b      	ldrb	r3, [r3, #0]
 8002466:	2b0e      	cmp	r3, #14
 8002468:	d800      	bhi.n	800246c <main+0x838>
 800246a:	e741      	b.n	80022f0 <main+0x6bc>
 800246c:	e000      	b.n	8002470 <main+0x83c>
                        break;
 800246e:	46c0      	nop			; (mov r8, r8)
                print_joint();
 8002470:	f000 fbd8 	bl	8002c24 <print_joint>
            }
            lora_mode_sleep( & lora);
 8002474:	2328      	movs	r3, #40	; 0x28
 8002476:	18fb      	adds	r3, r7, r3
 8002478:	0018      	movs	r0, r3
 800247a:	f7ff f84d 	bl	8001518 <lora_mode_sleep>

            if (HAL_GPIO_ReadPin(SW2_GPIO_Port, SW2_Pin) == 0) {
 800247e:	2390      	movs	r3, #144	; 0x90
 8002480:	05db      	lsls	r3, r3, #23
 8002482:	2104      	movs	r1, #4
 8002484:	0018      	movs	r0, r3
 8002486:	f001 fc57 	bl	8003d38 <HAL_GPIO_ReadPin>

            }

            break;
 800248a:	e1d6      	b.n	800283a <main+0xc06>
        case 2:
            if (HAL_GPIO_ReadPin(SW0_GPIO_Port, SW0_Pin) == 0) {
 800248c:	2390      	movs	r3, #144	; 0x90
 800248e:	05db      	lsls	r3, r3, #23
 8002490:	2101      	movs	r1, #1
 8002492:	0018      	movs	r0, r3
 8002494:	f001 fc50 	bl	8003d38 <HAL_GPIO_ReadPin>
 8002498:	1e03      	subs	r3, r0, #0
 800249a:	d12e      	bne.n	80024fa <main+0x8c6>
                _delay_ms(DEBOUNCE);
 800249c:	2396      	movs	r3, #150	; 0x96
 800249e:	005b      	lsls	r3, r3, #1
 80024a0:	0018      	movs	r0, r3
 80024a2:	f000 fd9f 	bl	8002fe4 <_delay_ms>
                if (HAL_GPIO_ReadPin(SW0_GPIO_Port, SW0_Pin) == 0) {
 80024a6:	2390      	movs	r3, #144	; 0x90
 80024a8:	05db      	lsls	r3, r3, #23
 80024aa:	2101      	movs	r1, #1
 80024ac:	0018      	movs	r0, r3
 80024ae:	f001 fc43 	bl	8003d38 <HAL_GPIO_ReadPin>
 80024b2:	1e03      	subs	r3, r0, #0
 80024b4:	d11f      	bne.n	80024f6 <main+0x8c2>
                    _delay_ms(DEBOUNCE);
 80024b6:	2396      	movs	r3, #150	; 0x96
 80024b8:	005b      	lsls	r3, r3, #1
 80024ba:	0018      	movs	r0, r3
 80024bc:	f000 fd92 	bl	8002fe4 <_delay_ms>
                    lcd_command(CLEAR);
 80024c0:	2001      	movs	r0, #1
 80024c2:	f7fe f8a3 	bl	800060c <lcd_command>
                    lcd_putstring("Live mode");
 80024c6:	4b7c      	ldr	r3, [pc, #496]	; (80026b8 <main+0xa84>)
 80024c8:	0018      	movs	r0, r3
 80024ca:	f7fe fa85 	bl	80009d8 <lcd_putstring>
                    _delay_ms(1000);
 80024ce:	23fa      	movs	r3, #250	; 0xfa
 80024d0:	009b      	lsls	r3, r3, #2
 80024d2:	0018      	movs	r0, r3
 80024d4:	f000 fd86 	bl	8002fe4 <_delay_ms>
                    PROGRAM = 3;
 80024d8:	2357      	movs	r3, #87	; 0x57
 80024da:	18fb      	adds	r3, r7, r3
 80024dc:	2203      	movs	r2, #3
 80024de:	701a      	strb	r2, [r3, #0]
                    mrf_address16_write(0x0001);
 80024e0:	2001      	movs	r0, #1
 80024e2:	f7fe fbcd 	bl	8000c80 <mrf_address16_write>
                    mrf_promiscuous(0);
 80024e6:	2000      	movs	r0, #0
 80024e8:	f7fe fbfd 	bl	8000ce6 <mrf_promiscuous>
                    printf("Set as transmitter.\n");
 80024ec:	4b73      	ldr	r3, [pc, #460]	; (80026bc <main+0xa88>)
 80024ee:	0018      	movs	r0, r3
 80024f0:	f004 fafc 	bl	8006aec <puts>
                    continue;
 80024f4:	e1a4      	b.n	8002840 <main+0xc0c>
                }
                print_count();
 80024f6:	f000 fc15 	bl	8002d24 <print_count>
            }
            uint8_t buffer[32];
            uint8_t res;
            lora_mode_receive_continious( & lora);
 80024fa:	2428      	movs	r4, #40	; 0x28
 80024fc:	193b      	adds	r3, r7, r4
 80024fe:	0018      	movs	r0, r3
 8002500:	f7ff f817 	bl	8001532 <lora_mode_receive_continious>
            lora_receive_packet_blocking( & lora, buffer, sizeof(buffer), 5000, & res);
 8002504:	4a6e      	ldr	r2, [pc, #440]	; (80026c0 <main+0xa8c>)
 8002506:	0039      	movs	r1, r7
 8002508:	1938      	adds	r0, r7, r4
 800250a:	2427      	movs	r4, #39	; 0x27
 800250c:	193b      	adds	r3, r7, r4
 800250e:	9300      	str	r3, [sp, #0]
 8002510:	0013      	movs	r3, r2
 8002512:	2220      	movs	r2, #32
 8002514:	f7ff faed 	bl	8001af2 <lora_receive_packet_blocking>
            if (res == LORA_OK) {
 8002518:	193b      	adds	r3, r7, r4
 800251a:	781b      	ldrb	r3, [r3, #0]
 800251c:	2b00      	cmp	r3, #0
 800251e:	d107      	bne.n	8002530 <main+0x8fc>
                count_lora++;
 8002520:	4b68      	ldr	r3, [pc, #416]	; (80026c4 <main+0xa90>)
 8002522:	781b      	ldrb	r3, [r3, #0]
 8002524:	3301      	adds	r3, #1
 8002526:	b2da      	uxtb	r2, r3
 8002528:	4b66      	ldr	r3, [pc, #408]	; (80026c4 <main+0xa90>)
 800252a:	701a      	strb	r2, [r3, #0]
                print_count();
 800252c:	f000 fbfa 	bl	8002d24 <print_count>
            }
            mrf_check_flags( & handle_rx, & handle_tx);
 8002530:	4a65      	ldr	r2, [pc, #404]	; (80026c8 <main+0xa94>)
 8002532:	4b66      	ldr	r3, [pc, #408]	; (80026cc <main+0xa98>)
 8002534:	0011      	movs	r1, r2
 8002536:	0018      	movs	r0, r3
 8002538:	f7fe fe20 	bl	800117c <mrf_check_flags>
            if (HAL_GPIO_ReadPin(MRF_INT_GPIO_Port, MRF_INT_Pin) == 0) {
 800253c:	4b64      	ldr	r3, [pc, #400]	; (80026d0 <main+0xa9c>)
 800253e:	2104      	movs	r1, #4
 8002540:	0018      	movs	r0, r3
 8002542:	f001 fbf9 	bl	8003d38 <HAL_GPIO_ReadPin>
 8002546:	1e03      	subs	r3, r0, #0
 8002548:	d000      	beq.n	800254c <main+0x918>
 800254a:	e175      	b.n	8002838 <main+0xc04>
                mrf_interrupt_handler();
 800254c:	f7fe fd14 	bl	8000f78 <mrf_interrupt_handler>
                count_mrf++;
 8002550:	4b60      	ldr	r3, [pc, #384]	; (80026d4 <main+0xaa0>)
 8002552:	781b      	ldrb	r3, [r3, #0]
 8002554:	3301      	adds	r3, #1
 8002556:	b2da      	uxtb	r2, r3
 8002558:	4b5e      	ldr	r3, [pc, #376]	; (80026d4 <main+0xaa0>)
 800255a:	701a      	strb	r2, [r3, #0]
            }
            break;
 800255c:	e16c      	b.n	8002838 <main+0xc04>
        case 3:
            if (HAL_GPIO_ReadPin(SW0_GPIO_Port, SW0_Pin) == 0) {
 800255e:	2390      	movs	r3, #144	; 0x90
 8002560:	05db      	lsls	r3, r3, #23
 8002562:	2101      	movs	r1, #1
 8002564:	0018      	movs	r0, r3
 8002566:	f001 fbe7 	bl	8003d38 <HAL_GPIO_ReadPin>
 800256a:	1e03      	subs	r3, r0, #0
 800256c:	d132      	bne.n	80025d4 <main+0x9a0>
                _delay_ms(DEBOUNCE);
 800256e:	2396      	movs	r3, #150	; 0x96
 8002570:	005b      	lsls	r3, r3, #1
 8002572:	0018      	movs	r0, r3
 8002574:	f000 fd36 	bl	8002fe4 <_delay_ms>
                if (HAL_GPIO_ReadPin(SW0_GPIO_Port, SW0_Pin) == 0) {
 8002578:	2390      	movs	r3, #144	; 0x90
 800257a:	05db      	lsls	r3, r3, #23
 800257c:	2101      	movs	r1, #1
 800257e:	0018      	movs	r0, r3
 8002580:	f001 fbda 	bl	8003d38 <HAL_GPIO_ReadPin>
 8002584:	1e03      	subs	r3, r0, #0
 8002586:	d123      	bne.n	80025d0 <main+0x99c>
                    _delay_ms(DEBOUNCE);
 8002588:	2396      	movs	r3, #150	; 0x96
 800258a:	005b      	lsls	r3, r3, #1
 800258c:	0018      	movs	r0, r3
 800258e:	f000 fd29 	bl	8002fe4 <_delay_ms>
                    lcd_command(CLEAR);
 8002592:	2001      	movs	r0, #1
 8002594:	f7fe f83a 	bl	800060c <lcd_command>
                    lcd_putstring("Transmit mode");
 8002598:	4b4f      	ldr	r3, [pc, #316]	; (80026d8 <main+0xaa4>)
 800259a:	0018      	movs	r0, r3
 800259c:	f7fe fa1c 	bl	80009d8 <lcd_putstring>
                    _delay_ms(MAX_WAIT);
 80025a0:	23fa      	movs	r3, #250	; 0xfa
 80025a2:	009b      	lsls	r3, r3, #2
 80025a4:	0018      	movs	r0, r3
 80025a6:	f000 fd1d 	bl	8002fe4 <_delay_ms>
                    PROGRAM = 4;
 80025aa:	2357      	movs	r3, #87	; 0x57
 80025ac:	18fb      	adds	r3, r7, r3
 80025ae:	2204      	movs	r2, #4
 80025b0:	701a      	strb	r2, [r3, #0]
                    mrf_reset();
 80025b2:	f000 fc5b 	bl	8002e6c <mrf_reset>
                    mrf_init();
 80025b6:	f7fe fc7b 	bl	8000eb0 <mrf_init>
					mrf_set_ignorebytes(2);
 80025ba:	2002      	movs	r0, #2
 80025bc:	f7fe fb50 	bl	8000c60 <mrf_set_ignorebytes>
					mrf_pan_write(0xFFFF);
 80025c0:	4b46      	ldr	r3, [pc, #280]	; (80026dc <main+0xaa8>)
 80025c2:	0018      	movs	r0, r3
 80025c4:	f7fe fb31 	bl	8000c2a <mrf_pan_write>
					mrf_address16_write(0x0001);
 80025c8:	2001      	movs	r0, #1
 80025ca:	f7fe fb59 	bl	8000c80 <mrf_address16_write>
                    continue;
 80025ce:	e137      	b.n	8002840 <main+0xc0c>
                }
                print_live();
 80025d0:	f000 fbde 	bl	8002d90 <print_live>
            }
            uint8_t p = count_lora;
 80025d4:	244c      	movs	r4, #76	; 0x4c
 80025d6:	193b      	adds	r3, r7, r4
 80025d8:	4a3a      	ldr	r2, [pc, #232]	; (80026c4 <main+0xa90>)
 80025da:	7812      	ldrb	r2, [r2, #0]
 80025dc:	701a      	strb	r2, [r3, #0]
            receive_lora(lora);
 80025de:	2328      	movs	r3, #40	; 0x28
 80025e0:	18fb      	adds	r3, r7, r3
 80025e2:	466a      	mov	r2, sp
 80025e4:	0011      	movs	r1, r2
 80025e6:	001a      	movs	r2, r3
 80025e8:	3210      	adds	r2, #16
 80025ea:	ca61      	ldmia	r2!, {r0, r5, r6}
 80025ec:	c161      	stmia	r1!, {r0, r5, r6}
 80025ee:	6818      	ldr	r0, [r3, #0]
 80025f0:	6859      	ldr	r1, [r3, #4]
 80025f2:	689a      	ldr	r2, [r3, #8]
 80025f4:	68db      	ldr	r3, [r3, #12]
 80025f6:	f000 fdc1 	bl	800317c <receive_lora>

            if (p != count_lora) {
 80025fa:	4b32      	ldr	r3, [pc, #200]	; (80026c4 <main+0xa90>)
 80025fc:	781b      	ldrb	r3, [r3, #0]
 80025fe:	193a      	adds	r2, r7, r4
 8002600:	7812      	ldrb	r2, [r2, #0]
 8002602:	429a      	cmp	r2, r3
 8002604:	d00f      	beq.n	8002626 <main+0x9f2>
                live_vals[3] = live_vals[2];
 8002606:	4b36      	ldr	r3, [pc, #216]	; (80026e0 <main+0xaac>)
 8002608:	789a      	ldrb	r2, [r3, #2]
 800260a:	4b35      	ldr	r3, [pc, #212]	; (80026e0 <main+0xaac>)
 800260c:	70da      	strb	r2, [r3, #3]
                live_vals[2] = live_vals[1];
 800260e:	4b34      	ldr	r3, [pc, #208]	; (80026e0 <main+0xaac>)
 8002610:	785a      	ldrb	r2, [r3, #1]
 8002612:	4b33      	ldr	r3, [pc, #204]	; (80026e0 <main+0xaac>)
 8002614:	709a      	strb	r2, [r3, #2]
                live_vals[1] = live_vals[0];
 8002616:	4b32      	ldr	r3, [pc, #200]	; (80026e0 <main+0xaac>)
 8002618:	781a      	ldrb	r2, [r3, #0]
 800261a:	4b31      	ldr	r3, [pc, #196]	; (80026e0 <main+0xaac>)
 800261c:	705a      	strb	r2, [r3, #1]
                live_vals[0] = last_lora_rssi;
 800261e:	4b31      	ldr	r3, [pc, #196]	; (80026e4 <main+0xab0>)
 8002620:	781a      	ldrb	r2, [r3, #0]
 8002622:	4b2f      	ldr	r3, [pc, #188]	; (80026e0 <main+0xaac>)
 8002624:	701a      	strb	r2, [r3, #0]
            }

            print_live();
 8002626:	f000 fbb3 	bl	8002d90 <print_live>
            _delay_ms(500);
 800262a:	23fa      	movs	r3, #250	; 0xfa
 800262c:	005b      	lsls	r3, r3, #1
 800262e:	0018      	movs	r0, r3
 8002630:	f000 fcd8 	bl	8002fe4 <_delay_ms>
            break;
 8002634:	e101      	b.n	800283a <main+0xc06>
        case 4:
            if (HAL_GPIO_ReadPin(SW0_GPIO_Port, SW0_Pin) == 0) {
 8002636:	2390      	movs	r3, #144	; 0x90
 8002638:	05db      	lsls	r3, r3, #23
 800263a:	2101      	movs	r1, #1
 800263c:	0018      	movs	r0, r3
 800263e:	f001 fb7b 	bl	8003d38 <HAL_GPIO_ReadPin>
 8002642:	1e03      	subs	r3, r0, #0
 8002644:	d168      	bne.n	8002718 <main+0xae4>
                _delay_ms(DEBOUNCE);
 8002646:	2396      	movs	r3, #150	; 0x96
 8002648:	005b      	lsls	r3, r3, #1
 800264a:	0018      	movs	r0, r3
 800264c:	f000 fcca 	bl	8002fe4 <_delay_ms>
                if (HAL_GPIO_ReadPin(SW1_GPIO_Port, SW1_Pin) == 0) {
 8002650:	2390      	movs	r3, #144	; 0x90
 8002652:	05db      	lsls	r3, r3, #23
 8002654:	2102      	movs	r1, #2
 8002656:	0018      	movs	r0, r3
 8002658:	f001 fb6e 	bl	8003d38 <HAL_GPIO_ReadPin>
 800265c:	1e03      	subs	r3, r0, #0
 800265e:	d145      	bne.n	80026ec <main+0xab8>
                    _delay_ms(DEBOUNCE);
 8002660:	2396      	movs	r3, #150	; 0x96
 8002662:	005b      	lsls	r3, r3, #1
 8002664:	0018      	movs	r0, r3
 8002666:	f000 fcbd 	bl	8002fe4 <_delay_ms>
                    lcd_command(CLEAR);
 800266a:	2001      	movs	r0, #1
 800266c:	f7fd ffce 	bl	800060c <lcd_command>
                    lcd_putstring("Going to joint");
 8002670:	4b1d      	ldr	r3, [pc, #116]	; (80026e8 <main+0xab4>)
 8002672:	0018      	movs	r0, r3
 8002674:	f7fe f9b0 	bl	80009d8 <lcd_putstring>
                    _delay_ms(1000);
 8002678:	23fa      	movs	r3, #250	; 0xfa
 800267a:	009b      	lsls	r3, r3, #2
 800267c:	0018      	movs	r0, r3
 800267e:	f000 fcb1 	bl	8002fe4 <_delay_ms>
                    PROGRAM = 0;
 8002682:	2357      	movs	r3, #87	; 0x57
 8002684:	18fb      	adds	r3, r7, r3
 8002686:	2200      	movs	r2, #0
 8002688:	701a      	strb	r2, [r3, #0]
                    mrf_reset();
 800268a:	f000 fbef 	bl	8002e6c <mrf_reset>
					mrf_init();
 800268e:	f7fe fc0f 	bl	8000eb0 <mrf_init>
					mrf_set_ignorebytes(2);
 8002692:	2002      	movs	r0, #2
 8002694:	f7fe fae4 	bl	8000c60 <mrf_set_ignorebytes>
					mrf_pan_write(0xFFFF);
 8002698:	4b10      	ldr	r3, [pc, #64]	; (80026dc <main+0xaa8>)
 800269a:	0018      	movs	r0, r3
 800269c:	f7fe fac5 	bl	8000c2a <mrf_pan_write>
					mrf_promiscuous(1);
 80026a0:	2001      	movs	r0, #1
 80026a2:	f7fe fb20 	bl	8000ce6 <mrf_promiscuous>
					mrf_address16_write(0xFFFF);
 80026a6:	4b0d      	ldr	r3, [pc, #52]	; (80026dc <main+0xaa8>)
 80026a8:	0018      	movs	r0, r3
 80026aa:	f7fe fae9 	bl	8000c80 <mrf_address16_write>
                    continue;
 80026ae:	46c0      	nop			; (mov r8, r8)
 80026b0:	e0c6      	b.n	8002840 <main+0xc0c>
 80026b2:	46c0      	nop			; (mov r8, r8)
 80026b4:	08007cdc 	.word	0x08007cdc
 80026b8:	08007ce0 	.word	0x08007ce0
 80026bc:	08007cec 	.word	0x08007cec
 80026c0:	00001388 	.word	0x00001388
 80026c4:	2000011f 	.word	0x2000011f
 80026c8:	08002ee5 	.word	0x08002ee5
 80026cc:	08002ea1 	.word	0x08002ea1
 80026d0:	48000400 	.word	0x48000400
 80026d4:	20000120 	.word	0x20000120
 80026d8:	08007d00 	.word	0x08007d00
 80026dc:	0000ffff 	.word	0x0000ffff
 80026e0:	2000012c 	.word	0x2000012c
 80026e4:	20000122 	.word	0x20000122
 80026e8:	08007d10 	.word	0x08007d10
                }

                if (DEVICE_ID[0] != "A") {
 80026ec:	4b55      	ldr	r3, [pc, #340]	; (8002844 <main+0xc10>)
 80026ee:	781b      	ldrb	r3, [r3, #0]
 80026f0:	001a      	movs	r2, r3
 80026f2:	4b55      	ldr	r3, [pc, #340]	; (8002848 <main+0xc14>)
 80026f4:	429a      	cmp	r2, r3
 80026f6:	d00f      	beq.n	8002718 <main+0xae4>
                    DEVICE_ID[0] = "A";
 80026f8:	4b53      	ldr	r3, [pc, #332]	; (8002848 <main+0xc14>)
 80026fa:	b2da      	uxtb	r2, r3
 80026fc:	4b51      	ldr	r3, [pc, #324]	; (8002844 <main+0xc10>)
 80026fe:	701a      	strb	r2, [r3, #0]
                    lcd_command(CLEAR);
 8002700:	2001      	movs	r0, #1
 8002702:	f7fd ff83 	bl	800060c <lcd_command>
                    lcd_putstring("Mimicking A");
 8002706:	4b51      	ldr	r3, [pc, #324]	; (800284c <main+0xc18>)
 8002708:	0018      	movs	r0, r3
 800270a:	f7fe f965 	bl	80009d8 <lcd_putstring>
                    _delay_ms(1000);
 800270e:	23fa      	movs	r3, #250	; 0xfa
 8002710:	009b      	lsls	r3, r3, #2
 8002712:	0018      	movs	r0, r3
 8002714:	f000 fc66 	bl	8002fe4 <_delay_ms>
                }
            }
            if (HAL_GPIO_ReadPin(SW1_GPIO_Port, SW1_Pin) == 0) {
 8002718:	2390      	movs	r3, #144	; 0x90
 800271a:	05db      	lsls	r3, r3, #23
 800271c:	2102      	movs	r1, #2
 800271e:	0018      	movs	r0, r3
 8002720:	f001 fb0a 	bl	8003d38 <HAL_GPIO_ReadPin>
 8002724:	1e03      	subs	r3, r0, #0
 8002726:	d11a      	bne.n	800275e <main+0xb2a>
                _delay_ms(DEBOUNCE);
 8002728:	2396      	movs	r3, #150	; 0x96
 800272a:	005b      	lsls	r3, r3, #1
 800272c:	0018      	movs	r0, r3
 800272e:	f000 fc59 	bl	8002fe4 <_delay_ms>
                if (DEVICE_ID[0] != "B") {
 8002732:	4b44      	ldr	r3, [pc, #272]	; (8002844 <main+0xc10>)
 8002734:	781b      	ldrb	r3, [r3, #0]
 8002736:	001a      	movs	r2, r3
 8002738:	4b45      	ldr	r3, [pc, #276]	; (8002850 <main+0xc1c>)
 800273a:	429a      	cmp	r2, r3
 800273c:	d00f      	beq.n	800275e <main+0xb2a>
                    DEVICE_ID[0] = "B";
 800273e:	4b44      	ldr	r3, [pc, #272]	; (8002850 <main+0xc1c>)
 8002740:	b2da      	uxtb	r2, r3
 8002742:	4b40      	ldr	r3, [pc, #256]	; (8002844 <main+0xc10>)
 8002744:	701a      	strb	r2, [r3, #0]
                    lcd_command(CLEAR);
 8002746:	2001      	movs	r0, #1
 8002748:	f7fd ff60 	bl	800060c <lcd_command>
                    lcd_putstring("Mimicking B");
 800274c:	4b41      	ldr	r3, [pc, #260]	; (8002854 <main+0xc20>)
 800274e:	0018      	movs	r0, r3
 8002750:	f7fe f942 	bl	80009d8 <lcd_putstring>
                    _delay_ms(1000);
 8002754:	23fa      	movs	r3, #250	; 0xfa
 8002756:	009b      	lsls	r3, r3, #2
 8002758:	0018      	movs	r0, r3
 800275a:	f000 fc43 	bl	8002fe4 <_delay_ms>
                }
            }
            if (HAL_GPIO_ReadPin(SW2_GPIO_Port, SW2_Pin) == 0) {
 800275e:	2390      	movs	r3, #144	; 0x90
 8002760:	05db      	lsls	r3, r3, #23
 8002762:	2104      	movs	r1, #4
 8002764:	0018      	movs	r0, r3
 8002766:	f001 fae7 	bl	8003d38 <HAL_GPIO_ReadPin>
 800276a:	1e03      	subs	r3, r0, #0
 800276c:	d11a      	bne.n	80027a4 <main+0xb70>
                _delay_ms(DEBOUNCE);
 800276e:	2396      	movs	r3, #150	; 0x96
 8002770:	005b      	lsls	r3, r3, #1
 8002772:	0018      	movs	r0, r3
 8002774:	f000 fc36 	bl	8002fe4 <_delay_ms>
                if (DEVICE_ID[0] != "C") {
 8002778:	4b32      	ldr	r3, [pc, #200]	; (8002844 <main+0xc10>)
 800277a:	781b      	ldrb	r3, [r3, #0]
 800277c:	001a      	movs	r2, r3
 800277e:	4b36      	ldr	r3, [pc, #216]	; (8002858 <main+0xc24>)
 8002780:	429a      	cmp	r2, r3
 8002782:	d00f      	beq.n	80027a4 <main+0xb70>
                    DEVICE_ID[0] = "C";
 8002784:	4b34      	ldr	r3, [pc, #208]	; (8002858 <main+0xc24>)
 8002786:	b2da      	uxtb	r2, r3
 8002788:	4b2e      	ldr	r3, [pc, #184]	; (8002844 <main+0xc10>)
 800278a:	701a      	strb	r2, [r3, #0]
                    lcd_command(CLEAR);
 800278c:	2001      	movs	r0, #1
 800278e:	f7fd ff3d 	bl	800060c <lcd_command>
                    lcd_putstring("Mimicking C");
 8002792:	4b32      	ldr	r3, [pc, #200]	; (800285c <main+0xc28>)
 8002794:	0018      	movs	r0, r3
 8002796:	f7fe f91f 	bl	80009d8 <lcd_putstring>
                    _delay_ms(1000);
 800279a:	23fa      	movs	r3, #250	; 0xfa
 800279c:	009b      	lsls	r3, r3, #2
 800279e:	0018      	movs	r0, r3
 80027a0:	f000 fc20 	bl	8002fe4 <_delay_ms>
                }
            }
            if (HAL_GPIO_ReadPin(SW3_GPIO_Port, SW3_Pin) == 0) {
 80027a4:	2390      	movs	r3, #144	; 0x90
 80027a6:	05db      	lsls	r3, r3, #23
 80027a8:	2108      	movs	r1, #8
 80027aa:	0018      	movs	r0, r3
 80027ac:	f001 fac4 	bl	8003d38 <HAL_GPIO_ReadPin>
 80027b0:	1e03      	subs	r3, r0, #0
 80027b2:	d11a      	bne.n	80027ea <main+0xbb6>
                _delay_ms(DEBOUNCE);
 80027b4:	2396      	movs	r3, #150	; 0x96
 80027b6:	005b      	lsls	r3, r3, #1
 80027b8:	0018      	movs	r0, r3
 80027ba:	f000 fc13 	bl	8002fe4 <_delay_ms>
                if (DEVICE_ID[0] != "D") {
 80027be:	4b21      	ldr	r3, [pc, #132]	; (8002844 <main+0xc10>)
 80027c0:	781b      	ldrb	r3, [r3, #0]
 80027c2:	001a      	movs	r2, r3
 80027c4:	4b26      	ldr	r3, [pc, #152]	; (8002860 <main+0xc2c>)
 80027c6:	429a      	cmp	r2, r3
 80027c8:	d00f      	beq.n	80027ea <main+0xbb6>
                    DEVICE_ID[0] = "D";
 80027ca:	4b25      	ldr	r3, [pc, #148]	; (8002860 <main+0xc2c>)
 80027cc:	b2da      	uxtb	r2, r3
 80027ce:	4b1d      	ldr	r3, [pc, #116]	; (8002844 <main+0xc10>)
 80027d0:	701a      	strb	r2, [r3, #0]
                    lcd_command(CLEAR);
 80027d2:	2001      	movs	r0, #1
 80027d4:	f7fd ff1a 	bl	800060c <lcd_command>
                    lcd_putstring("Mimicking D");
 80027d8:	4b22      	ldr	r3, [pc, #136]	; (8002864 <main+0xc30>)
 80027da:	0018      	movs	r0, r3
 80027dc:	f7fe f8fc 	bl	80009d8 <lcd_putstring>
                    _delay_ms(1000);
 80027e0:	23fa      	movs	r3, #250	; 0xfa
 80027e2:	009b      	lsls	r3, r3, #2
 80027e4:	0018      	movs	r0, r3
 80027e6:	f000 fbfd 	bl	8002fe4 <_delay_ms>
                }
            }

            _delay_ms(1000);
 80027ea:	23fa      	movs	r3, #250	; 0xfa
 80027ec:	009b      	lsls	r3, r3, #2
 80027ee:	0018      	movs	r0, r3
 80027f0:	f000 fbf8 	bl	8002fe4 <_delay_ms>
            lcd_command(CLEAR);
 80027f4:	2001      	movs	r0, #1
 80027f6:	f7fd ff09 	bl	800060c <lcd_command>
            transmit_mrf();
 80027fa:	f000 fbff 	bl	8002ffc <transmit_mrf>
            transmit_lora(lora);
 80027fe:	2328      	movs	r3, #40	; 0x28
 8002800:	18fb      	adds	r3, r7, r3
 8002802:	466a      	mov	r2, sp
 8002804:	0011      	movs	r1, r2
 8002806:	001a      	movs	r2, r3
 8002808:	3210      	adds	r2, #16
 800280a:	ca31      	ldmia	r2!, {r0, r4, r5}
 800280c:	c131      	stmia	r1!, {r0, r4, r5}
 800280e:	6818      	ldr	r0, [r3, #0]
 8002810:	6859      	ldr	r1, [r3, #4]
 8002812:	689a      	ldr	r2, [r3, #8]
 8002814:	68db      	ldr	r3, [r3, #12]
 8002816:	f000 fc35 	bl	8003084 <transmit_lora>

            break;
 800281a:	e00e      	b.n	800283a <main+0xc06>
        default:
        	PROGRAM = 0;
 800281c:	2357      	movs	r3, #87	; 0x57
 800281e:	18fb      	adds	r3, r7, r3
 8002820:	2200      	movs	r2, #0
 8002822:	701a      	strb	r2, [r3, #0]
        	lcd_command(CLEAR);
 8002824:	2001      	movs	r0, #1
 8002826:	f7fd fef1 	bl	800060c <lcd_command>
			lcd_putstring("Going to joint");
 800282a:	4b0f      	ldr	r3, [pc, #60]	; (8002868 <main+0xc34>)
 800282c:	0018      	movs	r0, r3
 800282e:	f7fe f8d3 	bl	80009d8 <lcd_putstring>
            break;
 8002832:	e002      	b.n	800283a <main+0xc06>
            break;
 8002834:	46c0      	nop			; (mov r8, r8)
 8002836:	e000      	b.n	800283a <main+0xc06>
            break;
 8002838:	46c0      	nop			; (mov r8, r8)
        }
        _delay_ms(10);
 800283a:	200a      	movs	r0, #10
 800283c:	f000 fbd2 	bl	8002fe4 <_delay_ms>
        switch (PROGRAM) {
 8002840:	f7ff fae5 	bl	8001e0e <main+0x1da>
 8002844:	20000000 	.word	0x20000000
 8002848:	08007ca8 	.word	0x08007ca8
 800284c:	08007d20 	.word	0x08007d20
 8002850:	08007cc0 	.word	0x08007cc0
 8002854:	08007d2c 	.word	0x08007d2c
 8002858:	08007cd8 	.word	0x08007cd8
 800285c:	08007d38 	.word	0x08007d38
 8002860:	08007d44 	.word	0x08007d44
 8002864:	08007d48 	.word	0x08007d48
 8002868:	08007d10 	.word	0x08007d10

0800286c <SystemClock_Config>:

/**
 * @brief System Clock Configuration
 * @retval None
 */
void SystemClock_Config(void) {
 800286c:	b590      	push	{r4, r7, lr}
 800286e:	b091      	sub	sp, #68	; 0x44
 8002870:	af00      	add	r7, sp, #0
    RCC_OscInitTypeDef RCC_OscInitStruct = {
 8002872:	2410      	movs	r4, #16
 8002874:	193b      	adds	r3, r7, r4
 8002876:	0018      	movs	r0, r3
 8002878:	2330      	movs	r3, #48	; 0x30
 800287a:	001a      	movs	r2, r3
 800287c:	2100      	movs	r1, #0
 800287e:	f004 f89f 	bl	80069c0 <memset>
        0
    };
    RCC_ClkInitTypeDef RCC_ClkInitStruct = {
 8002882:	003b      	movs	r3, r7
 8002884:	0018      	movs	r0, r3
 8002886:	2310      	movs	r3, #16
 8002888:	001a      	movs	r2, r3
 800288a:	2100      	movs	r1, #0
 800288c:	f004 f898 	bl	80069c0 <memset>
    };

    /** Initializes the RCC Oscillators according to the specified parameters
     * in the RCC_OscInitTypeDef structure.
     */
    RCC_OscInitStruct.OscillatorType = RCC_OSCILLATORTYPE_HSI;
 8002890:	0021      	movs	r1, r4
 8002892:	187b      	adds	r3, r7, r1
 8002894:	2202      	movs	r2, #2
 8002896:	601a      	str	r2, [r3, #0]
    RCC_OscInitStruct.HSIState = RCC_HSI_ON;
 8002898:	187b      	adds	r3, r7, r1
 800289a:	2201      	movs	r2, #1
 800289c:	60da      	str	r2, [r3, #12]
    RCC_OscInitStruct.HSICalibrationValue = RCC_HSICALIBRATION_DEFAULT;
 800289e:	187b      	adds	r3, r7, r1
 80028a0:	2210      	movs	r2, #16
 80028a2:	611a      	str	r2, [r3, #16]
    RCC_OscInitStruct.PLL.PLLState = RCC_PLL_NONE;
 80028a4:	187b      	adds	r3, r7, r1
 80028a6:	2200      	movs	r2, #0
 80028a8:	621a      	str	r2, [r3, #32]
    if (HAL_RCC_OscConfig( & RCC_OscInitStruct) != HAL_OK) {
 80028aa:	187b      	adds	r3, r7, r1
 80028ac:	0018      	movs	r0, r3
 80028ae:	f001 fa7d 	bl	8003dac <HAL_RCC_OscConfig>
 80028b2:	1e03      	subs	r3, r0, #0
 80028b4:	d001      	beq.n	80028ba <SystemClock_Config+0x4e>
        Error_Handler();
 80028b6:	f000 fcf5 	bl	80032a4 <Error_Handler>
    }
    /** Initializes the CPU, AHB and APB buses clocks
     */
    RCC_ClkInitStruct.ClockType = RCC_CLOCKTYPE_HCLK | RCC_CLOCKTYPE_SYSCLK |
 80028ba:	003b      	movs	r3, r7
 80028bc:	2207      	movs	r2, #7
 80028be:	601a      	str	r2, [r3, #0]
        RCC_CLOCKTYPE_PCLK1;
    RCC_ClkInitStruct.SYSCLKSource = RCC_SYSCLKSOURCE_HSI;
 80028c0:	003b      	movs	r3, r7
 80028c2:	2200      	movs	r2, #0
 80028c4:	605a      	str	r2, [r3, #4]
    RCC_ClkInitStruct.AHBCLKDivider = RCC_SYSCLK_DIV1;
 80028c6:	003b      	movs	r3, r7
 80028c8:	2200      	movs	r2, #0
 80028ca:	609a      	str	r2, [r3, #8]
    RCC_ClkInitStruct.APB1CLKDivider = RCC_HCLK_DIV1;
 80028cc:	003b      	movs	r3, r7
 80028ce:	2200      	movs	r2, #0
 80028d0:	60da      	str	r2, [r3, #12]

    if (HAL_RCC_ClockConfig( & RCC_ClkInitStruct, FLASH_LATENCY_0) != HAL_OK) {
 80028d2:	003b      	movs	r3, r7
 80028d4:	2100      	movs	r1, #0
 80028d6:	0018      	movs	r0, r3
 80028d8:	f001 fd84 	bl	80043e4 <HAL_RCC_ClockConfig>
 80028dc:	1e03      	subs	r3, r0, #0
 80028de:	d001      	beq.n	80028e4 <SystemClock_Config+0x78>
        Error_Handler();
 80028e0:	f000 fce0 	bl	80032a4 <Error_Handler>
    }
}
 80028e4:	46c0      	nop			; (mov r8, r8)
 80028e6:	46bd      	mov	sp, r7
 80028e8:	b011      	add	sp, #68	; 0x44
 80028ea:	bd90      	pop	{r4, r7, pc}

080028ec <MX_SPI1_Init>:
/**
 * @brief SPI1 Initialization Function
 * @param None
 * @retval None
 */
static void MX_SPI1_Init(void) {
 80028ec:	b580      	push	{r7, lr}
 80028ee:	af00      	add	r7, sp, #0

    /* USER CODE BEGIN SPI1_Init 1 */

    /* USER CODE END SPI1_Init 1 */
    /* SPI1 parameter configuration*/
    hspi1.Instance = SPI1;
 80028f0:	4b1b      	ldr	r3, [pc, #108]	; (8002960 <MX_SPI1_Init+0x74>)
 80028f2:	4a1c      	ldr	r2, [pc, #112]	; (8002964 <MX_SPI1_Init+0x78>)
 80028f4:	601a      	str	r2, [r3, #0]
    hspi1.Init.Mode = SPI_MODE_MASTER;
 80028f6:	4b1a      	ldr	r3, [pc, #104]	; (8002960 <MX_SPI1_Init+0x74>)
 80028f8:	2282      	movs	r2, #130	; 0x82
 80028fa:	0052      	lsls	r2, r2, #1
 80028fc:	605a      	str	r2, [r3, #4]
    hspi1.Init.Direction = SPI_DIRECTION_2LINES;
 80028fe:	4b18      	ldr	r3, [pc, #96]	; (8002960 <MX_SPI1_Init+0x74>)
 8002900:	2200      	movs	r2, #0
 8002902:	609a      	str	r2, [r3, #8]
    hspi1.Init.DataSize = SPI_DATASIZE_8BIT;
 8002904:	4b16      	ldr	r3, [pc, #88]	; (8002960 <MX_SPI1_Init+0x74>)
 8002906:	22e0      	movs	r2, #224	; 0xe0
 8002908:	00d2      	lsls	r2, r2, #3
 800290a:	60da      	str	r2, [r3, #12]
    hspi1.Init.CLKPolarity = SPI_POLARITY_LOW;
 800290c:	4b14      	ldr	r3, [pc, #80]	; (8002960 <MX_SPI1_Init+0x74>)
 800290e:	2200      	movs	r2, #0
 8002910:	611a      	str	r2, [r3, #16]
    hspi1.Init.CLKPhase = SPI_PHASE_1EDGE;
 8002912:	4b13      	ldr	r3, [pc, #76]	; (8002960 <MX_SPI1_Init+0x74>)
 8002914:	2200      	movs	r2, #0
 8002916:	615a      	str	r2, [r3, #20]
    hspi1.Init.NSS = SPI_NSS_SOFT;
 8002918:	4b11      	ldr	r3, [pc, #68]	; (8002960 <MX_SPI1_Init+0x74>)
 800291a:	2280      	movs	r2, #128	; 0x80
 800291c:	0092      	lsls	r2, r2, #2
 800291e:	619a      	str	r2, [r3, #24]
    hspi1.Init.BaudRatePrescaler = SPI_BAUDRATEPRESCALER_2;
 8002920:	4b0f      	ldr	r3, [pc, #60]	; (8002960 <MX_SPI1_Init+0x74>)
 8002922:	2200      	movs	r2, #0
 8002924:	61da      	str	r2, [r3, #28]
    hspi1.Init.FirstBit = SPI_FIRSTBIT_MSB;
 8002926:	4b0e      	ldr	r3, [pc, #56]	; (8002960 <MX_SPI1_Init+0x74>)
 8002928:	2200      	movs	r2, #0
 800292a:	621a      	str	r2, [r3, #32]
    hspi1.Init.TIMode = SPI_TIMODE_DISABLE;
 800292c:	4b0c      	ldr	r3, [pc, #48]	; (8002960 <MX_SPI1_Init+0x74>)
 800292e:	2200      	movs	r2, #0
 8002930:	625a      	str	r2, [r3, #36]	; 0x24
    hspi1.Init.CRCCalculation = SPI_CRCCALCULATION_DISABLE;
 8002932:	4b0b      	ldr	r3, [pc, #44]	; (8002960 <MX_SPI1_Init+0x74>)
 8002934:	2200      	movs	r2, #0
 8002936:	629a      	str	r2, [r3, #40]	; 0x28
    hspi1.Init.CRCPolynomial = 7;
 8002938:	4b09      	ldr	r3, [pc, #36]	; (8002960 <MX_SPI1_Init+0x74>)
 800293a:	2207      	movs	r2, #7
 800293c:	62da      	str	r2, [r3, #44]	; 0x2c
    hspi1.Init.CRCLength = SPI_CRC_LENGTH_DATASIZE;
 800293e:	4b08      	ldr	r3, [pc, #32]	; (8002960 <MX_SPI1_Init+0x74>)
 8002940:	2200      	movs	r2, #0
 8002942:	631a      	str	r2, [r3, #48]	; 0x30
    hspi1.Init.NSSPMode = SPI_NSS_PULSE_ENABLE;
 8002944:	4b06      	ldr	r3, [pc, #24]	; (8002960 <MX_SPI1_Init+0x74>)
 8002946:	2208      	movs	r2, #8
 8002948:	635a      	str	r2, [r3, #52]	; 0x34
    if (HAL_SPI_Init( & hspi1) != HAL_OK) {
 800294a:	4b05      	ldr	r3, [pc, #20]	; (8002960 <MX_SPI1_Init+0x74>)
 800294c:	0018      	movs	r0, r3
 800294e:	f001 fe9b 	bl	8004688 <HAL_SPI_Init>
 8002952:	1e03      	subs	r3, r0, #0
 8002954:	d001      	beq.n	800295a <MX_SPI1_Init+0x6e>
        Error_Handler();
 8002956:	f000 fca5 	bl	80032a4 <Error_Handler>
    }
    /* USER CODE BEGIN SPI1_Init 2 */

    /* USER CODE END SPI1_Init 2 */

}
 800295a:	46c0      	nop			; (mov r8, r8)
 800295c:	46bd      	mov	sp, r7
 800295e:	bd80      	pop	{r7, pc}
 8002960:	20000144 	.word	0x20000144
 8002964:	40013000 	.word	0x40013000

08002968 <MX_USART2_UART_Init>:
/**
 * @brief USART2 Initialization Function
 * @param None
 * @retval None
 */
static void MX_USART2_UART_Init(void) {
 8002968:	b580      	push	{r7, lr}
 800296a:	af00      	add	r7, sp, #0
    /* USER CODE END USART2_Init 0 */

    /* USER CODE BEGIN USART2_Init 1 */

    /* USER CODE END USART2_Init 1 */
    huart2.Instance = USART2;
 800296c:	4b14      	ldr	r3, [pc, #80]	; (80029c0 <MX_USART2_UART_Init+0x58>)
 800296e:	4a15      	ldr	r2, [pc, #84]	; (80029c4 <MX_USART2_UART_Init+0x5c>)
 8002970:	601a      	str	r2, [r3, #0]
    huart2.Init.BaudRate = 38400;
 8002972:	4b13      	ldr	r3, [pc, #76]	; (80029c0 <MX_USART2_UART_Init+0x58>)
 8002974:	2296      	movs	r2, #150	; 0x96
 8002976:	0212      	lsls	r2, r2, #8
 8002978:	605a      	str	r2, [r3, #4]
    huart2.Init.WordLength = UART_WORDLENGTH_8B;
 800297a:	4b11      	ldr	r3, [pc, #68]	; (80029c0 <MX_USART2_UART_Init+0x58>)
 800297c:	2200      	movs	r2, #0
 800297e:	609a      	str	r2, [r3, #8]
    huart2.Init.StopBits = UART_STOPBITS_1;
 8002980:	4b0f      	ldr	r3, [pc, #60]	; (80029c0 <MX_USART2_UART_Init+0x58>)
 8002982:	2200      	movs	r2, #0
 8002984:	60da      	str	r2, [r3, #12]
    huart2.Init.Parity = UART_PARITY_NONE;
 8002986:	4b0e      	ldr	r3, [pc, #56]	; (80029c0 <MX_USART2_UART_Init+0x58>)
 8002988:	2200      	movs	r2, #0
 800298a:	611a      	str	r2, [r3, #16]
    huart2.Init.Mode = UART_MODE_TX_RX;
 800298c:	4b0c      	ldr	r3, [pc, #48]	; (80029c0 <MX_USART2_UART_Init+0x58>)
 800298e:	220c      	movs	r2, #12
 8002990:	615a      	str	r2, [r3, #20]
    huart2.Init.HwFlowCtl = UART_HWCONTROL_NONE;
 8002992:	4b0b      	ldr	r3, [pc, #44]	; (80029c0 <MX_USART2_UART_Init+0x58>)
 8002994:	2200      	movs	r2, #0
 8002996:	619a      	str	r2, [r3, #24]
    huart2.Init.OverSampling = UART_OVERSAMPLING_16;
 8002998:	4b09      	ldr	r3, [pc, #36]	; (80029c0 <MX_USART2_UART_Init+0x58>)
 800299a:	2200      	movs	r2, #0
 800299c:	61da      	str	r2, [r3, #28]
    huart2.Init.OneBitSampling = UART_ONE_BIT_SAMPLE_DISABLE;
 800299e:	4b08      	ldr	r3, [pc, #32]	; (80029c0 <MX_USART2_UART_Init+0x58>)
 80029a0:	2200      	movs	r2, #0
 80029a2:	621a      	str	r2, [r3, #32]
    huart2.AdvancedInit.AdvFeatureInit = UART_ADVFEATURE_NO_INIT;
 80029a4:	4b06      	ldr	r3, [pc, #24]	; (80029c0 <MX_USART2_UART_Init+0x58>)
 80029a6:	2200      	movs	r2, #0
 80029a8:	625a      	str	r2, [r3, #36]	; 0x24
    if (HAL_HalfDuplex_Init( & huart2) != HAL_OK) {
 80029aa:	4b05      	ldr	r3, [pc, #20]	; (80029c0 <MX_USART2_UART_Init+0x58>)
 80029ac:	0018      	movs	r0, r3
 80029ae:	f003 fb03 	bl	8005fb8 <HAL_HalfDuplex_Init>
 80029b2:	1e03      	subs	r3, r0, #0
 80029b4:	d001      	beq.n	80029ba <MX_USART2_UART_Init+0x52>
        Error_Handler();
 80029b6:	f000 fc75 	bl	80032a4 <Error_Handler>
    }
    /* USER CODE BEGIN USART2_Init 2 */

    /* USER CODE END USART2_Init 2 */

}
 80029ba:	46c0      	nop			; (mov r8, r8)
 80029bc:	46bd      	mov	sp, r7
 80029be:	bd80      	pop	{r7, pc}
 80029c0:	200001a8 	.word	0x200001a8
 80029c4:	40004400 	.word	0x40004400

080029c8 <MX_GPIO_Init>:
/**
 * @brief GPIO Initialization Function
 * @param None
 * @retval None
 */
static void MX_GPIO_Init(void) {
 80029c8:	b590      	push	{r4, r7, lr}
 80029ca:	b089      	sub	sp, #36	; 0x24
 80029cc:	af00      	add	r7, sp, #0
    GPIO_InitTypeDef GPIO_InitStruct = {
 80029ce:	240c      	movs	r4, #12
 80029d0:	193b      	adds	r3, r7, r4
 80029d2:	0018      	movs	r0, r3
 80029d4:	2314      	movs	r3, #20
 80029d6:	001a      	movs	r2, r3
 80029d8:	2100      	movs	r1, #0
 80029da:	f003 fff1 	bl	80069c0 <memset>
        0
    };

    /* GPIO Ports Clock Enable */
    __HAL_RCC_GPIOC_CLK_ENABLE();
 80029de:	4b5d      	ldr	r3, [pc, #372]	; (8002b54 <MX_GPIO_Init+0x18c>)
 80029e0:	695a      	ldr	r2, [r3, #20]
 80029e2:	4b5c      	ldr	r3, [pc, #368]	; (8002b54 <MX_GPIO_Init+0x18c>)
 80029e4:	2180      	movs	r1, #128	; 0x80
 80029e6:	0309      	lsls	r1, r1, #12
 80029e8:	430a      	orrs	r2, r1
 80029ea:	615a      	str	r2, [r3, #20]
 80029ec:	4b59      	ldr	r3, [pc, #356]	; (8002b54 <MX_GPIO_Init+0x18c>)
 80029ee:	695a      	ldr	r2, [r3, #20]
 80029f0:	2380      	movs	r3, #128	; 0x80
 80029f2:	031b      	lsls	r3, r3, #12
 80029f4:	4013      	ands	r3, r2
 80029f6:	60bb      	str	r3, [r7, #8]
 80029f8:	68bb      	ldr	r3, [r7, #8]
    __HAL_RCC_GPIOA_CLK_ENABLE();
 80029fa:	4b56      	ldr	r3, [pc, #344]	; (8002b54 <MX_GPIO_Init+0x18c>)
 80029fc:	695a      	ldr	r2, [r3, #20]
 80029fe:	4b55      	ldr	r3, [pc, #340]	; (8002b54 <MX_GPIO_Init+0x18c>)
 8002a00:	2180      	movs	r1, #128	; 0x80
 8002a02:	0289      	lsls	r1, r1, #10
 8002a04:	430a      	orrs	r2, r1
 8002a06:	615a      	str	r2, [r3, #20]
 8002a08:	4b52      	ldr	r3, [pc, #328]	; (8002b54 <MX_GPIO_Init+0x18c>)
 8002a0a:	695a      	ldr	r2, [r3, #20]
 8002a0c:	2380      	movs	r3, #128	; 0x80
 8002a0e:	029b      	lsls	r3, r3, #10
 8002a10:	4013      	ands	r3, r2
 8002a12:	607b      	str	r3, [r7, #4]
 8002a14:	687b      	ldr	r3, [r7, #4]
    __HAL_RCC_GPIOB_CLK_ENABLE();
 8002a16:	4b4f      	ldr	r3, [pc, #316]	; (8002b54 <MX_GPIO_Init+0x18c>)
 8002a18:	695a      	ldr	r2, [r3, #20]
 8002a1a:	4b4e      	ldr	r3, [pc, #312]	; (8002b54 <MX_GPIO_Init+0x18c>)
 8002a1c:	2180      	movs	r1, #128	; 0x80
 8002a1e:	02c9      	lsls	r1, r1, #11
 8002a20:	430a      	orrs	r2, r1
 8002a22:	615a      	str	r2, [r3, #20]
 8002a24:	4b4b      	ldr	r3, [pc, #300]	; (8002b54 <MX_GPIO_Init+0x18c>)
 8002a26:	695a      	ldr	r2, [r3, #20]
 8002a28:	2380      	movs	r3, #128	; 0x80
 8002a2a:	02db      	lsls	r3, r3, #11
 8002a2c:	4013      	ands	r3, r2
 8002a2e:	603b      	str	r3, [r7, #0]
 8002a30:	683b      	ldr	r3, [r7, #0]

    /*Configure GPIO pin Output Level */
    HAL_GPIO_WritePin(GPIOC, GPIO_PIN_14 | GPIO_PIN_15, GPIO_PIN_RESET);
 8002a32:	23c0      	movs	r3, #192	; 0xc0
 8002a34:	021b      	lsls	r3, r3, #8
 8002a36:	4848      	ldr	r0, [pc, #288]	; (8002b58 <MX_GPIO_Init+0x190>)
 8002a38:	2200      	movs	r2, #0
 8002a3a:	0019      	movs	r1, r3
 8002a3c:	f001 f999 	bl	8003d72 <HAL_GPIO_WritePin>

    /*Configure GPIO pin Output Level */
    HAL_GPIO_WritePin(GPIOB, MRF_NSS_Pin | MRF_RESET_Pin | LORA_NSS_Pin | LORA_RESET_Pin, GPIO_PIN_SET);
 8002a40:	4946      	ldr	r1, [pc, #280]	; (8002b5c <MX_GPIO_Init+0x194>)
 8002a42:	4b47      	ldr	r3, [pc, #284]	; (8002b60 <MX_GPIO_Init+0x198>)
 8002a44:	2201      	movs	r2, #1
 8002a46:	0018      	movs	r0, r3
 8002a48:	f001 f993 	bl	8003d72 <HAL_GPIO_WritePin>

    /*Configure GPIO pin Output Level */
    HAL_GPIO_WritePin(GPIOA, GPIO_PIN_12 | GPIO_PIN_15, GPIO_PIN_RESET);
 8002a4c:	2390      	movs	r3, #144	; 0x90
 8002a4e:	0219      	lsls	r1, r3, #8
 8002a50:	2390      	movs	r3, #144	; 0x90
 8002a52:	05db      	lsls	r3, r3, #23
 8002a54:	2200      	movs	r2, #0
 8002a56:	0018      	movs	r0, r3
 8002a58:	f001 f98b 	bl	8003d72 <HAL_GPIO_WritePin>

    /*Configure GPIO pin Output Level */
    HAL_GPIO_WritePin(GPIOB, GPIO_PIN_8 | GPIO_PIN_9, GPIO_PIN_RESET);
 8002a5c:	23c0      	movs	r3, #192	; 0xc0
 8002a5e:	009b      	lsls	r3, r3, #2
 8002a60:	483f      	ldr	r0, [pc, #252]	; (8002b60 <MX_GPIO_Init+0x198>)
 8002a62:	2200      	movs	r2, #0
 8002a64:	0019      	movs	r1, r3
 8002a66:	f001 f984 	bl	8003d72 <HAL_GPIO_WritePin>

    /*Configure GPIO pins : PC14 PC15 */
    GPIO_InitStruct.Pin = GPIO_PIN_14 | GPIO_PIN_15;
 8002a6a:	193b      	adds	r3, r7, r4
 8002a6c:	22c0      	movs	r2, #192	; 0xc0
 8002a6e:	0212      	lsls	r2, r2, #8
 8002a70:	601a      	str	r2, [r3, #0]
    GPIO_InitStruct.Mode = GPIO_MODE_OUTPUT_PP;
 8002a72:	193b      	adds	r3, r7, r4
 8002a74:	2201      	movs	r2, #1
 8002a76:	605a      	str	r2, [r3, #4]
    GPIO_InitStruct.Pull = GPIO_NOPULL;
 8002a78:	193b      	adds	r3, r7, r4
 8002a7a:	2200      	movs	r2, #0
 8002a7c:	609a      	str	r2, [r3, #8]
    GPIO_InitStruct.Speed = GPIO_SPEED_FREQ_LOW;
 8002a7e:	193b      	adds	r3, r7, r4
 8002a80:	2200      	movs	r2, #0
 8002a82:	60da      	str	r2, [r3, #12]
    HAL_GPIO_Init(GPIOC, & GPIO_InitStruct);
 8002a84:	193b      	adds	r3, r7, r4
 8002a86:	4a34      	ldr	r2, [pc, #208]	; (8002b58 <MX_GPIO_Init+0x190>)
 8002a88:	0019      	movs	r1, r3
 8002a8a:	0010      	movs	r0, r2
 8002a8c:	f000 ffe4 	bl	8003a58 <HAL_GPIO_Init>

    /*Configure GPIO pins : SW0_Pin SW1_Pin SW2_Pin SW3_Pin */
    GPIO_InitStruct.Pin = SW0_Pin | SW1_Pin | SW2_Pin | SW3_Pin;
 8002a90:	193b      	adds	r3, r7, r4
 8002a92:	220f      	movs	r2, #15
 8002a94:	601a      	str	r2, [r3, #0]
    GPIO_InitStruct.Mode = GPIO_MODE_INPUT;
 8002a96:	193b      	adds	r3, r7, r4
 8002a98:	2200      	movs	r2, #0
 8002a9a:	605a      	str	r2, [r3, #4]
    GPIO_InitStruct.Pull = GPIO_PULLUP;
 8002a9c:	193b      	adds	r3, r7, r4
 8002a9e:	2201      	movs	r2, #1
 8002aa0:	609a      	str	r2, [r3, #8]
    HAL_GPIO_Init(GPIOA, & GPIO_InitStruct);
 8002aa2:	193a      	adds	r2, r7, r4
 8002aa4:	2390      	movs	r3, #144	; 0x90
 8002aa6:	05db      	lsls	r3, r3, #23
 8002aa8:	0011      	movs	r1, r2
 8002aaa:	0018      	movs	r0, r3
 8002aac:	f000 ffd4 	bl	8003a58 <HAL_GPIO_Init>

    /*Configure GPIO pins : MRF_NSS_Pin LORA_NSS_Pin */
    GPIO_InitStruct.Pin = MRF_NSS_Pin | LORA_NSS_Pin;
 8002ab0:	0021      	movs	r1, r4
 8002ab2:	187b      	adds	r3, r7, r1
 8002ab4:	4a2b      	ldr	r2, [pc, #172]	; (8002b64 <MX_GPIO_Init+0x19c>)
 8002ab6:	601a      	str	r2, [r3, #0]
    GPIO_InitStruct.Mode = GPIO_MODE_OUTPUT_PP;
 8002ab8:	187b      	adds	r3, r7, r1
 8002aba:	2201      	movs	r2, #1
 8002abc:	605a      	str	r2, [r3, #4]
    GPIO_InitStruct.Pull = GPIO_PULLUP;
 8002abe:	187b      	adds	r3, r7, r1
 8002ac0:	2201      	movs	r2, #1
 8002ac2:	609a      	str	r2, [r3, #8]
    GPIO_InitStruct.Speed = GPIO_SPEED_FREQ_LOW;
 8002ac4:	187b      	adds	r3, r7, r1
 8002ac6:	2200      	movs	r2, #0
 8002ac8:	60da      	str	r2, [r3, #12]
    HAL_GPIO_Init(GPIOB, & GPIO_InitStruct);
 8002aca:	000c      	movs	r4, r1
 8002acc:	187b      	adds	r3, r7, r1
 8002ace:	4a24      	ldr	r2, [pc, #144]	; (8002b60 <MX_GPIO_Init+0x198>)
 8002ad0:	0019      	movs	r1, r3
 8002ad2:	0010      	movs	r0, r2
 8002ad4:	f000 ffc0 	bl	8003a58 <HAL_GPIO_Init>

    /*Configure GPIO pins : MRF_RESET_Pin LORA_RESET_Pin PB8 PB9 */
    GPIO_InitStruct.Pin = MRF_RESET_Pin | LORA_RESET_Pin | GPIO_PIN_8 | GPIO_PIN_9;
 8002ad8:	0021      	movs	r1, r4
 8002ada:	187b      	adds	r3, r7, r1
 8002adc:	4a22      	ldr	r2, [pc, #136]	; (8002b68 <MX_GPIO_Init+0x1a0>)
 8002ade:	601a      	str	r2, [r3, #0]
    GPIO_InitStruct.Mode = GPIO_MODE_OUTPUT_PP;
 8002ae0:	187b      	adds	r3, r7, r1
 8002ae2:	2201      	movs	r2, #1
 8002ae4:	605a      	str	r2, [r3, #4]
    GPIO_InitStruct.Pull = GPIO_NOPULL;
 8002ae6:	187b      	adds	r3, r7, r1
 8002ae8:	2200      	movs	r2, #0
 8002aea:	609a      	str	r2, [r3, #8]
    GPIO_InitStruct.Speed = GPIO_SPEED_FREQ_LOW;
 8002aec:	187b      	adds	r3, r7, r1
 8002aee:	2200      	movs	r2, #0
 8002af0:	60da      	str	r2, [r3, #12]
    HAL_GPIO_Init(GPIOB, & GPIO_InitStruct);
 8002af2:	000c      	movs	r4, r1
 8002af4:	187b      	adds	r3, r7, r1
 8002af6:	4a1a      	ldr	r2, [pc, #104]	; (8002b60 <MX_GPIO_Init+0x198>)
 8002af8:	0019      	movs	r1, r3
 8002afa:	0010      	movs	r0, r2
 8002afc:	f000 ffac 	bl	8003a58 <HAL_GPIO_Init>

    /*Configure GPIO pin : MRF_INT_Pin */
    GPIO_InitStruct.Pin = MRF_INT_Pin;
 8002b00:	0021      	movs	r1, r4
 8002b02:	187b      	adds	r3, r7, r1
 8002b04:	2204      	movs	r2, #4
 8002b06:	601a      	str	r2, [r3, #0]
    GPIO_InitStruct.Mode = GPIO_MODE_INPUT;
 8002b08:	187b      	adds	r3, r7, r1
 8002b0a:	2200      	movs	r2, #0
 8002b0c:	605a      	str	r2, [r3, #4]
    GPIO_InitStruct.Pull = GPIO_PULLUP;
 8002b0e:	187b      	adds	r3, r7, r1
 8002b10:	2201      	movs	r2, #1
 8002b12:	609a      	str	r2, [r3, #8]
    HAL_GPIO_Init(MRF_INT_GPIO_Port, & GPIO_InitStruct);
 8002b14:	000c      	movs	r4, r1
 8002b16:	187b      	adds	r3, r7, r1
 8002b18:	4a11      	ldr	r2, [pc, #68]	; (8002b60 <MX_GPIO_Init+0x198>)
 8002b1a:	0019      	movs	r1, r3
 8002b1c:	0010      	movs	r0, r2
 8002b1e:	f000 ff9b 	bl	8003a58 <HAL_GPIO_Init>

    /*Configure GPIO pins : PA12 PA15 */
    GPIO_InitStruct.Pin = GPIO_PIN_12 | GPIO_PIN_15;
 8002b22:	0021      	movs	r1, r4
 8002b24:	187b      	adds	r3, r7, r1
 8002b26:	2290      	movs	r2, #144	; 0x90
 8002b28:	0212      	lsls	r2, r2, #8
 8002b2a:	601a      	str	r2, [r3, #0]
    GPIO_InitStruct.Mode = GPIO_MODE_OUTPUT_PP;
 8002b2c:	187b      	adds	r3, r7, r1
 8002b2e:	2201      	movs	r2, #1
 8002b30:	605a      	str	r2, [r3, #4]
    GPIO_InitStruct.Pull = GPIO_NOPULL;
 8002b32:	187b      	adds	r3, r7, r1
 8002b34:	2200      	movs	r2, #0
 8002b36:	609a      	str	r2, [r3, #8]
    GPIO_InitStruct.Speed = GPIO_SPEED_FREQ_LOW;
 8002b38:	187b      	adds	r3, r7, r1
 8002b3a:	2200      	movs	r2, #0
 8002b3c:	60da      	str	r2, [r3, #12]
    HAL_GPIO_Init(GPIOA, & GPIO_InitStruct);
 8002b3e:	187a      	adds	r2, r7, r1
 8002b40:	2390      	movs	r3, #144	; 0x90
 8002b42:	05db      	lsls	r3, r3, #23
 8002b44:	0011      	movs	r1, r2
 8002b46:	0018      	movs	r0, r3
 8002b48:	f000 ff86 	bl	8003a58 <HAL_GPIO_Init>

}
 8002b4c:	46c0      	nop			; (mov r8, r8)
 8002b4e:	46bd      	mov	sp, r7
 8002b50:	b009      	add	sp, #36	; 0x24
 8002b52:	bd90      	pop	{r4, r7, pc}
 8002b54:	40021000 	.word	0x40021000
 8002b58:	48000800 	.word	0x48000800
 8002b5c:	00000c03 	.word	0x00000c03
 8002b60:	48000400 	.word	0x48000400
 8002b64:	00000401 	.word	0x00000401
 8002b68:	00000b02 	.word	0x00000b02

08002b6c <print_display>:

/* USER CODE BEGIN 4 */
void print_display() {
 8002b6c:	b580      	push	{r7, lr}
 8002b6e:	af00      	add	r7, sp, #0
    lcd_command(0x01);
 8002b70:	2001      	movs	r0, #1
 8002b72:	f7fd fd4b 	bl	800060c <lcd_command>
    lcd_putstring(" LORA  ||  MRF  ");
 8002b76:	4b23      	ldr	r3, [pc, #140]	; (8002c04 <print_display+0x98>)
 8002b78:	0018      	movs	r0, r3
 8002b7a:	f7fd ff2d 	bl	80009d8 <lcd_putstring>
    lcd_command(0xC0); // Next line
 8002b7e:	20c0      	movs	r0, #192	; 0xc0
 8002b80:	f7fd fd44 	bl	800060c <lcd_command>
    UlToStr(val, count_lora, 3);
 8002b84:	4b20      	ldr	r3, [pc, #128]	; (8002c08 <print_display+0x9c>)
 8002b86:	781b      	ldrb	r3, [r3, #0]
 8002b88:	0019      	movs	r1, r3
 8002b8a:	4b20      	ldr	r3, [pc, #128]	; (8002c0c <print_display+0xa0>)
 8002b8c:	2203      	movs	r2, #3
 8002b8e:	0018      	movs	r0, r3
 8002b90:	f000 fb58 	bl	8003244 <UlToStr>
    lcd_putstring(val);
 8002b94:	4b1d      	ldr	r3, [pc, #116]	; (8002c0c <print_display+0xa0>)
 8002b96:	0018      	movs	r0, r3
 8002b98:	f7fd ff1e 	bl	80009d8 <lcd_putstring>
    lcd_putstring(" ");
 8002b9c:	4b1c      	ldr	r3, [pc, #112]	; (8002c10 <print_display+0xa4>)
 8002b9e:	0018      	movs	r0, r3
 8002ba0:	f7fd ff1a 	bl	80009d8 <lcd_putstring>
    UlToStr(val, last_lora_rssi, 3);
 8002ba4:	4b1b      	ldr	r3, [pc, #108]	; (8002c14 <print_display+0xa8>)
 8002ba6:	781b      	ldrb	r3, [r3, #0]
 8002ba8:	0019      	movs	r1, r3
 8002baa:	4b18      	ldr	r3, [pc, #96]	; (8002c0c <print_display+0xa0>)
 8002bac:	2203      	movs	r2, #3
 8002bae:	0018      	movs	r0, r3
 8002bb0:	f000 fb48 	bl	8003244 <UlToStr>
    lcd_putstring(val);
 8002bb4:	4b15      	ldr	r3, [pc, #84]	; (8002c0c <print_display+0xa0>)
 8002bb6:	0018      	movs	r0, r3
 8002bb8:	f7fd ff0e 	bl	80009d8 <lcd_putstring>
    lcd_putstring("||");
 8002bbc:	4b16      	ldr	r3, [pc, #88]	; (8002c18 <print_display+0xac>)
 8002bbe:	0018      	movs	r0, r3
 8002bc0:	f7fd ff0a 	bl	80009d8 <lcd_putstring>
    UlToStr(val, count_mrf, 3);
 8002bc4:	4b15      	ldr	r3, [pc, #84]	; (8002c1c <print_display+0xb0>)
 8002bc6:	781b      	ldrb	r3, [r3, #0]
 8002bc8:	0019      	movs	r1, r3
 8002bca:	4b10      	ldr	r3, [pc, #64]	; (8002c0c <print_display+0xa0>)
 8002bcc:	2203      	movs	r2, #3
 8002bce:	0018      	movs	r0, r3
 8002bd0:	f000 fb38 	bl	8003244 <UlToStr>
    lcd_putstring(val);
 8002bd4:	4b0d      	ldr	r3, [pc, #52]	; (8002c0c <print_display+0xa0>)
 8002bd6:	0018      	movs	r0, r3
 8002bd8:	f7fd fefe 	bl	80009d8 <lcd_putstring>
    lcd_putstring(" ");
 8002bdc:	4b0c      	ldr	r3, [pc, #48]	; (8002c10 <print_display+0xa4>)
 8002bde:	0018      	movs	r0, r3
 8002be0:	f7fd fefa 	bl	80009d8 <lcd_putstring>
    UlToStr(val, last_mrf_rssi, 3);
 8002be4:	4b0e      	ldr	r3, [pc, #56]	; (8002c20 <print_display+0xb4>)
 8002be6:	781b      	ldrb	r3, [r3, #0]
 8002be8:	0019      	movs	r1, r3
 8002bea:	4b08      	ldr	r3, [pc, #32]	; (8002c0c <print_display+0xa0>)
 8002bec:	2203      	movs	r2, #3
 8002bee:	0018      	movs	r0, r3
 8002bf0:	f000 fb28 	bl	8003244 <UlToStr>
    lcd_putstring(val);
 8002bf4:	4b05      	ldr	r3, [pc, #20]	; (8002c0c <print_display+0xa0>)
 8002bf6:	0018      	movs	r0, r3
 8002bf8:	f7fd feee 	bl	80009d8 <lcd_putstring>
}
 8002bfc:	46c0      	nop			; (mov r8, r8)
 8002bfe:	46bd      	mov	sp, r7
 8002c00:	bd80      	pop	{r7, pc}
 8002c02:	46c0      	nop			; (mov r8, r8)
 8002c04:	08007d54 	.word	0x08007d54
 8002c08:	2000011f 	.word	0x2000011f
 8002c0c:	20000140 	.word	0x20000140
 8002c10:	08007d68 	.word	0x08007d68
 8002c14:	20000122 	.word	0x20000122
 8002c18:	08007d6c 	.word	0x08007d6c
 8002c1c:	20000120 	.word	0x20000120
 8002c20:	20000121 	.word	0x20000121

08002c24 <print_joint>:

void print_joint() {
 8002c24:	b580      	push	{r7, lr}
 8002c26:	af00      	add	r7, sp, #0
    lcd_command(CLEAR);
 8002c28:	2001      	movs	r0, #1
 8002c2a:	f7fd fcef 	bl	800060c <lcd_command>
    lcd_putstring("LORA ");
 8002c2e:	4b33      	ldr	r3, [pc, #204]	; (8002cfc <print_joint+0xd8>)
 8002c30:	0018      	movs	r0, r3
 8002c32:	f7fd fed1 	bl	80009d8 <lcd_putstring>
    UlToStr(val, last_lora_TA, 3);
 8002c36:	4b32      	ldr	r3, [pc, #200]	; (8002d00 <print_joint+0xdc>)
 8002c38:	781b      	ldrb	r3, [r3, #0]
 8002c3a:	0019      	movs	r1, r3
 8002c3c:	4b31      	ldr	r3, [pc, #196]	; (8002d04 <print_joint+0xe0>)
 8002c3e:	2203      	movs	r2, #3
 8002c40:	0018      	movs	r0, r3
 8002c42:	f000 faff 	bl	8003244 <UlToStr>
    lcd_putstring(val);
 8002c46:	4b2f      	ldr	r3, [pc, #188]	; (8002d04 <print_joint+0xe0>)
 8002c48:	0018      	movs	r0, r3
 8002c4a:	f7fd fec5 	bl	80009d8 <lcd_putstring>
    lcd_putstring(" ");
 8002c4e:	4b2e      	ldr	r3, [pc, #184]	; (8002d08 <print_joint+0xe4>)
 8002c50:	0018      	movs	r0, r3
 8002c52:	f7fd fec1 	bl	80009d8 <lcd_putstring>
    UlToStr(val, last_lora_TB, 3);
 8002c56:	4b2d      	ldr	r3, [pc, #180]	; (8002d0c <print_joint+0xe8>)
 8002c58:	781b      	ldrb	r3, [r3, #0]
 8002c5a:	0019      	movs	r1, r3
 8002c5c:	4b29      	ldr	r3, [pc, #164]	; (8002d04 <print_joint+0xe0>)
 8002c5e:	2203      	movs	r2, #3
 8002c60:	0018      	movs	r0, r3
 8002c62:	f000 faef 	bl	8003244 <UlToStr>
    lcd_putstring(val);
 8002c66:	4b27      	ldr	r3, [pc, #156]	; (8002d04 <print_joint+0xe0>)
 8002c68:	0018      	movs	r0, r3
 8002c6a:	f7fd feb5 	bl	80009d8 <lcd_putstring>
    lcd_putstring(" ");
 8002c6e:	4b26      	ldr	r3, [pc, #152]	; (8002d08 <print_joint+0xe4>)
 8002c70:	0018      	movs	r0, r3
 8002c72:	f7fd feb1 	bl	80009d8 <lcd_putstring>
    UlToStr(val, last_lora_TC, 3);
 8002c76:	4b26      	ldr	r3, [pc, #152]	; (8002d10 <print_joint+0xec>)
 8002c78:	781b      	ldrb	r3, [r3, #0]
 8002c7a:	0019      	movs	r1, r3
 8002c7c:	4b21      	ldr	r3, [pc, #132]	; (8002d04 <print_joint+0xe0>)
 8002c7e:	2203      	movs	r2, #3
 8002c80:	0018      	movs	r0, r3
 8002c82:	f000 fadf 	bl	8003244 <UlToStr>
    lcd_putstring(val);
 8002c86:	4b1f      	ldr	r3, [pc, #124]	; (8002d04 <print_joint+0xe0>)
 8002c88:	0018      	movs	r0, r3
 8002c8a:	f7fd fea5 	bl	80009d8 <lcd_putstring>
    lcd_command(0xC0); // Next line
 8002c8e:	20c0      	movs	r0, #192	; 0xc0
 8002c90:	f7fd fcbc 	bl	800060c <lcd_command>
    lcd_putstring(" MRF ");
 8002c94:	4b1f      	ldr	r3, [pc, #124]	; (8002d14 <print_joint+0xf0>)
 8002c96:	0018      	movs	r0, r3
 8002c98:	f7fd fe9e 	bl	80009d8 <lcd_putstring>
    UlToStr(val, last_mrf_TA, 3);
 8002c9c:	4b1e      	ldr	r3, [pc, #120]	; (8002d18 <print_joint+0xf4>)
 8002c9e:	781b      	ldrb	r3, [r3, #0]
 8002ca0:	0019      	movs	r1, r3
 8002ca2:	4b18      	ldr	r3, [pc, #96]	; (8002d04 <print_joint+0xe0>)
 8002ca4:	2203      	movs	r2, #3
 8002ca6:	0018      	movs	r0, r3
 8002ca8:	f000 facc 	bl	8003244 <UlToStr>
    lcd_putstring(val);
 8002cac:	4b15      	ldr	r3, [pc, #84]	; (8002d04 <print_joint+0xe0>)
 8002cae:	0018      	movs	r0, r3
 8002cb0:	f7fd fe92 	bl	80009d8 <lcd_putstring>
    lcd_putstring(" ");
 8002cb4:	4b14      	ldr	r3, [pc, #80]	; (8002d08 <print_joint+0xe4>)
 8002cb6:	0018      	movs	r0, r3
 8002cb8:	f7fd fe8e 	bl	80009d8 <lcd_putstring>
    UlToStr(val, last_mrf_TB, 3);
 8002cbc:	4b17      	ldr	r3, [pc, #92]	; (8002d1c <print_joint+0xf8>)
 8002cbe:	781b      	ldrb	r3, [r3, #0]
 8002cc0:	0019      	movs	r1, r3
 8002cc2:	4b10      	ldr	r3, [pc, #64]	; (8002d04 <print_joint+0xe0>)
 8002cc4:	2203      	movs	r2, #3
 8002cc6:	0018      	movs	r0, r3
 8002cc8:	f000 fabc 	bl	8003244 <UlToStr>
    lcd_putstring(val);
 8002ccc:	4b0d      	ldr	r3, [pc, #52]	; (8002d04 <print_joint+0xe0>)
 8002cce:	0018      	movs	r0, r3
 8002cd0:	f7fd fe82 	bl	80009d8 <lcd_putstring>
    lcd_putstring(" ");
 8002cd4:	4b0c      	ldr	r3, [pc, #48]	; (8002d08 <print_joint+0xe4>)
 8002cd6:	0018      	movs	r0, r3
 8002cd8:	f7fd fe7e 	bl	80009d8 <lcd_putstring>
    UlToStr(val, last_mrf_TC, 3);
 8002cdc:	4b10      	ldr	r3, [pc, #64]	; (8002d20 <print_joint+0xfc>)
 8002cde:	781b      	ldrb	r3, [r3, #0]
 8002ce0:	0019      	movs	r1, r3
 8002ce2:	4b08      	ldr	r3, [pc, #32]	; (8002d04 <print_joint+0xe0>)
 8002ce4:	2203      	movs	r2, #3
 8002ce6:	0018      	movs	r0, r3
 8002ce8:	f000 faac 	bl	8003244 <UlToStr>
    lcd_putstring(val);
 8002cec:	4b05      	ldr	r3, [pc, #20]	; (8002d04 <print_joint+0xe0>)
 8002cee:	0018      	movs	r0, r3
 8002cf0:	f7fd fe72 	bl	80009d8 <lcd_putstring>
}
 8002cf4:	46c0      	nop			; (mov r8, r8)
 8002cf6:	46bd      	mov	sp, r7
 8002cf8:	bd80      	pop	{r7, pc}
 8002cfa:	46c0      	nop			; (mov r8, r8)
 8002cfc:	08007d70 	.word	0x08007d70
 8002d00:	20000123 	.word	0x20000123
 8002d04:	20000140 	.word	0x20000140
 8002d08:	08007d68 	.word	0x08007d68
 8002d0c:	20000124 	.word	0x20000124
 8002d10:	20000125 	.word	0x20000125
 8002d14:	08007d78 	.word	0x08007d78
 8002d18:	20000126 	.word	0x20000126
 8002d1c:	20000127 	.word	0x20000127
 8002d20:	20000128 	.word	0x20000128

08002d24 <print_count>:

void print_count() {
 8002d24:	b580      	push	{r7, lr}
 8002d26:	af00      	add	r7, sp, #0
    lcd_command(CLEAR);
 8002d28:	2001      	movs	r0, #1
 8002d2a:	f7fd fc6f 	bl	800060c <lcd_command>
    lcd_putstring("LORA: ");
 8002d2e:	4b13      	ldr	r3, [pc, #76]	; (8002d7c <print_count+0x58>)
 8002d30:	0018      	movs	r0, r3
 8002d32:	f7fd fe51 	bl	80009d8 <lcd_putstring>
    UlToStr(val, count_lora, 4);
 8002d36:	4b12      	ldr	r3, [pc, #72]	; (8002d80 <print_count+0x5c>)
 8002d38:	781b      	ldrb	r3, [r3, #0]
 8002d3a:	0019      	movs	r1, r3
 8002d3c:	4b11      	ldr	r3, [pc, #68]	; (8002d84 <print_count+0x60>)
 8002d3e:	2204      	movs	r2, #4
 8002d40:	0018      	movs	r0, r3
 8002d42:	f000 fa7f 	bl	8003244 <UlToStr>
    lcd_putstring(val);
 8002d46:	4b0f      	ldr	r3, [pc, #60]	; (8002d84 <print_count+0x60>)
 8002d48:	0018      	movs	r0, r3
 8002d4a:	f7fd fe45 	bl	80009d8 <lcd_putstring>
    lcd_command(LINE_TWO);
 8002d4e:	20c0      	movs	r0, #192	; 0xc0
 8002d50:	f7fd fc5c 	bl	800060c <lcd_command>
    lcd_putstring("MRF:  ");
 8002d54:	4b0c      	ldr	r3, [pc, #48]	; (8002d88 <print_count+0x64>)
 8002d56:	0018      	movs	r0, r3
 8002d58:	f7fd fe3e 	bl	80009d8 <lcd_putstring>
    UlToStr(val, count_mrf, 4);
 8002d5c:	4b0b      	ldr	r3, [pc, #44]	; (8002d8c <print_count+0x68>)
 8002d5e:	781b      	ldrb	r3, [r3, #0]
 8002d60:	0019      	movs	r1, r3
 8002d62:	4b08      	ldr	r3, [pc, #32]	; (8002d84 <print_count+0x60>)
 8002d64:	2204      	movs	r2, #4
 8002d66:	0018      	movs	r0, r3
 8002d68:	f000 fa6c 	bl	8003244 <UlToStr>
    lcd_putstring(val);
 8002d6c:	4b05      	ldr	r3, [pc, #20]	; (8002d84 <print_count+0x60>)
 8002d6e:	0018      	movs	r0, r3
 8002d70:	f7fd fe32 	bl	80009d8 <lcd_putstring>
}
 8002d74:	46c0      	nop			; (mov r8, r8)
 8002d76:	46bd      	mov	sp, r7
 8002d78:	bd80      	pop	{r7, pc}
 8002d7a:	46c0      	nop			; (mov r8, r8)
 8002d7c:	08007d80 	.word	0x08007d80
 8002d80:	2000011f 	.word	0x2000011f
 8002d84:	20000140 	.word	0x20000140
 8002d88:	08007d88 	.word	0x08007d88
 8002d8c:	20000120 	.word	0x20000120

08002d90 <print_live>:
    lcd_putstring(" ");
    UlToStr(val, get_mrf_distance(last_mrf_TC), 3);
    lcd_putstring(val);
}

void print_live() {
 8002d90:	b580      	push	{r7, lr}
 8002d92:	af00      	add	r7, sp, #0
    lcd_command(LINE_TWO);
 8002d94:	20c0      	movs	r0, #192	; 0xc0
 8002d96:	f7fd fc39 	bl	800060c <lcd_command>
    UlToStr(val, get_mrf_distance(live_vals[3]), 3);
 8002d9a:	4b29      	ldr	r3, [pc, #164]	; (8002e40 <print_live+0xb0>)
 8002d9c:	78db      	ldrb	r3, [r3, #3]
 8002d9e:	0018      	movs	r0, r3
 8002da0:	f000 f856 	bl	8002e50 <get_mrf_distance>
 8002da4:	0003      	movs	r3, r0
 8002da6:	0019      	movs	r1, r3
 8002da8:	4b26      	ldr	r3, [pc, #152]	; (8002e44 <print_live+0xb4>)
 8002daa:	2203      	movs	r2, #3
 8002dac:	0018      	movs	r0, r3
 8002dae:	f000 fa49 	bl	8003244 <UlToStr>
    lcd_putstring(val);
 8002db2:	4b24      	ldr	r3, [pc, #144]	; (8002e44 <print_live+0xb4>)
 8002db4:	0018      	movs	r0, r3
 8002db6:	f7fd fe0f 	bl	80009d8 <lcd_putstring>
    lcd_putstring(" ");
 8002dba:	4b23      	ldr	r3, [pc, #140]	; (8002e48 <print_live+0xb8>)
 8002dbc:	0018      	movs	r0, r3
 8002dbe:	f7fd fe0b 	bl	80009d8 <lcd_putstring>
    UlToStr(val, get_mrf_distance(live_vals[2]), 3);
 8002dc2:	4b1f      	ldr	r3, [pc, #124]	; (8002e40 <print_live+0xb0>)
 8002dc4:	789b      	ldrb	r3, [r3, #2]
 8002dc6:	0018      	movs	r0, r3
 8002dc8:	f000 f842 	bl	8002e50 <get_mrf_distance>
 8002dcc:	0003      	movs	r3, r0
 8002dce:	0019      	movs	r1, r3
 8002dd0:	4b1c      	ldr	r3, [pc, #112]	; (8002e44 <print_live+0xb4>)
 8002dd2:	2203      	movs	r2, #3
 8002dd4:	0018      	movs	r0, r3
 8002dd6:	f000 fa35 	bl	8003244 <UlToStr>
    lcd_putstring(val);
 8002dda:	4b1a      	ldr	r3, [pc, #104]	; (8002e44 <print_live+0xb4>)
 8002ddc:	0018      	movs	r0, r3
 8002dde:	f7fd fdfb 	bl	80009d8 <lcd_putstring>
    lcd_putstring(" ");
 8002de2:	4b19      	ldr	r3, [pc, #100]	; (8002e48 <print_live+0xb8>)
 8002de4:	0018      	movs	r0, r3
 8002de6:	f7fd fdf7 	bl	80009d8 <lcd_putstring>
    UlToStr(val, get_mrf_distance(live_vals[1]), 3);
 8002dea:	4b15      	ldr	r3, [pc, #84]	; (8002e40 <print_live+0xb0>)
 8002dec:	785b      	ldrb	r3, [r3, #1]
 8002dee:	0018      	movs	r0, r3
 8002df0:	f000 f82e 	bl	8002e50 <get_mrf_distance>
 8002df4:	0003      	movs	r3, r0
 8002df6:	0019      	movs	r1, r3
 8002df8:	4b12      	ldr	r3, [pc, #72]	; (8002e44 <print_live+0xb4>)
 8002dfa:	2203      	movs	r2, #3
 8002dfc:	0018      	movs	r0, r3
 8002dfe:	f000 fa21 	bl	8003244 <UlToStr>
    lcd_putstring(val);
 8002e02:	4b10      	ldr	r3, [pc, #64]	; (8002e44 <print_live+0xb4>)
 8002e04:	0018      	movs	r0, r3
 8002e06:	f7fd fde7 	bl	80009d8 <lcd_putstring>
    lcd_putstring(" ");
 8002e0a:	4b0f      	ldr	r3, [pc, #60]	; (8002e48 <print_live+0xb8>)
 8002e0c:	0018      	movs	r0, r3
 8002e0e:	f7fd fde3 	bl	80009d8 <lcd_putstring>
    UlToStr(val, get_mrf_distance(last_lora_rssi), 3);
 8002e12:	4b0e      	ldr	r3, [pc, #56]	; (8002e4c <print_live+0xbc>)
 8002e14:	781b      	ldrb	r3, [r3, #0]
 8002e16:	0018      	movs	r0, r3
 8002e18:	f000 f81a 	bl	8002e50 <get_mrf_distance>
 8002e1c:	0003      	movs	r3, r0
 8002e1e:	0019      	movs	r1, r3
 8002e20:	4b08      	ldr	r3, [pc, #32]	; (8002e44 <print_live+0xb4>)
 8002e22:	2203      	movs	r2, #3
 8002e24:	0018      	movs	r0, r3
 8002e26:	f000 fa0d 	bl	8003244 <UlToStr>
    lcd_putstring(val);
 8002e2a:	4b06      	ldr	r3, [pc, #24]	; (8002e44 <print_live+0xb4>)
 8002e2c:	0018      	movs	r0, r3
 8002e2e:	f7fd fdd3 	bl	80009d8 <lcd_putstring>
    lcd_putstring(" ");
 8002e32:	4b05      	ldr	r3, [pc, #20]	; (8002e48 <print_live+0xb8>)
 8002e34:	0018      	movs	r0, r3
 8002e36:	f7fd fdcf 	bl	80009d8 <lcd_putstring>
}
 8002e3a:	46c0      	nop			; (mov r8, r8)
 8002e3c:	46bd      	mov	sp, r7
 8002e3e:	bd80      	pop	{r7, pc}
 8002e40:	2000012c 	.word	0x2000012c
 8002e44:	20000140 	.word	0x20000140
 8002e48:	08007d68 	.word	0x08007d68
 8002e4c:	20000122 	.word	0x20000122

08002e50 <get_mrf_distance>:

uint8_t get_lora_distance(uint8_t rssi) {
    return rssi / 8;
}

uint8_t get_mrf_distance(uint8_t rssi) {
 8002e50:	b580      	push	{r7, lr}
 8002e52:	b082      	sub	sp, #8
 8002e54:	af00      	add	r7, sp, #0
 8002e56:	0002      	movs	r2, r0
 8002e58:	1dfb      	adds	r3, r7, #7
 8002e5a:	701a      	strb	r2, [r3, #0]
    return rssi / 4;
 8002e5c:	1dfb      	adds	r3, r7, #7
 8002e5e:	781b      	ldrb	r3, [r3, #0]
 8002e60:	089b      	lsrs	r3, r3, #2
 8002e62:	b2db      	uxtb	r3, r3
}
 8002e64:	0018      	movs	r0, r3
 8002e66:	46bd      	mov	sp, r7
 8002e68:	b002      	add	sp, #8
 8002e6a:	bd80      	pop	{r7, pc}

08002e6c <mrf_reset>:

void mrf_reset(void) {
 8002e6c:	b580      	push	{r7, lr}
 8002e6e:	af00      	add	r7, sp, #0
    HAL_GPIO_WritePin(MRF_RESET_GPIO_Port, MRF_RESET_Pin, 0);
 8002e70:	4b0a      	ldr	r3, [pc, #40]	; (8002e9c <mrf_reset+0x30>)
 8002e72:	2200      	movs	r2, #0
 8002e74:	2102      	movs	r1, #2
 8002e76:	0018      	movs	r0, r3
 8002e78:	f000 ff7b 	bl	8003d72 <HAL_GPIO_WritePin>
    _delay_ms(10);
 8002e7c:	200a      	movs	r0, #10
 8002e7e:	f000 f8b1 	bl	8002fe4 <_delay_ms>
    HAL_GPIO_WritePin(MRF_RESET_GPIO_Port, MRF_RESET_Pin, 1);
 8002e82:	4b06      	ldr	r3, [pc, #24]	; (8002e9c <mrf_reset+0x30>)
 8002e84:	2201      	movs	r2, #1
 8002e86:	2102      	movs	r1, #2
 8002e88:	0018      	movs	r0, r3
 8002e8a:	f000 ff72 	bl	8003d72 <HAL_GPIO_WritePin>
    _delay_ms(20);
 8002e8e:	2014      	movs	r0, #20
 8002e90:	f000 f8a8 	bl	8002fe4 <_delay_ms>
}
 8002e94:	46c0      	nop			; (mov r8, r8)
 8002e96:	46bd      	mov	sp, r7
 8002e98:	bd80      	pop	{r7, pc}
 8002e9a:	46c0      	nop			; (mov r8, r8)
 8002e9c:	48000400 	.word	0x48000400

08002ea0 <handle_rx>:

void handle_rx(mrf_rx_info_t * rxinfo, uint8_t * rx_buffer) {
 8002ea0:	b580      	push	{r7, lr}
 8002ea2:	b082      	sub	sp, #8
 8002ea4:	af00      	add	r7, sp, #0
 8002ea6:	6078      	str	r0, [r7, #4]
 8002ea8:	6039      	str	r1, [r7, #0]
    printf("MRF RSSI=%d\n", rxinfo -> rssi);
 8002eaa:	687b      	ldr	r3, [r7, #4]
 8002eac:	7a9b      	ldrb	r3, [r3, #10]
 8002eae:	001a      	movs	r2, r3
 8002eb0:	4b09      	ldr	r3, [pc, #36]	; (8002ed8 <handle_rx+0x38>)
 8002eb2:	0011      	movs	r1, r2
 8002eb4:	0018      	movs	r0, r3
 8002eb6:	f003 fd8b 	bl	80069d0 <iprintf>
    last_mrf_rssi = rxinfo -> rssi;
 8002eba:	687b      	ldr	r3, [r7, #4]
 8002ebc:	7a9a      	ldrb	r2, [r3, #10]
 8002ebe:	4b07      	ldr	r3, [pc, #28]	; (8002edc <handle_rx+0x3c>)
 8002ec0:	701a      	strb	r2, [r3, #0]
    count_mrf++;
 8002ec2:	4b07      	ldr	r3, [pc, #28]	; (8002ee0 <handle_rx+0x40>)
 8002ec4:	781b      	ldrb	r3, [r3, #0]
 8002ec6:	3301      	adds	r3, #1
 8002ec8:	b2da      	uxtb	r2, r3
 8002eca:	4b05      	ldr	r3, [pc, #20]	; (8002ee0 <handle_rx+0x40>)
 8002ecc:	701a      	strb	r2, [r3, #0]
}
 8002ece:	46c0      	nop			; (mov r8, r8)
 8002ed0:	46bd      	mov	sp, r7
 8002ed2:	b002      	add	sp, #8
 8002ed4:	bd80      	pop	{r7, pc}
 8002ed6:	46c0      	nop			; (mov r8, r8)
 8002ed8:	08007d90 	.word	0x08007d90
 8002edc:	20000121 	.word	0x20000121
 8002ee0:	20000120 	.word	0x20000120

08002ee4 <handle_tx>:

void handle_tx(mrf_tx_info_t * txinfo) {
 8002ee4:	b580      	push	{r7, lr}
 8002ee6:	b082      	sub	sp, #8
 8002ee8:	af00      	add	r7, sp, #0
 8002eea:	6078      	str	r0, [r7, #4]
    lcd_command(LINE_TWO);
 8002eec:	20c0      	movs	r0, #192	; 0xc0
 8002eee:	f7fd fb8d 	bl	800060c <lcd_command>
    lcd_putstring("MRF - ");
 8002ef2:	4b1a      	ldr	r3, [pc, #104]	; (8002f5c <handle_tx+0x78>)
 8002ef4:	0018      	movs	r0, r3
 8002ef6:	f7fd fd6f 	bl	80009d8 <lcd_putstring>
    if (txinfo -> tx_ok) {
 8002efa:	687b      	ldr	r3, [r7, #4]
 8002efc:	781b      	ldrb	r3, [r3, #0]
 8002efe:	2b00      	cmp	r3, #0
 8002f00:	d012      	beq.n	8002f28 <handle_tx+0x44>
        lcd_putstring("Sent ");
 8002f02:	4b17      	ldr	r3, [pc, #92]	; (8002f60 <handle_tx+0x7c>)
 8002f04:	0018      	movs	r0, r3
 8002f06:	f7fd fd67 	bl	80009d8 <lcd_putstring>
        lcd_putstring(DEVICE_ID[0]);
 8002f0a:	4b16      	ldr	r3, [pc, #88]	; (8002f64 <handle_tx+0x80>)
 8002f0c:	781b      	ldrb	r3, [r3, #0]
 8002f0e:	0018      	movs	r0, r3
 8002f10:	f7fd fd62 	bl	80009d8 <lcd_putstring>
        _delay_ms(MED_WAIT);
 8002f14:	23fa      	movs	r3, #250	; 0xfa
 8002f16:	005b      	lsls	r3, r3, #1
 8002f18:	0018      	movs	r0, r3
 8002f1a:	f000 f863 	bl	8002fe4 <_delay_ms>
        printf("MRF message sent!\n");
 8002f1e:	4b12      	ldr	r3, [pc, #72]	; (8002f68 <handle_tx+0x84>)
 8002f20:	0018      	movs	r0, r3
 8002f22:	f003 fde3 	bl	8006aec <puts>
 8002f26:	e010      	b.n	8002f4a <handle_tx+0x66>
    } else {
        lcd_putstring("Fail!");
 8002f28:	4b10      	ldr	r3, [pc, #64]	; (8002f6c <handle_tx+0x88>)
 8002f2a:	0018      	movs	r0, r3
 8002f2c:	f7fd fd54 	bl	80009d8 <lcd_putstring>
        _delay_ms(MED_WAIT);
 8002f30:	23fa      	movs	r3, #250	; 0xfa
 8002f32:	005b      	lsls	r3, r3, #1
 8002f34:	0018      	movs	r0, r3
 8002f36:	f000 f855 	bl	8002fe4 <_delay_ms>
        printf("MRF transmission failed after %d retries\n", txinfo -> retries);
 8002f3a:	687b      	ldr	r3, [r7, #4]
 8002f3c:	785b      	ldrb	r3, [r3, #1]
 8002f3e:	001a      	movs	r2, r3
 8002f40:	4b0b      	ldr	r3, [pc, #44]	; (8002f70 <handle_tx+0x8c>)
 8002f42:	0011      	movs	r1, r2
 8002f44:	0018      	movs	r0, r3
 8002f46:	f003 fd43 	bl	80069d0 <iprintf>
    }
    lcd_putstring("end");
 8002f4a:	4b0a      	ldr	r3, [pc, #40]	; (8002f74 <handle_tx+0x90>)
 8002f4c:	0018      	movs	r0, r3
 8002f4e:	f7fd fd43 	bl	80009d8 <lcd_putstring>
}
 8002f52:	46c0      	nop			; (mov r8, r8)
 8002f54:	46bd      	mov	sp, r7
 8002f56:	b002      	add	sp, #8
 8002f58:	bd80      	pop	{r7, pc}
 8002f5a:	46c0      	nop			; (mov r8, r8)
 8002f5c:	08007da0 	.word	0x08007da0
 8002f60:	08007da8 	.word	0x08007da8
 8002f64:	20000000 	.word	0x20000000
 8002f68:	08007db0 	.word	0x08007db0
 8002f6c:	08007dc4 	.word	0x08007dc4
 8002f70:	08007dcc 	.word	0x08007dcc
 8002f74:	08007df8 	.word	0x08007df8

08002f78 <mrf_select>:

void mrf_select(void) {
 8002f78:	b580      	push	{r7, lr}
 8002f7a:	af00      	add	r7, sp, #0
    HAL_GPIO_WritePin(MRF_NSS_GPIO_Port, MRF_NSS_Pin, 0);
 8002f7c:	4b05      	ldr	r3, [pc, #20]	; (8002f94 <mrf_select+0x1c>)
 8002f7e:	2200      	movs	r2, #0
 8002f80:	2101      	movs	r1, #1
 8002f82:	0018      	movs	r0, r3
 8002f84:	f000 fef5 	bl	8003d72 <HAL_GPIO_WritePin>
    _delay_ms(100);
 8002f88:	2064      	movs	r0, #100	; 0x64
 8002f8a:	f000 f82b 	bl	8002fe4 <_delay_ms>
}
 8002f8e:	46c0      	nop			; (mov r8, r8)
 8002f90:	46bd      	mov	sp, r7
 8002f92:	bd80      	pop	{r7, pc}
 8002f94:	48000400 	.word	0x48000400

08002f98 <mrf_deselect>:

void mrf_deselect(void) {
 8002f98:	b580      	push	{r7, lr}
 8002f9a:	af00      	add	r7, sp, #0
    HAL_GPIO_WritePin(MRF_NSS_GPIO_Port, MRF_NSS_Pin, 1);
 8002f9c:	4b04      	ldr	r3, [pc, #16]	; (8002fb0 <mrf_deselect+0x18>)
 8002f9e:	2201      	movs	r2, #1
 8002fa0:	2101      	movs	r1, #1
 8002fa2:	0018      	movs	r0, r3
 8002fa4:	f000 fee5 	bl	8003d72 <HAL_GPIO_WritePin>
}
 8002fa8:	46c0      	nop			; (mov r8, r8)
 8002faa:	46bd      	mov	sp, r7
 8002fac:	bd80      	pop	{r7, pc}
 8002fae:	46c0      	nop			; (mov r8, r8)
 8002fb0:	48000400 	.word	0x48000400

08002fb4 <spi_tx>:

uint8_t spi_tx(uint8_t cData) {
 8002fb4:	b590      	push	{r4, r7, lr}
 8002fb6:	b087      	sub	sp, #28
 8002fb8:	af02      	add	r7, sp, #8
 8002fba:	0002      	movs	r2, r0
 8002fbc:	1dfb      	adds	r3, r7, #7
 8002fbe:	701a      	strb	r2, [r3, #0]
    uint8_t buff;
    HAL_SPI_TransmitReceive( & hspi1, & cData, & buff, sizeof(buff), 100);
 8002fc0:	240f      	movs	r4, #15
 8002fc2:	193a      	adds	r2, r7, r4
 8002fc4:	1df9      	adds	r1, r7, #7
 8002fc6:	4806      	ldr	r0, [pc, #24]	; (8002fe0 <spi_tx+0x2c>)
 8002fc8:	2364      	movs	r3, #100	; 0x64
 8002fca:	9300      	str	r3, [sp, #0]
 8002fcc:	2301      	movs	r3, #1
 8002fce:	f001 febb 	bl	8004d48 <HAL_SPI_TransmitReceive>
    return buff;
 8002fd2:	193b      	adds	r3, r7, r4
 8002fd4:	781b      	ldrb	r3, [r3, #0]
}
 8002fd6:	0018      	movs	r0, r3
 8002fd8:	46bd      	mov	sp, r7
 8002fda:	b005      	add	sp, #20
 8002fdc:	bd90      	pop	{r4, r7, pc}
 8002fde:	46c0      	nop			; (mov r8, r8)
 8002fe0:	20000144 	.word	0x20000144

08002fe4 <_delay_ms>:

void _delay_ms(int t) {
 8002fe4:	b580      	push	{r7, lr}
 8002fe6:	b082      	sub	sp, #8
 8002fe8:	af00      	add	r7, sp, #0
 8002fea:	6078      	str	r0, [r7, #4]
    HAL_Delay(t);
 8002fec:	687b      	ldr	r3, [r7, #4]
 8002fee:	0018      	movs	r0, r3
 8002ff0:	f000 fbca 	bl	8003788 <HAL_Delay>
}
 8002ff4:	46c0      	nop			; (mov r8, r8)
 8002ff6:	46bd      	mov	sp, r7
 8002ff8:	b002      	add	sp, #8
 8002ffa:	bd80      	pop	{r7, pc}

08002ffc <transmit_mrf>:

void transmit_mrf() {
 8002ffc:	b580      	push	{r7, lr}
 8002ffe:	af00      	add	r7, sp, #0
    lcd_command(LINE_TWO);
 8003000:	20c0      	movs	r0, #192	; 0xc0
 8003002:	f7fd fb03 	bl	800060c <lcd_command>
    lcd_putstring("MRF - ");
 8003006:	4b17      	ldr	r3, [pc, #92]	; (8003064 <transmit_mrf+0x68>)
 8003008:	0018      	movs	r0, r3
 800300a:	f7fd fce5 	bl	80009d8 <lcd_putstring>
    printf("Sending MRF...");
 800300e:	4b16      	ldr	r3, [pc, #88]	; (8003068 <transmit_mrf+0x6c>)
 8003010:	0018      	movs	r0, r3
 8003012:	f003 fcdd 	bl	80069d0 <iprintf>
    mrf_send16(0xFFFF, 8, &DEVICE_ID);
 8003016:	4b15      	ldr	r3, [pc, #84]	; (800306c <transmit_mrf+0x70>)
 8003018:	4815      	ldr	r0, [pc, #84]	; (8003070 <transmit_mrf+0x74>)
 800301a:	001a      	movs	r2, r3
 800301c:	2108      	movs	r1, #8
 800301e:	f7fd fe79 	bl	8000d14 <mrf_send16>
    HAL_Delay(500);
 8003022:	23fa      	movs	r3, #250	; 0xfa
 8003024:	005b      	lsls	r3, r3, #1
 8003026:	0018      	movs	r0, r3
 8003028:	f000 fbae 	bl	8003788 <HAL_Delay>
    mrf_check_flags( & handle_rx, & handle_tx);
 800302c:	4a11      	ldr	r2, [pc, #68]	; (8003074 <transmit_mrf+0x78>)
 800302e:	4b12      	ldr	r3, [pc, #72]	; (8003078 <transmit_mrf+0x7c>)
 8003030:	0011      	movs	r1, r2
 8003032:	0018      	movs	r0, r3
 8003034:	f7fe f8a2 	bl	800117c <mrf_check_flags>
    if (HAL_GPIO_ReadPin(MRF_INT_GPIO_Port, MRF_INT_Pin) == 0) {
 8003038:	4b10      	ldr	r3, [pc, #64]	; (800307c <transmit_mrf+0x80>)
 800303a:	2104      	movs	r1, #4
 800303c:	0018      	movs	r0, r3
 800303e:	f000 fe7b 	bl	8003d38 <HAL_GPIO_ReadPin>
 8003042:	1e03      	subs	r3, r0, #0
 8003044:	d10b      	bne.n	800305e <transmit_mrf+0x62>
    	lcd_putstring("-i-");
 8003046:	4b0e      	ldr	r3, [pc, #56]	; (8003080 <transmit_mrf+0x84>)
 8003048:	0018      	movs	r0, r3
 800304a:	f7fd fcc5 	bl	80009d8 <lcd_putstring>
        mrf_interrupt_handler();
 800304e:	f7fd ff93 	bl	8000f78 <mrf_interrupt_handler>
        mrf_check_flags( & handle_rx, & handle_tx);
 8003052:	4a08      	ldr	r2, [pc, #32]	; (8003074 <transmit_mrf+0x78>)
 8003054:	4b08      	ldr	r3, [pc, #32]	; (8003078 <transmit_mrf+0x7c>)
 8003056:	0011      	movs	r1, r2
 8003058:	0018      	movs	r0, r3
 800305a:	f7fe f88f 	bl	800117c <mrf_check_flags>
    }
}
 800305e:	46c0      	nop			; (mov r8, r8)
 8003060:	46bd      	mov	sp, r7
 8003062:	bd80      	pop	{r7, pc}
 8003064:	08007da0 	.word	0x08007da0
 8003068:	08007dfc 	.word	0x08007dfc
 800306c:	20000000 	.word	0x20000000
 8003070:	0000ffff 	.word	0x0000ffff
 8003074:	08002ee5 	.word	0x08002ee5
 8003078:	08002ea1 	.word	0x08002ea1
 800307c:	48000400 	.word	0x48000400
 8003080:	08007e0c 	.word	0x08007e0c

08003084 <transmit_lora>:

void transmit_lora(lora_sx1276 lora) {
 8003084:	b084      	sub	sp, #16
 8003086:	b5b0      	push	{r4, r5, r7, lr}
 8003088:	b082      	sub	sp, #8
 800308a:	af00      	add	r7, sp, #0
 800308c:	2518      	movs	r5, #24
 800308e:	197c      	adds	r4, r7, r5
 8003090:	6020      	str	r0, [r4, #0]
 8003092:	6061      	str	r1, [r4, #4]
 8003094:	60a2      	str	r2, [r4, #8]
 8003096:	60e3      	str	r3, [r4, #12]
    printf("Sending LORA...");
 8003098:	4b1c      	ldr	r3, [pc, #112]	; (800310c <transmit_lora+0x88>)
 800309a:	0018      	movs	r0, r3
 800309c:	f003 fc98 	bl	80069d0 <iprintf>

    uint8_t res = lora_send_packet( & lora, (uint8_t * ) DEVICE_ID, 1);
 80030a0:	1dfc      	adds	r4, r7, #7
 80030a2:	4b1b      	ldr	r3, [pc, #108]	; (8003110 <transmit_lora+0x8c>)
 80030a4:	1978      	adds	r0, r7, r5
 80030a6:	2201      	movs	r2, #1
 80030a8:	0019      	movs	r1, r3
 80030aa:	f7fe fc3e 	bl	800192a <lora_send_packet>
 80030ae:	0003      	movs	r3, r0
 80030b0:	7023      	strb	r3, [r4, #0]
    HAL_Delay(300);
 80030b2:	2396      	movs	r3, #150	; 0x96
 80030b4:	005b      	lsls	r3, r3, #1
 80030b6:	0018      	movs	r0, r3
 80030b8:	f000 fb66 	bl	8003788 <HAL_Delay>

    lcd_command(CURSOR_HOME);
 80030bc:	2002      	movs	r0, #2
 80030be:	f7fd faa5 	bl	800060c <lcd_command>
    lcd_putstring("LORA - ");
 80030c2:	4b14      	ldr	r3, [pc, #80]	; (8003114 <transmit_lora+0x90>)
 80030c4:	0018      	movs	r0, r3
 80030c6:	f7fd fc87 	bl	80009d8 <lcd_putstring>

    if (res != LORA_OK) {
 80030ca:	1dfb      	adds	r3, r7, #7
 80030cc:	781b      	ldrb	r3, [r3, #0]
 80030ce:	2b00      	cmp	r3, #0
 80030d0:	d008      	beq.n	80030e4 <transmit_lora+0x60>
        // Send failed
        lcd_putstring("Fail!");
 80030d2:	4b11      	ldr	r3, [pc, #68]	; (8003118 <transmit_lora+0x94>)
 80030d4:	0018      	movs	r0, r3
 80030d6:	f7fd fc7f 	bl	80009d8 <lcd_putstring>
        printf("Send failed\n");
 80030da:	4b10      	ldr	r3, [pc, #64]	; (800311c <transmit_lora+0x98>)
 80030dc:	0018      	movs	r0, r3
 80030de:	f003 fd05 	bl	8006aec <puts>
    } else {
        lcd_putstring("Sent ");
        lcd_putstring(DEVICE_ID[0]);
        printf("Packet sent!\n");
    }
}
 80030e2:	e00c      	b.n	80030fe <transmit_lora+0x7a>
        lcd_putstring("Sent ");
 80030e4:	4b0e      	ldr	r3, [pc, #56]	; (8003120 <transmit_lora+0x9c>)
 80030e6:	0018      	movs	r0, r3
 80030e8:	f7fd fc76 	bl	80009d8 <lcd_putstring>
        lcd_putstring(DEVICE_ID[0]);
 80030ec:	4b08      	ldr	r3, [pc, #32]	; (8003110 <transmit_lora+0x8c>)
 80030ee:	781b      	ldrb	r3, [r3, #0]
 80030f0:	0018      	movs	r0, r3
 80030f2:	f7fd fc71 	bl	80009d8 <lcd_putstring>
        printf("Packet sent!\n");
 80030f6:	4b0b      	ldr	r3, [pc, #44]	; (8003124 <transmit_lora+0xa0>)
 80030f8:	0018      	movs	r0, r3
 80030fa:	f003 fcf7 	bl	8006aec <puts>
}
 80030fe:	46c0      	nop			; (mov r8, r8)
 8003100:	46bd      	mov	sp, r7
 8003102:	b002      	add	sp, #8
 8003104:	bcb0      	pop	{r4, r5, r7}
 8003106:	bc08      	pop	{r3}
 8003108:	b004      	add	sp, #16
 800310a:	4718      	bx	r3
 800310c:	08007e10 	.word	0x08007e10
 8003110:	20000000 	.word	0x20000000
 8003114:	08007e20 	.word	0x08007e20
 8003118:	08007dc4 	.word	0x08007dc4
 800311c:	08007e28 	.word	0x08007e28
 8003120:	08007da8 	.word	0x08007da8
 8003124:	08007e34 	.word	0x08007e34

08003128 <receive_mrf>:

void receive_mrf() {
 8003128:	b580      	push	{r7, lr}
 800312a:	af00      	add	r7, sp, #0
    printf("MRF receiving....");
 800312c:	4b0e      	ldr	r3, [pc, #56]	; (8003168 <receive_mrf+0x40>)
 800312e:	0018      	movs	r0, r3
 8003130:	f003 fc4e 	bl	80069d0 <iprintf>
    mrf_check_flags( & handle_rx, & handle_tx);
 8003134:	4a0d      	ldr	r2, [pc, #52]	; (800316c <receive_mrf+0x44>)
 8003136:	4b0e      	ldr	r3, [pc, #56]	; (8003170 <receive_mrf+0x48>)
 8003138:	0011      	movs	r1, r2
 800313a:	0018      	movs	r0, r3
 800313c:	f7fe f81e 	bl	800117c <mrf_check_flags>
    if (HAL_GPIO_ReadPin(MRF_INT_GPIO_Port, MRF_INT_Pin) == 0) {
 8003140:	4b0c      	ldr	r3, [pc, #48]	; (8003174 <receive_mrf+0x4c>)
 8003142:	2104      	movs	r1, #4
 8003144:	0018      	movs	r0, r3
 8003146:	f000 fdf7 	bl	8003d38 <HAL_GPIO_ReadPin>
 800314a:	1e03      	subs	r3, r0, #0
 800314c:	d105      	bne.n	800315a <receive_mrf+0x32>
        printf("\n");
 800314e:	200a      	movs	r0, #10
 8003150:	f003 fc58 	bl	8006a04 <putchar>
        mrf_interrupt_handler();
 8003154:	f7fd ff10 	bl	8000f78 <mrf_interrupt_handler>
    } else {
        printf(" Nothing to receive!\n");
    }

}
 8003158:	e003      	b.n	8003162 <receive_mrf+0x3a>
        printf(" Nothing to receive!\n");
 800315a:	4b07      	ldr	r3, [pc, #28]	; (8003178 <receive_mrf+0x50>)
 800315c:	0018      	movs	r0, r3
 800315e:	f003 fcc5 	bl	8006aec <puts>
}
 8003162:	46c0      	nop			; (mov r8, r8)
 8003164:	46bd      	mov	sp, r7
 8003166:	bd80      	pop	{r7, pc}
 8003168:	08007e44 	.word	0x08007e44
 800316c:	08002ee5 	.word	0x08002ee5
 8003170:	08002ea1 	.word	0x08002ea1
 8003174:	48000400 	.word	0x48000400
 8003178:	08007e58 	.word	0x08007e58

0800317c <receive_lora>:

void receive_lora(lora_sx1276 lora) {
 800317c:	b084      	sub	sp, #16
 800317e:	b5b0      	push	{r4, r5, r7, lr}
 8003180:	b08c      	sub	sp, #48	; 0x30
 8003182:	af02      	add	r7, sp, #8
 8003184:	2538      	movs	r5, #56	; 0x38
 8003186:	197c      	adds	r4, r7, r5
 8003188:	6020      	str	r0, [r4, #0]
 800318a:	6061      	str	r1, [r4, #4]
 800318c:	60a2      	str	r2, [r4, #8]
 800318e:	60e3      	str	r3, [r4, #12]
    printf("Lora receiving....");
 8003190:	4b25      	ldr	r3, [pc, #148]	; (8003228 <receive_lora+0xac>)
 8003192:	0018      	movs	r0, r3
 8003194:	f003 fc1c 	bl	80069d0 <iprintf>
    uint8_t buffer[32];

    lora_mode_receive_continious( & lora);
 8003198:	197b      	adds	r3, r7, r5
 800319a:	0018      	movs	r0, r3
 800319c:	f7fe f9c9 	bl	8001532 <lora_mode_receive_continious>

    uint8_t res;
    uint8_t len = lora_receive_packet_blocking( & lora, buffer, sizeof(buffer), 1500, & res);
 80031a0:	2327      	movs	r3, #39	; 0x27
 80031a2:	18fc      	adds	r4, r7, r3
 80031a4:	4a21      	ldr	r2, [pc, #132]	; (800322c <receive_lora+0xb0>)
 80031a6:	1d39      	adds	r1, r7, #4
 80031a8:	1978      	adds	r0, r7, r5
 80031aa:	1cfb      	adds	r3, r7, #3
 80031ac:	9300      	str	r3, [sp, #0]
 80031ae:	0013      	movs	r3, r2
 80031b0:	2220      	movs	r2, #32
 80031b2:	f7fe fc9e 	bl	8001af2 <lora_receive_packet_blocking>
 80031b6:	0003      	movs	r3, r0
 80031b8:	7023      	strb	r3, [r4, #0]
    uint8_t rssi = lora_packet_rssi( & lora);
 80031ba:	2326      	movs	r3, #38	; 0x26
 80031bc:	18fc      	adds	r4, r7, r3
 80031be:	197b      	adds	r3, r7, r5
 80031c0:	0018      	movs	r0, r3
 80031c2:	f7fe faa5 	bl	8001710 <lora_packet_rssi>
 80031c6:	0003      	movs	r3, r0
 80031c8:	7023      	strb	r3, [r4, #0]
    if (res != LORA_OK) {
 80031ca:	1cfb      	adds	r3, r7, #3
 80031cc:	781b      	ldrb	r3, [r3, #0]
 80031ce:	2b00      	cmp	r3, #0
 80031d0:	d004      	beq.n	80031dc <receive_lora+0x60>
        printf(" No message received!\n");
 80031d2:	4b17      	ldr	r3, [pc, #92]	; (8003230 <receive_lora+0xb4>)
 80031d4:	0018      	movs	r0, r3
 80031d6:	f003 fc89 	bl	8006aec <puts>
        printf("success!\nData: %s\n", buffer);
        printf("LORA RSSI = %d\n", rssi);
        last_lora_rssi = rssi;
        count_lora++;
    }
}
 80031da:	e01d      	b.n	8003218 <receive_lora+0x9c>
        buffer[len] = 0; // null terminate string to print it
 80031dc:	2327      	movs	r3, #39	; 0x27
 80031de:	18fb      	adds	r3, r7, r3
 80031e0:	781b      	ldrb	r3, [r3, #0]
 80031e2:	1d3a      	adds	r2, r7, #4
 80031e4:	2100      	movs	r1, #0
 80031e6:	54d1      	strb	r1, [r2, r3]
        printf("success!\nData: %s\n", buffer);
 80031e8:	1d3a      	adds	r2, r7, #4
 80031ea:	4b12      	ldr	r3, [pc, #72]	; (8003234 <receive_lora+0xb8>)
 80031ec:	0011      	movs	r1, r2
 80031ee:	0018      	movs	r0, r3
 80031f0:	f003 fbee 	bl	80069d0 <iprintf>
        printf("LORA RSSI = %d\n", rssi);
 80031f4:	2426      	movs	r4, #38	; 0x26
 80031f6:	193b      	adds	r3, r7, r4
 80031f8:	781a      	ldrb	r2, [r3, #0]
 80031fa:	4b0f      	ldr	r3, [pc, #60]	; (8003238 <receive_lora+0xbc>)
 80031fc:	0011      	movs	r1, r2
 80031fe:	0018      	movs	r0, r3
 8003200:	f003 fbe6 	bl	80069d0 <iprintf>
        last_lora_rssi = rssi;
 8003204:	4b0d      	ldr	r3, [pc, #52]	; (800323c <receive_lora+0xc0>)
 8003206:	193a      	adds	r2, r7, r4
 8003208:	7812      	ldrb	r2, [r2, #0]
 800320a:	701a      	strb	r2, [r3, #0]
        count_lora++;
 800320c:	4b0c      	ldr	r3, [pc, #48]	; (8003240 <receive_lora+0xc4>)
 800320e:	781b      	ldrb	r3, [r3, #0]
 8003210:	3301      	adds	r3, #1
 8003212:	b2da      	uxtb	r2, r3
 8003214:	4b0a      	ldr	r3, [pc, #40]	; (8003240 <receive_lora+0xc4>)
 8003216:	701a      	strb	r2, [r3, #0]
}
 8003218:	46c0      	nop			; (mov r8, r8)
 800321a:	46bd      	mov	sp, r7
 800321c:	b00a      	add	sp, #40	; 0x28
 800321e:	bcb0      	pop	{r4, r5, r7}
 8003220:	bc08      	pop	{r3}
 8003222:	b004      	add	sp, #16
 8003224:	4718      	bx	r3
 8003226:	46c0      	nop			; (mov r8, r8)
 8003228:	08007c54 	.word	0x08007c54
 800322c:	000005dc 	.word	0x000005dc
 8003230:	08007c78 	.word	0x08007c78
 8003234:	08007e70 	.word	0x08007e70
 8003238:	08007e84 	.word	0x08007e84
 800323c:	20000122 	.word	0x20000122
 8003240:	2000011f 	.word	0x2000011f

08003244 <UlToStr>:

void UlToStr(char * s, unsigned long bin, unsigned char n) {
 8003244:	b580      	push	{r7, lr}
 8003246:	b084      	sub	sp, #16
 8003248:	af00      	add	r7, sp, #0
 800324a:	60f8      	str	r0, [r7, #12]
 800324c:	60b9      	str	r1, [r7, #8]
 800324e:	1dfb      	adds	r3, r7, #7
 8003250:	701a      	strb	r2, [r3, #0]
    s += n;
 8003252:	1dfb      	adds	r3, r7, #7
 8003254:	781b      	ldrb	r3, [r3, #0]
 8003256:	68fa      	ldr	r2, [r7, #12]
 8003258:	18d3      	adds	r3, r2, r3
 800325a:	60fb      	str	r3, [r7, #12]
    * s = '\0';
 800325c:	68fb      	ldr	r3, [r7, #12]
 800325e:	2200      	movs	r2, #0
 8003260:	701a      	strb	r2, [r3, #0]

    while (n--) {
 8003262:	e014      	b.n	800328e <UlToStr+0x4a>
        *--s = (bin % 10) + '0';
 8003264:	68bb      	ldr	r3, [r7, #8]
 8003266:	210a      	movs	r1, #10
 8003268:	0018      	movs	r0, r3
 800326a:	f7fc ffd3 	bl	8000214 <__aeabi_uidivmod>
 800326e:	000b      	movs	r3, r1
 8003270:	b2db      	uxtb	r3, r3
 8003272:	68fa      	ldr	r2, [r7, #12]
 8003274:	3a01      	subs	r2, #1
 8003276:	60fa      	str	r2, [r7, #12]
 8003278:	3330      	adds	r3, #48	; 0x30
 800327a:	b2da      	uxtb	r2, r3
 800327c:	68fb      	ldr	r3, [r7, #12]
 800327e:	701a      	strb	r2, [r3, #0]
        bin /= 10;
 8003280:	68bb      	ldr	r3, [r7, #8]
 8003282:	210a      	movs	r1, #10
 8003284:	0018      	movs	r0, r3
 8003286:	f7fc ff3f 	bl	8000108 <__udivsi3>
 800328a:	0003      	movs	r3, r0
 800328c:	60bb      	str	r3, [r7, #8]
    while (n--) {
 800328e:	1dfb      	adds	r3, r7, #7
 8003290:	781b      	ldrb	r3, [r3, #0]
 8003292:	1dfa      	adds	r2, r7, #7
 8003294:	1e59      	subs	r1, r3, #1
 8003296:	7011      	strb	r1, [r2, #0]
 8003298:	2b00      	cmp	r3, #0
 800329a:	d1e3      	bne.n	8003264 <UlToStr+0x20>
    }
}
 800329c:	46c0      	nop			; (mov r8, r8)
 800329e:	46bd      	mov	sp, r7
 80032a0:	b004      	add	sp, #16
 80032a2:	bd80      	pop	{r7, pc}

080032a4 <Error_Handler>:

/**
 * @brief  This function is executed in case of error occurrence.
 * @retval None
 */
void Error_Handler(void) {
 80032a4:	b580      	push	{r7, lr}
 80032a6:	af00      	add	r7, sp, #0
    /* USER CODE BEGIN Error_Handler_Debug */
    /* User can add his own implementation to report the HAL error return state */

    /* USER CODE END Error_Handler_Debug */
}
 80032a8:	46c0      	nop			; (mov r8, r8)
 80032aa:	46bd      	mov	sp, r7
 80032ac:	bd80      	pop	{r7, pc}
	...

080032b0 <RetargetInit>:
#define STDOUT_FILENO 1
#define STDERR_FILENO 2

UART_HandleTypeDef *gHuart;

void RetargetInit(UART_HandleTypeDef *huart) {
 80032b0:	b580      	push	{r7, lr}
 80032b2:	b082      	sub	sp, #8
 80032b4:	af00      	add	r7, sp, #0
 80032b6:	6078      	str	r0, [r7, #4]
  gHuart = huart;
 80032b8:	4b07      	ldr	r3, [pc, #28]	; (80032d8 <RetargetInit+0x28>)
 80032ba:	687a      	ldr	r2, [r7, #4]
 80032bc:	601a      	str	r2, [r3, #0]

  /* Disable I/O buffering for STDOUT stream, so that
   * chars are sent out as soon as they are printed. */
  setvbuf(stdout, NULL, _IONBF, 0);
 80032be:	4b07      	ldr	r3, [pc, #28]	; (80032dc <RetargetInit+0x2c>)
 80032c0:	681b      	ldr	r3, [r3, #0]
 80032c2:	6898      	ldr	r0, [r3, #8]
 80032c4:	2300      	movs	r3, #0
 80032c6:	2202      	movs	r2, #2
 80032c8:	2100      	movs	r1, #0
 80032ca:	f003 fc19 	bl	8006b00 <setvbuf>
}
 80032ce:	46c0      	nop			; (mov r8, r8)
 80032d0:	46bd      	mov	sp, r7
 80032d2:	b002      	add	sp, #8
 80032d4:	bd80      	pop	{r7, pc}
 80032d6:	46c0      	nop			; (mov r8, r8)
 80032d8:	20000228 	.word	0x20000228
 80032dc:	20000010 	.word	0x20000010

080032e0 <_isatty>:

int _isatty(int fd) {
 80032e0:	b580      	push	{r7, lr}
 80032e2:	b082      	sub	sp, #8
 80032e4:	af00      	add	r7, sp, #0
 80032e6:	6078      	str	r0, [r7, #4]
  if (fd >= STDIN_FILENO && fd <= STDERR_FILENO)
 80032e8:	687b      	ldr	r3, [r7, #4]
 80032ea:	2b00      	cmp	r3, #0
 80032ec:	db04      	blt.n	80032f8 <_isatty+0x18>
 80032ee:	687b      	ldr	r3, [r7, #4]
 80032f0:	2b02      	cmp	r3, #2
 80032f2:	dc01      	bgt.n	80032f8 <_isatty+0x18>
    return 1;
 80032f4:	2301      	movs	r3, #1
 80032f6:	e005      	b.n	8003304 <_isatty+0x24>

  errno = EBADF;
 80032f8:	f003 fb38 	bl	800696c <__errno>
 80032fc:	0003      	movs	r3, r0
 80032fe:	2209      	movs	r2, #9
 8003300:	601a      	str	r2, [r3, #0]
  return 0;
 8003302:	2300      	movs	r3, #0
}
 8003304:	0018      	movs	r0, r3
 8003306:	46bd      	mov	sp, r7
 8003308:	b002      	add	sp, #8
 800330a:	bd80      	pop	{r7, pc}

0800330c <_write>:

int _write(int fd, char* ptr, int len) {
 800330c:	b5b0      	push	{r4, r5, r7, lr}
 800330e:	b086      	sub	sp, #24
 8003310:	af00      	add	r7, sp, #0
 8003312:	60f8      	str	r0, [r7, #12]
 8003314:	60b9      	str	r1, [r7, #8]
 8003316:	607a      	str	r2, [r7, #4]
  HAL_StatusTypeDef hstatus;

  if (fd == STDOUT_FILENO || fd == STDERR_FILENO) {
 8003318:	68fb      	ldr	r3, [r7, #12]
 800331a:	2b01      	cmp	r3, #1
 800331c:	d002      	beq.n	8003324 <_write+0x18>
 800331e:	68fb      	ldr	r3, [r7, #12]
 8003320:	2b02      	cmp	r3, #2
 8003322:	d114      	bne.n	800334e <_write+0x42>
    hstatus = HAL_UART_Transmit(gHuart, (uint8_t *) ptr, len, HAL_MAX_DELAY);
 8003324:	4b0f      	ldr	r3, [pc, #60]	; (8003364 <_write+0x58>)
 8003326:	6818      	ldr	r0, [r3, #0]
 8003328:	687b      	ldr	r3, [r7, #4]
 800332a:	b29a      	uxth	r2, r3
 800332c:	2517      	movs	r5, #23
 800332e:	197c      	adds	r4, r7, r5
 8003330:	2301      	movs	r3, #1
 8003332:	425b      	negs	r3, r3
 8003334:	68b9      	ldr	r1, [r7, #8]
 8003336:	f002 fe9b 	bl	8006070 <HAL_UART_Transmit>
 800333a:	0003      	movs	r3, r0
 800333c:	7023      	strb	r3, [r4, #0]
    if (hstatus == HAL_OK)
 800333e:	197b      	adds	r3, r7, r5
 8003340:	781b      	ldrb	r3, [r3, #0]
 8003342:	2b00      	cmp	r3, #0
 8003344:	d101      	bne.n	800334a <_write+0x3e>
      return len;
 8003346:	687b      	ldr	r3, [r7, #4]
 8003348:	e008      	b.n	800335c <_write+0x50>
    else
      return EIO;
 800334a:	2305      	movs	r3, #5
 800334c:	e006      	b.n	800335c <_write+0x50>
  }
  errno = EBADF;
 800334e:	f003 fb0d 	bl	800696c <__errno>
 8003352:	0003      	movs	r3, r0
 8003354:	2209      	movs	r2, #9
 8003356:	601a      	str	r2, [r3, #0]
  return -1;
 8003358:	2301      	movs	r3, #1
 800335a:	425b      	negs	r3, r3
}
 800335c:	0018      	movs	r0, r3
 800335e:	46bd      	mov	sp, r7
 8003360:	b006      	add	sp, #24
 8003362:	bdb0      	pop	{r4, r5, r7, pc}
 8003364:	20000228 	.word	0x20000228

08003368 <_close>:

int _close(int fd) {
 8003368:	b580      	push	{r7, lr}
 800336a:	b082      	sub	sp, #8
 800336c:	af00      	add	r7, sp, #0
 800336e:	6078      	str	r0, [r7, #4]
  if (fd >= STDIN_FILENO && fd <= STDERR_FILENO)
 8003370:	687b      	ldr	r3, [r7, #4]
 8003372:	2b00      	cmp	r3, #0
 8003374:	db04      	blt.n	8003380 <_close+0x18>
 8003376:	687b      	ldr	r3, [r7, #4]
 8003378:	2b02      	cmp	r3, #2
 800337a:	dc01      	bgt.n	8003380 <_close+0x18>
    return 0;
 800337c:	2300      	movs	r3, #0
 800337e:	e006      	b.n	800338e <_close+0x26>

  errno = EBADF;
 8003380:	f003 faf4 	bl	800696c <__errno>
 8003384:	0003      	movs	r3, r0
 8003386:	2209      	movs	r2, #9
 8003388:	601a      	str	r2, [r3, #0]
  return -1;
 800338a:	2301      	movs	r3, #1
 800338c:	425b      	negs	r3, r3
}
 800338e:	0018      	movs	r0, r3
 8003390:	46bd      	mov	sp, r7
 8003392:	b002      	add	sp, #8
 8003394:	bd80      	pop	{r7, pc}

08003396 <_lseek>:

int _lseek(int fd, int ptr, int dir) {
 8003396:	b580      	push	{r7, lr}
 8003398:	b084      	sub	sp, #16
 800339a:	af00      	add	r7, sp, #0
 800339c:	60f8      	str	r0, [r7, #12]
 800339e:	60b9      	str	r1, [r7, #8]
 80033a0:	607a      	str	r2, [r7, #4]
  (void) fd;
  (void) ptr;
  (void) dir;

  errno = EBADF;
 80033a2:	f003 fae3 	bl	800696c <__errno>
 80033a6:	0003      	movs	r3, r0
 80033a8:	2209      	movs	r2, #9
 80033aa:	601a      	str	r2, [r3, #0]
  return -1;
 80033ac:	2301      	movs	r3, #1
 80033ae:	425b      	negs	r3, r3
}
 80033b0:	0018      	movs	r0, r3
 80033b2:	46bd      	mov	sp, r7
 80033b4:	b004      	add	sp, #16
 80033b6:	bd80      	pop	{r7, pc}

080033b8 <_read>:

int _read(int fd, char* ptr, int len) {
 80033b8:	b5b0      	push	{r4, r5, r7, lr}
 80033ba:	b086      	sub	sp, #24
 80033bc:	af00      	add	r7, sp, #0
 80033be:	60f8      	str	r0, [r7, #12]
 80033c0:	60b9      	str	r1, [r7, #8]
 80033c2:	607a      	str	r2, [r7, #4]
  HAL_StatusTypeDef hstatus;

  if (fd == STDIN_FILENO) {
 80033c4:	68fb      	ldr	r3, [r7, #12]
 80033c6:	2b00      	cmp	r3, #0
 80033c8:	d113      	bne.n	80033f2 <_read+0x3a>
    hstatus = HAL_UART_Receive(gHuart, (uint8_t *) ptr, 1, HAL_MAX_DELAY);
 80033ca:	4b0f      	ldr	r3, [pc, #60]	; (8003408 <_read+0x50>)
 80033cc:	6818      	ldr	r0, [r3, #0]
 80033ce:	2517      	movs	r5, #23
 80033d0:	197c      	adds	r4, r7, r5
 80033d2:	2301      	movs	r3, #1
 80033d4:	425b      	negs	r3, r3
 80033d6:	68b9      	ldr	r1, [r7, #8]
 80033d8:	2201      	movs	r2, #1
 80033da:	f002 fef1 	bl	80061c0 <HAL_UART_Receive>
 80033de:	0003      	movs	r3, r0
 80033e0:	7023      	strb	r3, [r4, #0]
    if (hstatus == HAL_OK)
 80033e2:	197b      	adds	r3, r7, r5
 80033e4:	781b      	ldrb	r3, [r3, #0]
 80033e6:	2b00      	cmp	r3, #0
 80033e8:	d101      	bne.n	80033ee <_read+0x36>
      return 1;
 80033ea:	2301      	movs	r3, #1
 80033ec:	e008      	b.n	8003400 <_read+0x48>
    else
      return EIO;
 80033ee:	2305      	movs	r3, #5
 80033f0:	e006      	b.n	8003400 <_read+0x48>
  }
  errno = EBADF;
 80033f2:	f003 fabb 	bl	800696c <__errno>
 80033f6:	0003      	movs	r3, r0
 80033f8:	2209      	movs	r2, #9
 80033fa:	601a      	str	r2, [r3, #0]
  return -1;
 80033fc:	2301      	movs	r3, #1
 80033fe:	425b      	negs	r3, r3
}
 8003400:	0018      	movs	r0, r3
 8003402:	46bd      	mov	sp, r7
 8003404:	b006      	add	sp, #24
 8003406:	bdb0      	pop	{r4, r5, r7, pc}
 8003408:	20000228 	.word	0x20000228

0800340c <_fstat>:

int _fstat(int fd, struct stat* st) {
 800340c:	b580      	push	{r7, lr}
 800340e:	b082      	sub	sp, #8
 8003410:	af00      	add	r7, sp, #0
 8003412:	6078      	str	r0, [r7, #4]
 8003414:	6039      	str	r1, [r7, #0]
  if (fd >= STDIN_FILENO && fd <= STDERR_FILENO) {
 8003416:	687b      	ldr	r3, [r7, #4]
 8003418:	2b00      	cmp	r3, #0
 800341a:	db08      	blt.n	800342e <_fstat+0x22>
 800341c:	687b      	ldr	r3, [r7, #4]
 800341e:	2b02      	cmp	r3, #2
 8003420:	dc05      	bgt.n	800342e <_fstat+0x22>
    st->st_mode = S_IFCHR;
 8003422:	683b      	ldr	r3, [r7, #0]
 8003424:	2280      	movs	r2, #128	; 0x80
 8003426:	0192      	lsls	r2, r2, #6
 8003428:	605a      	str	r2, [r3, #4]
    return 0;
 800342a:	2300      	movs	r3, #0
 800342c:	e005      	b.n	800343a <_fstat+0x2e>
  }

  errno = EBADF;
 800342e:	f003 fa9d 	bl	800696c <__errno>
 8003432:	0003      	movs	r3, r0
 8003434:	2209      	movs	r2, #9
 8003436:	601a      	str	r2, [r3, #0]
  return 0;
 8003438:	2300      	movs	r3, #0
}
 800343a:	0018      	movs	r0, r3
 800343c:	46bd      	mov	sp, r7
 800343e:	b002      	add	sp, #8
 8003440:	bd80      	pop	{r7, pc}
	...

08003444 <HAL_MspInit>:
/* USER CODE END 0 */
/**
  * Initializes the Global MSP.
  */
void HAL_MspInit(void)
{
 8003444:	b580      	push	{r7, lr}
 8003446:	b082      	sub	sp, #8
 8003448:	af00      	add	r7, sp, #0
  /* USER CODE BEGIN MspInit 0 */

  /* USER CODE END MspInit 0 */

  __HAL_RCC_SYSCFG_CLK_ENABLE();
 800344a:	4b0f      	ldr	r3, [pc, #60]	; (8003488 <HAL_MspInit+0x44>)
 800344c:	699a      	ldr	r2, [r3, #24]
 800344e:	4b0e      	ldr	r3, [pc, #56]	; (8003488 <HAL_MspInit+0x44>)
 8003450:	2101      	movs	r1, #1
 8003452:	430a      	orrs	r2, r1
 8003454:	619a      	str	r2, [r3, #24]
 8003456:	4b0c      	ldr	r3, [pc, #48]	; (8003488 <HAL_MspInit+0x44>)
 8003458:	699b      	ldr	r3, [r3, #24]
 800345a:	2201      	movs	r2, #1
 800345c:	4013      	ands	r3, r2
 800345e:	607b      	str	r3, [r7, #4]
 8003460:	687b      	ldr	r3, [r7, #4]
  __HAL_RCC_PWR_CLK_ENABLE();
 8003462:	4b09      	ldr	r3, [pc, #36]	; (8003488 <HAL_MspInit+0x44>)
 8003464:	69da      	ldr	r2, [r3, #28]
 8003466:	4b08      	ldr	r3, [pc, #32]	; (8003488 <HAL_MspInit+0x44>)
 8003468:	2180      	movs	r1, #128	; 0x80
 800346a:	0549      	lsls	r1, r1, #21
 800346c:	430a      	orrs	r2, r1
 800346e:	61da      	str	r2, [r3, #28]
 8003470:	4b05      	ldr	r3, [pc, #20]	; (8003488 <HAL_MspInit+0x44>)
 8003472:	69da      	ldr	r2, [r3, #28]
 8003474:	2380      	movs	r3, #128	; 0x80
 8003476:	055b      	lsls	r3, r3, #21
 8003478:	4013      	ands	r3, r2
 800347a:	603b      	str	r3, [r7, #0]
 800347c:	683b      	ldr	r3, [r7, #0]
  /* System interrupt init*/

  /* USER CODE BEGIN MspInit 1 */

  /* USER CODE END MspInit 1 */
}
 800347e:	46c0      	nop			; (mov r8, r8)
 8003480:	46bd      	mov	sp, r7
 8003482:	b002      	add	sp, #8
 8003484:	bd80      	pop	{r7, pc}
 8003486:	46c0      	nop			; (mov r8, r8)
 8003488:	40021000 	.word	0x40021000

0800348c <HAL_SPI_MspInit>:
* This function configures the hardware resources used in this example
* @param hspi: SPI handle pointer
* @retval None
*/
void HAL_SPI_MspInit(SPI_HandleTypeDef* hspi)
{
 800348c:	b580      	push	{r7, lr}
 800348e:	b08a      	sub	sp, #40	; 0x28
 8003490:	af00      	add	r7, sp, #0
 8003492:	6078      	str	r0, [r7, #4]
  GPIO_InitTypeDef GPIO_InitStruct = {0};
 8003494:	2314      	movs	r3, #20
 8003496:	18fb      	adds	r3, r7, r3
 8003498:	0018      	movs	r0, r3
 800349a:	2314      	movs	r3, #20
 800349c:	001a      	movs	r2, r3
 800349e:	2100      	movs	r1, #0
 80034a0:	f003 fa8e 	bl	80069c0 <memset>
  if(hspi->Instance==SPI1)
 80034a4:	687b      	ldr	r3, [r7, #4]
 80034a6:	681b      	ldr	r3, [r3, #0]
 80034a8:	4a1c      	ldr	r2, [pc, #112]	; (800351c <HAL_SPI_MspInit+0x90>)
 80034aa:	4293      	cmp	r3, r2
 80034ac:	d132      	bne.n	8003514 <HAL_SPI_MspInit+0x88>
  {
  /* USER CODE BEGIN SPI1_MspInit 0 */

  /* USER CODE END SPI1_MspInit 0 */
    /* Peripheral clock enable */
    __HAL_RCC_SPI1_CLK_ENABLE();
 80034ae:	4b1c      	ldr	r3, [pc, #112]	; (8003520 <HAL_SPI_MspInit+0x94>)
 80034b0:	699a      	ldr	r2, [r3, #24]
 80034b2:	4b1b      	ldr	r3, [pc, #108]	; (8003520 <HAL_SPI_MspInit+0x94>)
 80034b4:	2180      	movs	r1, #128	; 0x80
 80034b6:	0149      	lsls	r1, r1, #5
 80034b8:	430a      	orrs	r2, r1
 80034ba:	619a      	str	r2, [r3, #24]
 80034bc:	4b18      	ldr	r3, [pc, #96]	; (8003520 <HAL_SPI_MspInit+0x94>)
 80034be:	699a      	ldr	r2, [r3, #24]
 80034c0:	2380      	movs	r3, #128	; 0x80
 80034c2:	015b      	lsls	r3, r3, #5
 80034c4:	4013      	ands	r3, r2
 80034c6:	613b      	str	r3, [r7, #16]
 80034c8:	693b      	ldr	r3, [r7, #16]

    __HAL_RCC_GPIOA_CLK_ENABLE();
 80034ca:	4b15      	ldr	r3, [pc, #84]	; (8003520 <HAL_SPI_MspInit+0x94>)
 80034cc:	695a      	ldr	r2, [r3, #20]
 80034ce:	4b14      	ldr	r3, [pc, #80]	; (8003520 <HAL_SPI_MspInit+0x94>)
 80034d0:	2180      	movs	r1, #128	; 0x80
 80034d2:	0289      	lsls	r1, r1, #10
 80034d4:	430a      	orrs	r2, r1
 80034d6:	615a      	str	r2, [r3, #20]
 80034d8:	4b11      	ldr	r3, [pc, #68]	; (8003520 <HAL_SPI_MspInit+0x94>)
 80034da:	695a      	ldr	r2, [r3, #20]
 80034dc:	2380      	movs	r3, #128	; 0x80
 80034de:	029b      	lsls	r3, r3, #10
 80034e0:	4013      	ands	r3, r2
 80034e2:	60fb      	str	r3, [r7, #12]
 80034e4:	68fb      	ldr	r3, [r7, #12]
    /**SPI1 GPIO Configuration
    PA5     ------> SPI1_SCK
    PA6     ------> SPI1_MISO
    PA7     ------> SPI1_MOSI
    */
    GPIO_InitStruct.Pin = GPIO_PIN_5|GPIO_PIN_6|GPIO_PIN_7;
 80034e6:	2114      	movs	r1, #20
 80034e8:	187b      	adds	r3, r7, r1
 80034ea:	22e0      	movs	r2, #224	; 0xe0
 80034ec:	601a      	str	r2, [r3, #0]
    GPIO_InitStruct.Mode = GPIO_MODE_AF_PP;
 80034ee:	187b      	adds	r3, r7, r1
 80034f0:	2202      	movs	r2, #2
 80034f2:	605a      	str	r2, [r3, #4]
    GPIO_InitStruct.Pull = GPIO_NOPULL;
 80034f4:	187b      	adds	r3, r7, r1
 80034f6:	2200      	movs	r2, #0
 80034f8:	609a      	str	r2, [r3, #8]
    GPIO_InitStruct.Speed = GPIO_SPEED_FREQ_HIGH;
 80034fa:	187b      	adds	r3, r7, r1
 80034fc:	2203      	movs	r2, #3
 80034fe:	60da      	str	r2, [r3, #12]
    GPIO_InitStruct.Alternate = GPIO_AF0_SPI1;
 8003500:	187b      	adds	r3, r7, r1
 8003502:	2200      	movs	r2, #0
 8003504:	611a      	str	r2, [r3, #16]
    HAL_GPIO_Init(GPIOA, &GPIO_InitStruct);
 8003506:	187a      	adds	r2, r7, r1
 8003508:	2390      	movs	r3, #144	; 0x90
 800350a:	05db      	lsls	r3, r3, #23
 800350c:	0011      	movs	r1, r2
 800350e:	0018      	movs	r0, r3
 8003510:	f000 faa2 	bl	8003a58 <HAL_GPIO_Init>
  /* USER CODE BEGIN SPI1_MspInit 1 */

  /* USER CODE END SPI1_MspInit 1 */
  }

}
 8003514:	46c0      	nop			; (mov r8, r8)
 8003516:	46bd      	mov	sp, r7
 8003518:	b00a      	add	sp, #40	; 0x28
 800351a:	bd80      	pop	{r7, pc}
 800351c:	40013000 	.word	0x40013000
 8003520:	40021000 	.word	0x40021000

08003524 <HAL_UART_MspInit>:
* This function configures the hardware resources used in this example
* @param huart: UART handle pointer
* @retval None
*/
void HAL_UART_MspInit(UART_HandleTypeDef* huart)
{
 8003524:	b580      	push	{r7, lr}
 8003526:	b08a      	sub	sp, #40	; 0x28
 8003528:	af00      	add	r7, sp, #0
 800352a:	6078      	str	r0, [r7, #4]
  GPIO_InitTypeDef GPIO_InitStruct = {0};
 800352c:	2314      	movs	r3, #20
 800352e:	18fb      	adds	r3, r7, r3
 8003530:	0018      	movs	r0, r3
 8003532:	2314      	movs	r3, #20
 8003534:	001a      	movs	r2, r3
 8003536:	2100      	movs	r1, #0
 8003538:	f003 fa42 	bl	80069c0 <memset>
  if(huart->Instance==USART2)
 800353c:	687b      	ldr	r3, [r7, #4]
 800353e:	681b      	ldr	r3, [r3, #0]
 8003540:	4a1d      	ldr	r2, [pc, #116]	; (80035b8 <HAL_UART_MspInit+0x94>)
 8003542:	4293      	cmp	r3, r2
 8003544:	d133      	bne.n	80035ae <HAL_UART_MspInit+0x8a>
  {
  /* USER CODE BEGIN USART2_MspInit 0 */

  /* USER CODE END USART2_MspInit 0 */
    /* Peripheral clock enable */
    __HAL_RCC_USART2_CLK_ENABLE();
 8003546:	4b1d      	ldr	r3, [pc, #116]	; (80035bc <HAL_UART_MspInit+0x98>)
 8003548:	69da      	ldr	r2, [r3, #28]
 800354a:	4b1c      	ldr	r3, [pc, #112]	; (80035bc <HAL_UART_MspInit+0x98>)
 800354c:	2180      	movs	r1, #128	; 0x80
 800354e:	0289      	lsls	r1, r1, #10
 8003550:	430a      	orrs	r2, r1
 8003552:	61da      	str	r2, [r3, #28]
 8003554:	4b19      	ldr	r3, [pc, #100]	; (80035bc <HAL_UART_MspInit+0x98>)
 8003556:	69da      	ldr	r2, [r3, #28]
 8003558:	2380      	movs	r3, #128	; 0x80
 800355a:	029b      	lsls	r3, r3, #10
 800355c:	4013      	ands	r3, r2
 800355e:	613b      	str	r3, [r7, #16]
 8003560:	693b      	ldr	r3, [r7, #16]

    __HAL_RCC_GPIOA_CLK_ENABLE();
 8003562:	4b16      	ldr	r3, [pc, #88]	; (80035bc <HAL_UART_MspInit+0x98>)
 8003564:	695a      	ldr	r2, [r3, #20]
 8003566:	4b15      	ldr	r3, [pc, #84]	; (80035bc <HAL_UART_MspInit+0x98>)
 8003568:	2180      	movs	r1, #128	; 0x80
 800356a:	0289      	lsls	r1, r1, #10
 800356c:	430a      	orrs	r2, r1
 800356e:	615a      	str	r2, [r3, #20]
 8003570:	4b12      	ldr	r3, [pc, #72]	; (80035bc <HAL_UART_MspInit+0x98>)
 8003572:	695a      	ldr	r2, [r3, #20]
 8003574:	2380      	movs	r3, #128	; 0x80
 8003576:	029b      	lsls	r3, r3, #10
 8003578:	4013      	ands	r3, r2
 800357a:	60fb      	str	r3, [r7, #12]
 800357c:	68fb      	ldr	r3, [r7, #12]
    /**USART2 GPIO Configuration
    PA14     ------> USART2_TX
    */
    GPIO_InitStruct.Pin = GPIO_PIN_14;
 800357e:	2114      	movs	r1, #20
 8003580:	187b      	adds	r3, r7, r1
 8003582:	2280      	movs	r2, #128	; 0x80
 8003584:	01d2      	lsls	r2, r2, #7
 8003586:	601a      	str	r2, [r3, #0]
    GPIO_InitStruct.Mode = GPIO_MODE_AF_OD;
 8003588:	187b      	adds	r3, r7, r1
 800358a:	2212      	movs	r2, #18
 800358c:	605a      	str	r2, [r3, #4]
    GPIO_InitStruct.Pull = GPIO_PULLUP;
 800358e:	187b      	adds	r3, r7, r1
 8003590:	2201      	movs	r2, #1
 8003592:	609a      	str	r2, [r3, #8]
    GPIO_InitStruct.Speed = GPIO_SPEED_FREQ_HIGH;
 8003594:	187b      	adds	r3, r7, r1
 8003596:	2203      	movs	r2, #3
 8003598:	60da      	str	r2, [r3, #12]
    GPIO_InitStruct.Alternate = GPIO_AF1_USART2;
 800359a:	187b      	adds	r3, r7, r1
 800359c:	2201      	movs	r2, #1
 800359e:	611a      	str	r2, [r3, #16]
    HAL_GPIO_Init(GPIOA, &GPIO_InitStruct);
 80035a0:	187a      	adds	r2, r7, r1
 80035a2:	2390      	movs	r3, #144	; 0x90
 80035a4:	05db      	lsls	r3, r3, #23
 80035a6:	0011      	movs	r1, r2
 80035a8:	0018      	movs	r0, r3
 80035aa:	f000 fa55 	bl	8003a58 <HAL_GPIO_Init>
  /* USER CODE BEGIN USART2_MspInit 1 */

  /* USER CODE END USART2_MspInit 1 */
  }

}
 80035ae:	46c0      	nop			; (mov r8, r8)
 80035b0:	46bd      	mov	sp, r7
 80035b2:	b00a      	add	sp, #40	; 0x28
 80035b4:	bd80      	pop	{r7, pc}
 80035b6:	46c0      	nop			; (mov r8, r8)
 80035b8:	40004400 	.word	0x40004400
 80035bc:	40021000 	.word	0x40021000

080035c0 <NMI_Handler>:
/******************************************************************************/
/**
  * @brief This function handles Non maskable interrupt.
  */
void NMI_Handler(void)
{
 80035c0:	b580      	push	{r7, lr}
 80035c2:	af00      	add	r7, sp, #0

  /* USER CODE END NonMaskableInt_IRQn 0 */
  /* USER CODE BEGIN NonMaskableInt_IRQn 1 */

  /* USER CODE END NonMaskableInt_IRQn 1 */
}
 80035c4:	46c0      	nop			; (mov r8, r8)
 80035c6:	46bd      	mov	sp, r7
 80035c8:	bd80      	pop	{r7, pc}

080035ca <HardFault_Handler>:

/**
  * @brief This function handles Hard fault interrupt.
  */
void HardFault_Handler(void)
{
 80035ca:	b580      	push	{r7, lr}
 80035cc:	af00      	add	r7, sp, #0
  /* USER CODE BEGIN HardFault_IRQn 0 */

  /* USER CODE END HardFault_IRQn 0 */
  while (1)
 80035ce:	e7fe      	b.n	80035ce <HardFault_Handler+0x4>

080035d0 <SVC_Handler>:

/**
  * @brief This function handles System service call via SWI instruction.
  */
void SVC_Handler(void)
{
 80035d0:	b580      	push	{r7, lr}
 80035d2:	af00      	add	r7, sp, #0

  /* USER CODE END SVC_IRQn 0 */
  /* USER CODE BEGIN SVC_IRQn 1 */

  /* USER CODE END SVC_IRQn 1 */
}
 80035d4:	46c0      	nop			; (mov r8, r8)
 80035d6:	46bd      	mov	sp, r7
 80035d8:	bd80      	pop	{r7, pc}

080035da <PendSV_Handler>:

/**
  * @brief This function handles Pendable request for system service.
  */
void PendSV_Handler(void)
{
 80035da:	b580      	push	{r7, lr}
 80035dc:	af00      	add	r7, sp, #0

  /* USER CODE END PendSV_IRQn 0 */
  /* USER CODE BEGIN PendSV_IRQn 1 */

  /* USER CODE END PendSV_IRQn 1 */
}
 80035de:	46c0      	nop			; (mov r8, r8)
 80035e0:	46bd      	mov	sp, r7
 80035e2:	bd80      	pop	{r7, pc}

080035e4 <SysTick_Handler>:

/**
  * @brief This function handles System tick timer.
  */
void SysTick_Handler(void)
{
 80035e4:	b580      	push	{r7, lr}
 80035e6:	af00      	add	r7, sp, #0
  /* USER CODE BEGIN SysTick_IRQn 0 */

  /* USER CODE END SysTick_IRQn 0 */
  HAL_IncTick();
 80035e8:	f000 f8b2 	bl	8003750 <HAL_IncTick>
  /* USER CODE BEGIN SysTick_IRQn 1 */

  /* USER CODE END SysTick_IRQn 1 */
}
 80035ec:	46c0      	nop			; (mov r8, r8)
 80035ee:	46bd      	mov	sp, r7
 80035f0:	bd80      	pop	{r7, pc}
	...

080035f4 <_sbrk>:
 *
 * @param incr Memory size
 * @return Pointer to allocated memory
 */
void *_sbrk(ptrdiff_t incr)
{
 80035f4:	b580      	push	{r7, lr}
 80035f6:	b086      	sub	sp, #24
 80035f8:	af00      	add	r7, sp, #0
 80035fa:	6078      	str	r0, [r7, #4]
  extern uint8_t _end; /* Symbol defined in the linker script */
  extern uint8_t _estack; /* Symbol defined in the linker script */
  extern uint32_t _Min_Stack_Size; /* Symbol defined in the linker script */
  const uint32_t stack_limit = (uint32_t)&_estack - (uint32_t)&_Min_Stack_Size;
 80035fc:	4a14      	ldr	r2, [pc, #80]	; (8003650 <_sbrk+0x5c>)
 80035fe:	4b15      	ldr	r3, [pc, #84]	; (8003654 <_sbrk+0x60>)
 8003600:	1ad3      	subs	r3, r2, r3
 8003602:	617b      	str	r3, [r7, #20]
  const uint8_t *max_heap = (uint8_t *)stack_limit;
 8003604:	697b      	ldr	r3, [r7, #20]
 8003606:	613b      	str	r3, [r7, #16]
  uint8_t *prev_heap_end;

  /* Initalize heap end at first call */
  if (NULL == __sbrk_heap_end)
 8003608:	4b13      	ldr	r3, [pc, #76]	; (8003658 <_sbrk+0x64>)
 800360a:	681b      	ldr	r3, [r3, #0]
 800360c:	2b00      	cmp	r3, #0
 800360e:	d102      	bne.n	8003616 <_sbrk+0x22>
  {
    __sbrk_heap_end = &_end;
 8003610:	4b11      	ldr	r3, [pc, #68]	; (8003658 <_sbrk+0x64>)
 8003612:	4a12      	ldr	r2, [pc, #72]	; (800365c <_sbrk+0x68>)
 8003614:	601a      	str	r2, [r3, #0]
  }

  /* Protect heap from growing into the reserved MSP stack */
  if (__sbrk_heap_end + incr > max_heap)
 8003616:	4b10      	ldr	r3, [pc, #64]	; (8003658 <_sbrk+0x64>)
 8003618:	681a      	ldr	r2, [r3, #0]
 800361a:	687b      	ldr	r3, [r7, #4]
 800361c:	18d3      	adds	r3, r2, r3
 800361e:	693a      	ldr	r2, [r7, #16]
 8003620:	429a      	cmp	r2, r3
 8003622:	d207      	bcs.n	8003634 <_sbrk+0x40>
  {
    errno = ENOMEM;
 8003624:	f003 f9a2 	bl	800696c <__errno>
 8003628:	0003      	movs	r3, r0
 800362a:	220c      	movs	r2, #12
 800362c:	601a      	str	r2, [r3, #0]
    return (void *)-1;
 800362e:	2301      	movs	r3, #1
 8003630:	425b      	negs	r3, r3
 8003632:	e009      	b.n	8003648 <_sbrk+0x54>
  }

  prev_heap_end = __sbrk_heap_end;
 8003634:	4b08      	ldr	r3, [pc, #32]	; (8003658 <_sbrk+0x64>)
 8003636:	681b      	ldr	r3, [r3, #0]
 8003638:	60fb      	str	r3, [r7, #12]
  __sbrk_heap_end += incr;
 800363a:	4b07      	ldr	r3, [pc, #28]	; (8003658 <_sbrk+0x64>)
 800363c:	681a      	ldr	r2, [r3, #0]
 800363e:	687b      	ldr	r3, [r7, #4]
 8003640:	18d2      	adds	r2, r2, r3
 8003642:	4b05      	ldr	r3, [pc, #20]	; (8003658 <_sbrk+0x64>)
 8003644:	601a      	str	r2, [r3, #0]

  return (void *)prev_heap_end;
 8003646:	68fb      	ldr	r3, [r7, #12]
}
 8003648:	0018      	movs	r0, r3
 800364a:	46bd      	mov	sp, r7
 800364c:	b006      	add	sp, #24
 800364e:	bd80      	pop	{r7, pc}
 8003650:	20002000 	.word	0x20002000
 8003654:	00000400 	.word	0x00000400
 8003658:	20000130 	.word	0x20000130
 800365c:	20000238 	.word	0x20000238

08003660 <SystemInit>:
  * @brief  Setup the microcontroller system.
  * @param  None
  * @retval None
  */
void SystemInit(void)
{
 8003660:	b580      	push	{r7, lr}
 8003662:	af00      	add	r7, sp, #0
                         before branch to main program. This call is made inside
                         the "startup_stm32f0xx.s" file.
                         User can setups the default system clock (System clock source, PLL Multiplier
                         and Divider factors, AHB/APBx prescalers and Flash settings).
   */
}
 8003664:	46c0      	nop			; (mov r8, r8)
 8003666:	46bd      	mov	sp, r7
 8003668:	bd80      	pop	{r7, pc}
	...

0800366c <Reset_Handler>:

  .section .text.Reset_Handler
  .weak Reset_Handler
  .type Reset_Handler, %function
Reset_Handler:
  ldr   r0, =_estack
 800366c:	480d      	ldr	r0, [pc, #52]	; (80036a4 <LoopForever+0x2>)
  mov   sp, r0          /* set stack pointer */
 800366e:	4685      	mov	sp, r0

/* Copy the data segment initializers from flash to SRAM */
  ldr r0, =_sdata
 8003670:	480d      	ldr	r0, [pc, #52]	; (80036a8 <LoopForever+0x6>)
  ldr r1, =_edata
 8003672:	490e      	ldr	r1, [pc, #56]	; (80036ac <LoopForever+0xa>)
  ldr r2, =_sidata
 8003674:	4a0e      	ldr	r2, [pc, #56]	; (80036b0 <LoopForever+0xe>)
  movs r3, #0
 8003676:	2300      	movs	r3, #0
  b LoopCopyDataInit
 8003678:	e002      	b.n	8003680 <LoopCopyDataInit>

0800367a <CopyDataInit>:

CopyDataInit:
  ldr r4, [r2, r3]
 800367a:	58d4      	ldr	r4, [r2, r3]
  str r4, [r0, r3]
 800367c:	50c4      	str	r4, [r0, r3]
  adds r3, r3, #4
 800367e:	3304      	adds	r3, #4

08003680 <LoopCopyDataInit>:

LoopCopyDataInit:
  adds r4, r0, r3
 8003680:	18c4      	adds	r4, r0, r3
  cmp r4, r1
 8003682:	428c      	cmp	r4, r1
  bcc CopyDataInit
 8003684:	d3f9      	bcc.n	800367a <CopyDataInit>
  
/* Zero fill the bss segment. */
  ldr r2, =_sbss
 8003686:	4a0b      	ldr	r2, [pc, #44]	; (80036b4 <LoopForever+0x12>)
  ldr r4, =_ebss
 8003688:	4c0b      	ldr	r4, [pc, #44]	; (80036b8 <LoopForever+0x16>)
  movs r3, #0
 800368a:	2300      	movs	r3, #0
  b LoopFillZerobss
 800368c:	e001      	b.n	8003692 <LoopFillZerobss>

0800368e <FillZerobss>:

FillZerobss:
  str  r3, [r2]
 800368e:	6013      	str	r3, [r2, #0]
  adds r2, r2, #4
 8003690:	3204      	adds	r2, #4

08003692 <LoopFillZerobss>:

LoopFillZerobss:
  cmp r2, r4
 8003692:	42a2      	cmp	r2, r4
  bcc FillZerobss
 8003694:	d3fb      	bcc.n	800368e <FillZerobss>

/* Call the clock system intitialization function.*/
  bl  SystemInit
 8003696:	f7ff ffe3 	bl	8003660 <SystemInit>
/* Call static constructors */
  bl __libc_init_array
 800369a:	f003 f96d 	bl	8006978 <__libc_init_array>
/* Call the application's entry point.*/
  bl main
 800369e:	f7fe fac9 	bl	8001c34 <main>

080036a2 <LoopForever>:

LoopForever:
    b LoopForever
 80036a2:	e7fe      	b.n	80036a2 <LoopForever>
  ldr   r0, =_estack
 80036a4:	20002000 	.word	0x20002000
  ldr r0, =_sdata
 80036a8:	20000000 	.word	0x20000000
  ldr r1, =_edata
 80036ac:	20000074 	.word	0x20000074
  ldr r2, =_sidata
 80036b0:	08007f88 	.word	0x08007f88
  ldr r2, =_sbss
 80036b4:	20000074 	.word	0x20000074
  ldr r4, =_ebss
 80036b8:	20000234 	.word	0x20000234

080036bc <ADC1_COMP_IRQHandler>:
 * @retval : None
*/
    .section .text.Default_Handler,"ax",%progbits
Default_Handler:
Infinite_Loop:
  b Infinite_Loop
 80036bc:	e7fe      	b.n	80036bc <ADC1_COMP_IRQHandler>
	...

080036c0 <HAL_Init>:
  *       In the default implementation,Systick is used as source of time base.
  *       The tick variable is incremented each 1ms in its ISR.
  * @retval HAL status
  */
HAL_StatusTypeDef HAL_Init(void)
{
 80036c0:	b580      	push	{r7, lr}
 80036c2:	af00      	add	r7, sp, #0
  /* Configure Flash prefetch */ 
#if (PREFETCH_ENABLE != 0)
  __HAL_FLASH_PREFETCH_BUFFER_ENABLE();
 80036c4:	4b07      	ldr	r3, [pc, #28]	; (80036e4 <HAL_Init+0x24>)
 80036c6:	681a      	ldr	r2, [r3, #0]
 80036c8:	4b06      	ldr	r3, [pc, #24]	; (80036e4 <HAL_Init+0x24>)
 80036ca:	2110      	movs	r1, #16
 80036cc:	430a      	orrs	r2, r1
 80036ce:	601a      	str	r2, [r3, #0]
#endif /* PREFETCH_ENABLE */

  /* Use systick as time base source and configure 1ms tick (default clock after Reset is HSI) */

  HAL_InitTick(TICK_INT_PRIORITY);
 80036d0:	2000      	movs	r0, #0
 80036d2:	f000 f809 	bl	80036e8 <HAL_InitTick>

  /* Init the low level hardware */
  HAL_MspInit();
 80036d6:	f7ff feb5 	bl	8003444 <HAL_MspInit>

  /* Return function status */
  return HAL_OK;
 80036da:	2300      	movs	r3, #0
}
 80036dc:	0018      	movs	r0, r3
 80036de:	46bd      	mov	sp, r7
 80036e0:	bd80      	pop	{r7, pc}
 80036e2:	46c0      	nop			; (mov r8, r8)
 80036e4:	40022000 	.word	0x40022000

080036e8 <HAL_InitTick>:
  *       implementation  in user file.
  * @param TickPriority Tick interrupt priority.
  * @retval HAL status
  */
__weak HAL_StatusTypeDef HAL_InitTick(uint32_t TickPriority)
{
 80036e8:	b590      	push	{r4, r7, lr}
 80036ea:	b083      	sub	sp, #12
 80036ec:	af00      	add	r7, sp, #0
 80036ee:	6078      	str	r0, [r7, #4]
  /*Configure the SysTick to have interrupt in 1ms time basis*/
  if (HAL_SYSTICK_Config(SystemCoreClock / (1000U / uwTickFreq)) > 0U)
 80036f0:	4b14      	ldr	r3, [pc, #80]	; (8003744 <HAL_InitTick+0x5c>)
 80036f2:	681c      	ldr	r4, [r3, #0]
 80036f4:	4b14      	ldr	r3, [pc, #80]	; (8003748 <HAL_InitTick+0x60>)
 80036f6:	781b      	ldrb	r3, [r3, #0]
 80036f8:	0019      	movs	r1, r3
 80036fa:	23fa      	movs	r3, #250	; 0xfa
 80036fc:	0098      	lsls	r0, r3, #2
 80036fe:	f7fc fd03 	bl	8000108 <__udivsi3>
 8003702:	0003      	movs	r3, r0
 8003704:	0019      	movs	r1, r3
 8003706:	0020      	movs	r0, r4
 8003708:	f7fc fcfe 	bl	8000108 <__udivsi3>
 800370c:	0003      	movs	r3, r0
 800370e:	0018      	movs	r0, r3
 8003710:	f000 f903 	bl	800391a <HAL_SYSTICK_Config>
 8003714:	1e03      	subs	r3, r0, #0
 8003716:	d001      	beq.n	800371c <HAL_InitTick+0x34>
  {
    return HAL_ERROR;
 8003718:	2301      	movs	r3, #1
 800371a:	e00f      	b.n	800373c <HAL_InitTick+0x54>
  }

  /* Configure the SysTick IRQ priority */
  if (TickPriority < (1UL << __NVIC_PRIO_BITS))
 800371c:	687b      	ldr	r3, [r7, #4]
 800371e:	2b03      	cmp	r3, #3
 8003720:	d80b      	bhi.n	800373a <HAL_InitTick+0x52>
  {
    HAL_NVIC_SetPriority(SysTick_IRQn, TickPriority, 0U);
 8003722:	6879      	ldr	r1, [r7, #4]
 8003724:	2301      	movs	r3, #1
 8003726:	425b      	negs	r3, r3
 8003728:	2200      	movs	r2, #0
 800372a:	0018      	movs	r0, r3
 800372c:	f000 f8e0 	bl	80038f0 <HAL_NVIC_SetPriority>
    uwTickPrio = TickPriority;
 8003730:	4b06      	ldr	r3, [pc, #24]	; (800374c <HAL_InitTick+0x64>)
 8003732:	687a      	ldr	r2, [r7, #4]
 8003734:	601a      	str	r2, [r3, #0]
  {
    return HAL_ERROR;
  }

   /* Return function status */
  return HAL_OK;
 8003736:	2300      	movs	r3, #0
 8003738:	e000      	b.n	800373c <HAL_InitTick+0x54>
    return HAL_ERROR;
 800373a:	2301      	movs	r3, #1
}
 800373c:	0018      	movs	r0, r3
 800373e:	46bd      	mov	sp, r7
 8003740:	b003      	add	sp, #12
 8003742:	bd90      	pop	{r4, r7, pc}
 8003744:	20000004 	.word	0x20000004
 8003748:	2000000c 	.word	0x2000000c
 800374c:	20000008 	.word	0x20000008

08003750 <HAL_IncTick>:
  * @note This function is declared as __weak to be overwritten in case of other 
  *       implementations in user file.
  * @retval None
  */
__weak void HAL_IncTick(void)
{
 8003750:	b580      	push	{r7, lr}
 8003752:	af00      	add	r7, sp, #0
  uwTick += uwTickFreq;
 8003754:	4b05      	ldr	r3, [pc, #20]	; (800376c <HAL_IncTick+0x1c>)
 8003756:	781b      	ldrb	r3, [r3, #0]
 8003758:	001a      	movs	r2, r3
 800375a:	4b05      	ldr	r3, [pc, #20]	; (8003770 <HAL_IncTick+0x20>)
 800375c:	681b      	ldr	r3, [r3, #0]
 800375e:	18d2      	adds	r2, r2, r3
 8003760:	4b03      	ldr	r3, [pc, #12]	; (8003770 <HAL_IncTick+0x20>)
 8003762:	601a      	str	r2, [r3, #0]
}
 8003764:	46c0      	nop			; (mov r8, r8)
 8003766:	46bd      	mov	sp, r7
 8003768:	bd80      	pop	{r7, pc}
 800376a:	46c0      	nop			; (mov r8, r8)
 800376c:	2000000c 	.word	0x2000000c
 8003770:	2000022c 	.word	0x2000022c

08003774 <HAL_GetTick>:
  * @note   This function is declared as __weak  to be overwritten  in case of other 
  *       implementations in user file.
  * @retval tick value
  */
__weak uint32_t HAL_GetTick(void)
{
 8003774:	b580      	push	{r7, lr}
 8003776:	af00      	add	r7, sp, #0
  return uwTick;
 8003778:	4b02      	ldr	r3, [pc, #8]	; (8003784 <HAL_GetTick+0x10>)
 800377a:	681b      	ldr	r3, [r3, #0]
}
 800377c:	0018      	movs	r0, r3
 800377e:	46bd      	mov	sp, r7
 8003780:	bd80      	pop	{r7, pc}
 8003782:	46c0      	nop			; (mov r8, r8)
 8003784:	2000022c 	.word	0x2000022c

08003788 <HAL_Delay>:
  *       implementations in user file.
  * @param Delay specifies the delay time length, in milliseconds.
  * @retval None
  */
__weak void HAL_Delay(uint32_t Delay)
{
 8003788:	b580      	push	{r7, lr}
 800378a:	b084      	sub	sp, #16
 800378c:	af00      	add	r7, sp, #0
 800378e:	6078      	str	r0, [r7, #4]
  uint32_t tickstart = HAL_GetTick();
 8003790:	f7ff fff0 	bl	8003774 <HAL_GetTick>
 8003794:	0003      	movs	r3, r0
 8003796:	60bb      	str	r3, [r7, #8]
  uint32_t wait = Delay;
 8003798:	687b      	ldr	r3, [r7, #4]
 800379a:	60fb      	str	r3, [r7, #12]
  
  /* Add a freq to guarantee minimum wait */
  if (wait < HAL_MAX_DELAY)
 800379c:	68fb      	ldr	r3, [r7, #12]
 800379e:	3301      	adds	r3, #1
 80037a0:	d005      	beq.n	80037ae <HAL_Delay+0x26>
  {
    wait += (uint32_t)(uwTickFreq);
 80037a2:	4b09      	ldr	r3, [pc, #36]	; (80037c8 <HAL_Delay+0x40>)
 80037a4:	781b      	ldrb	r3, [r3, #0]
 80037a6:	001a      	movs	r2, r3
 80037a8:	68fb      	ldr	r3, [r7, #12]
 80037aa:	189b      	adds	r3, r3, r2
 80037ac:	60fb      	str	r3, [r7, #12]
  }
  
  while((HAL_GetTick() - tickstart) < wait)
 80037ae:	46c0      	nop			; (mov r8, r8)
 80037b0:	f7ff ffe0 	bl	8003774 <HAL_GetTick>
 80037b4:	0002      	movs	r2, r0
 80037b6:	68bb      	ldr	r3, [r7, #8]
 80037b8:	1ad3      	subs	r3, r2, r3
 80037ba:	68fa      	ldr	r2, [r7, #12]
 80037bc:	429a      	cmp	r2, r3
 80037be:	d8f7      	bhi.n	80037b0 <HAL_Delay+0x28>
  {
  }
}
 80037c0:	46c0      	nop			; (mov r8, r8)
 80037c2:	46bd      	mov	sp, r7
 80037c4:	b004      	add	sp, #16
 80037c6:	bd80      	pop	{r7, pc}
 80037c8:	2000000c 	.word	0x2000000c

080037cc <__NVIC_SetPriority>:
  \param [in]      IRQn  Interrupt number.
  \param [in]  priority  Priority to set.
  \note    The priority cannot be set for every processor exception.
 */
__STATIC_INLINE void __NVIC_SetPriority(IRQn_Type IRQn, uint32_t priority)
{
 80037cc:	b590      	push	{r4, r7, lr}
 80037ce:	b083      	sub	sp, #12
 80037d0:	af00      	add	r7, sp, #0
 80037d2:	0002      	movs	r2, r0
 80037d4:	6039      	str	r1, [r7, #0]
 80037d6:	1dfb      	adds	r3, r7, #7
 80037d8:	701a      	strb	r2, [r3, #0]
  if ((int32_t)(IRQn) >= 0)
 80037da:	1dfb      	adds	r3, r7, #7
 80037dc:	781b      	ldrb	r3, [r3, #0]
 80037de:	2b7f      	cmp	r3, #127	; 0x7f
 80037e0:	d828      	bhi.n	8003834 <__NVIC_SetPriority+0x68>
  {
    NVIC->IP[_IP_IDX(IRQn)]  = ((uint32_t)(NVIC->IP[_IP_IDX(IRQn)]  & ~(0xFFUL << _BIT_SHIFT(IRQn))) |
 80037e2:	4a2f      	ldr	r2, [pc, #188]	; (80038a0 <__NVIC_SetPriority+0xd4>)
 80037e4:	1dfb      	adds	r3, r7, #7
 80037e6:	781b      	ldrb	r3, [r3, #0]
 80037e8:	b25b      	sxtb	r3, r3
 80037ea:	089b      	lsrs	r3, r3, #2
 80037ec:	33c0      	adds	r3, #192	; 0xc0
 80037ee:	009b      	lsls	r3, r3, #2
 80037f0:	589b      	ldr	r3, [r3, r2]
 80037f2:	1dfa      	adds	r2, r7, #7
 80037f4:	7812      	ldrb	r2, [r2, #0]
 80037f6:	0011      	movs	r1, r2
 80037f8:	2203      	movs	r2, #3
 80037fa:	400a      	ands	r2, r1
 80037fc:	00d2      	lsls	r2, r2, #3
 80037fe:	21ff      	movs	r1, #255	; 0xff
 8003800:	4091      	lsls	r1, r2
 8003802:	000a      	movs	r2, r1
 8003804:	43d2      	mvns	r2, r2
 8003806:	401a      	ands	r2, r3
 8003808:	0011      	movs	r1, r2
       (((priority << (8U - __NVIC_PRIO_BITS)) & (uint32_t)0xFFUL) << _BIT_SHIFT(IRQn)));
 800380a:	683b      	ldr	r3, [r7, #0]
 800380c:	019b      	lsls	r3, r3, #6
 800380e:	22ff      	movs	r2, #255	; 0xff
 8003810:	401a      	ands	r2, r3
 8003812:	1dfb      	adds	r3, r7, #7
 8003814:	781b      	ldrb	r3, [r3, #0]
 8003816:	0018      	movs	r0, r3
 8003818:	2303      	movs	r3, #3
 800381a:	4003      	ands	r3, r0
 800381c:	00db      	lsls	r3, r3, #3
 800381e:	409a      	lsls	r2, r3
    NVIC->IP[_IP_IDX(IRQn)]  = ((uint32_t)(NVIC->IP[_IP_IDX(IRQn)]  & ~(0xFFUL << _BIT_SHIFT(IRQn))) |
 8003820:	481f      	ldr	r0, [pc, #124]	; (80038a0 <__NVIC_SetPriority+0xd4>)
 8003822:	1dfb      	adds	r3, r7, #7
 8003824:	781b      	ldrb	r3, [r3, #0]
 8003826:	b25b      	sxtb	r3, r3
 8003828:	089b      	lsrs	r3, r3, #2
 800382a:	430a      	orrs	r2, r1
 800382c:	33c0      	adds	r3, #192	; 0xc0
 800382e:	009b      	lsls	r3, r3, #2
 8003830:	501a      	str	r2, [r3, r0]
  else
  {
    SCB->SHP[_SHP_IDX(IRQn)] = ((uint32_t)(SCB->SHP[_SHP_IDX(IRQn)] & ~(0xFFUL << _BIT_SHIFT(IRQn))) |
       (((priority << (8U - __NVIC_PRIO_BITS)) & (uint32_t)0xFFUL) << _BIT_SHIFT(IRQn)));
  }
}
 8003832:	e031      	b.n	8003898 <__NVIC_SetPriority+0xcc>
    SCB->SHP[_SHP_IDX(IRQn)] = ((uint32_t)(SCB->SHP[_SHP_IDX(IRQn)] & ~(0xFFUL << _BIT_SHIFT(IRQn))) |
 8003834:	4a1b      	ldr	r2, [pc, #108]	; (80038a4 <__NVIC_SetPriority+0xd8>)
 8003836:	1dfb      	adds	r3, r7, #7
 8003838:	781b      	ldrb	r3, [r3, #0]
 800383a:	0019      	movs	r1, r3
 800383c:	230f      	movs	r3, #15
 800383e:	400b      	ands	r3, r1
 8003840:	3b08      	subs	r3, #8
 8003842:	089b      	lsrs	r3, r3, #2
 8003844:	3306      	adds	r3, #6
 8003846:	009b      	lsls	r3, r3, #2
 8003848:	18d3      	adds	r3, r2, r3
 800384a:	3304      	adds	r3, #4
 800384c:	681b      	ldr	r3, [r3, #0]
 800384e:	1dfa      	adds	r2, r7, #7
 8003850:	7812      	ldrb	r2, [r2, #0]
 8003852:	0011      	movs	r1, r2
 8003854:	2203      	movs	r2, #3
 8003856:	400a      	ands	r2, r1
 8003858:	00d2      	lsls	r2, r2, #3
 800385a:	21ff      	movs	r1, #255	; 0xff
 800385c:	4091      	lsls	r1, r2
 800385e:	000a      	movs	r2, r1
 8003860:	43d2      	mvns	r2, r2
 8003862:	401a      	ands	r2, r3
 8003864:	0011      	movs	r1, r2
       (((priority << (8U - __NVIC_PRIO_BITS)) & (uint32_t)0xFFUL) << _BIT_SHIFT(IRQn)));
 8003866:	683b      	ldr	r3, [r7, #0]
 8003868:	019b      	lsls	r3, r3, #6
 800386a:	22ff      	movs	r2, #255	; 0xff
 800386c:	401a      	ands	r2, r3
 800386e:	1dfb      	adds	r3, r7, #7
 8003870:	781b      	ldrb	r3, [r3, #0]
 8003872:	0018      	movs	r0, r3
 8003874:	2303      	movs	r3, #3
 8003876:	4003      	ands	r3, r0
 8003878:	00db      	lsls	r3, r3, #3
 800387a:	409a      	lsls	r2, r3
    SCB->SHP[_SHP_IDX(IRQn)] = ((uint32_t)(SCB->SHP[_SHP_IDX(IRQn)] & ~(0xFFUL << _BIT_SHIFT(IRQn))) |
 800387c:	4809      	ldr	r0, [pc, #36]	; (80038a4 <__NVIC_SetPriority+0xd8>)
 800387e:	1dfb      	adds	r3, r7, #7
 8003880:	781b      	ldrb	r3, [r3, #0]
 8003882:	001c      	movs	r4, r3
 8003884:	230f      	movs	r3, #15
 8003886:	4023      	ands	r3, r4
 8003888:	3b08      	subs	r3, #8
 800388a:	089b      	lsrs	r3, r3, #2
 800388c:	430a      	orrs	r2, r1
 800388e:	3306      	adds	r3, #6
 8003890:	009b      	lsls	r3, r3, #2
 8003892:	18c3      	adds	r3, r0, r3
 8003894:	3304      	adds	r3, #4
 8003896:	601a      	str	r2, [r3, #0]
}
 8003898:	46c0      	nop			; (mov r8, r8)
 800389a:	46bd      	mov	sp, r7
 800389c:	b003      	add	sp, #12
 800389e:	bd90      	pop	{r4, r7, pc}
 80038a0:	e000e100 	.word	0xe000e100
 80038a4:	e000ed00 	.word	0xe000ed00

080038a8 <SysTick_Config>:
  \note    When the variable <b>__Vendor_SysTickConfig</b> is set to 1, then the
           function <b>SysTick_Config</b> is not included. In this case, the file <b><i>device</i>.h</b>
           must contain a vendor-specific implementation of this function.
 */
__STATIC_INLINE uint32_t SysTick_Config(uint32_t ticks)
{
 80038a8:	b580      	push	{r7, lr}
 80038aa:	b082      	sub	sp, #8
 80038ac:	af00      	add	r7, sp, #0
 80038ae:	6078      	str	r0, [r7, #4]
  if ((ticks - 1UL) > SysTick_LOAD_RELOAD_Msk)
 80038b0:	687b      	ldr	r3, [r7, #4]
 80038b2:	3b01      	subs	r3, #1
 80038b4:	4a0c      	ldr	r2, [pc, #48]	; (80038e8 <SysTick_Config+0x40>)
 80038b6:	4293      	cmp	r3, r2
 80038b8:	d901      	bls.n	80038be <SysTick_Config+0x16>
  {
    return (1UL);                                                   /* Reload value impossible */
 80038ba:	2301      	movs	r3, #1
 80038bc:	e010      	b.n	80038e0 <SysTick_Config+0x38>
  }

  SysTick->LOAD  = (uint32_t)(ticks - 1UL);                         /* set reload register */
 80038be:	4b0b      	ldr	r3, [pc, #44]	; (80038ec <SysTick_Config+0x44>)
 80038c0:	687a      	ldr	r2, [r7, #4]
 80038c2:	3a01      	subs	r2, #1
 80038c4:	605a      	str	r2, [r3, #4]
  NVIC_SetPriority (SysTick_IRQn, (1UL << __NVIC_PRIO_BITS) - 1UL); /* set Priority for Systick Interrupt */
 80038c6:	2301      	movs	r3, #1
 80038c8:	425b      	negs	r3, r3
 80038ca:	2103      	movs	r1, #3
 80038cc:	0018      	movs	r0, r3
 80038ce:	f7ff ff7d 	bl	80037cc <__NVIC_SetPriority>
  SysTick->VAL   = 0UL;                                             /* Load the SysTick Counter Value */
 80038d2:	4b06      	ldr	r3, [pc, #24]	; (80038ec <SysTick_Config+0x44>)
 80038d4:	2200      	movs	r2, #0
 80038d6:	609a      	str	r2, [r3, #8]
  SysTick->CTRL  = SysTick_CTRL_CLKSOURCE_Msk |
 80038d8:	4b04      	ldr	r3, [pc, #16]	; (80038ec <SysTick_Config+0x44>)
 80038da:	2207      	movs	r2, #7
 80038dc:	601a      	str	r2, [r3, #0]
                   SysTick_CTRL_TICKINT_Msk   |
                   SysTick_CTRL_ENABLE_Msk;                         /* Enable SysTick IRQ and SysTick Timer */
  return (0UL);                                                     /* Function successful */
 80038de:	2300      	movs	r3, #0
}
 80038e0:	0018      	movs	r0, r3
 80038e2:	46bd      	mov	sp, r7
 80038e4:	b002      	add	sp, #8
 80038e6:	bd80      	pop	{r7, pc}
 80038e8:	00ffffff 	.word	0x00ffffff
 80038ec:	e000e010 	.word	0xe000e010

080038f0 <HAL_NVIC_SetPriority>:
  *         with stm32f0xx devices, this parameter is a dummy value and it is ignored, because 
  *         no subpriority supported in Cortex M0 based products.   
  * @retval None
  */
void HAL_NVIC_SetPriority(IRQn_Type IRQn, uint32_t PreemptPriority, uint32_t SubPriority)
{ 
 80038f0:	b580      	push	{r7, lr}
 80038f2:	b084      	sub	sp, #16
 80038f4:	af00      	add	r7, sp, #0
 80038f6:	60b9      	str	r1, [r7, #8]
 80038f8:	607a      	str	r2, [r7, #4]
 80038fa:	210f      	movs	r1, #15
 80038fc:	187b      	adds	r3, r7, r1
 80038fe:	1c02      	adds	r2, r0, #0
 8003900:	701a      	strb	r2, [r3, #0]
  /* Check the parameters */
  assert_param(IS_NVIC_PREEMPTION_PRIORITY(PreemptPriority));
  NVIC_SetPriority(IRQn,PreemptPriority);
 8003902:	68ba      	ldr	r2, [r7, #8]
 8003904:	187b      	adds	r3, r7, r1
 8003906:	781b      	ldrb	r3, [r3, #0]
 8003908:	b25b      	sxtb	r3, r3
 800390a:	0011      	movs	r1, r2
 800390c:	0018      	movs	r0, r3
 800390e:	f7ff ff5d 	bl	80037cc <__NVIC_SetPriority>
}
 8003912:	46c0      	nop			; (mov r8, r8)
 8003914:	46bd      	mov	sp, r7
 8003916:	b004      	add	sp, #16
 8003918:	bd80      	pop	{r7, pc}

0800391a <HAL_SYSTICK_Config>:
  * @param  TicksNumb Specifies the ticks Number of ticks between two interrupts.
  * @retval status:  - 0  Function succeeded.
  *                  - 1  Function failed.
  */
uint32_t HAL_SYSTICK_Config(uint32_t TicksNumb)
{
 800391a:	b580      	push	{r7, lr}
 800391c:	b082      	sub	sp, #8
 800391e:	af00      	add	r7, sp, #0
 8003920:	6078      	str	r0, [r7, #4]
   return SysTick_Config(TicksNumb);
 8003922:	687b      	ldr	r3, [r7, #4]
 8003924:	0018      	movs	r0, r3
 8003926:	f7ff ffbf 	bl	80038a8 <SysTick_Config>
 800392a:	0003      	movs	r3, r0
}
 800392c:	0018      	movs	r0, r3
 800392e:	46bd      	mov	sp, r7
 8003930:	b002      	add	sp, #8
 8003932:	bd80      	pop	{r7, pc}

08003934 <HAL_DMA_Start_IT>:
  * @param  DstAddress The destination memory Buffer address
  * @param  DataLength The length of data to be transferred from source to destination
  * @retval HAL status
  */
HAL_StatusTypeDef HAL_DMA_Start_IT(DMA_HandleTypeDef *hdma, uint32_t SrcAddress, uint32_t DstAddress, uint32_t DataLength)
{
 8003934:	b580      	push	{r7, lr}
 8003936:	b086      	sub	sp, #24
 8003938:	af00      	add	r7, sp, #0
 800393a:	60f8      	str	r0, [r7, #12]
 800393c:	60b9      	str	r1, [r7, #8]
 800393e:	607a      	str	r2, [r7, #4]
 8003940:	603b      	str	r3, [r7, #0]
	HAL_StatusTypeDef status = HAL_OK;
 8003942:	2317      	movs	r3, #23
 8003944:	18fb      	adds	r3, r7, r3
 8003946:	2200      	movs	r2, #0
 8003948:	701a      	strb	r2, [r3, #0]

  /* Check the parameters */
  assert_param(IS_DMA_BUFFER_SIZE(DataLength));
  
  /* Process locked */
  __HAL_LOCK(hdma);
 800394a:	68fb      	ldr	r3, [r7, #12]
 800394c:	2220      	movs	r2, #32
 800394e:	5c9b      	ldrb	r3, [r3, r2]
 8003950:	2b01      	cmp	r3, #1
 8003952:	d101      	bne.n	8003958 <HAL_DMA_Start_IT+0x24>
 8003954:	2302      	movs	r3, #2
 8003956:	e04f      	b.n	80039f8 <HAL_DMA_Start_IT+0xc4>
 8003958:	68fb      	ldr	r3, [r7, #12]
 800395a:	2220      	movs	r2, #32
 800395c:	2101      	movs	r1, #1
 800395e:	5499      	strb	r1, [r3, r2]
  
  if(HAL_DMA_STATE_READY == hdma->State)
 8003960:	68fb      	ldr	r3, [r7, #12]
 8003962:	2221      	movs	r2, #33	; 0x21
 8003964:	5c9b      	ldrb	r3, [r3, r2]
 8003966:	b2db      	uxtb	r3, r3
 8003968:	2b01      	cmp	r3, #1
 800396a:	d13a      	bne.n	80039e2 <HAL_DMA_Start_IT+0xae>
  {
  	/* Change DMA peripheral state */  
  	hdma->State = HAL_DMA_STATE_BUSY;
 800396c:	68fb      	ldr	r3, [r7, #12]
 800396e:	2221      	movs	r2, #33	; 0x21
 8003970:	2102      	movs	r1, #2
 8003972:	5499      	strb	r1, [r3, r2]
  	
  	hdma->ErrorCode = HAL_DMA_ERROR_NONE;
 8003974:	68fb      	ldr	r3, [r7, #12]
 8003976:	2200      	movs	r2, #0
 8003978:	639a      	str	r2, [r3, #56]	; 0x38
  	
  	/* Disable the peripheral */
  	hdma->Instance->CCR &= ~DMA_CCR_EN;
 800397a:	68fb      	ldr	r3, [r7, #12]
 800397c:	681b      	ldr	r3, [r3, #0]
 800397e:	681a      	ldr	r2, [r3, #0]
 8003980:	68fb      	ldr	r3, [r7, #12]
 8003982:	681b      	ldr	r3, [r3, #0]
 8003984:	2101      	movs	r1, #1
 8003986:	438a      	bics	r2, r1
 8003988:	601a      	str	r2, [r3, #0]
  	
  	/* Configure the source, destination address and the data length */  
  	DMA_SetConfig(hdma, SrcAddress, DstAddress, DataLength);
 800398a:	683b      	ldr	r3, [r7, #0]
 800398c:	687a      	ldr	r2, [r7, #4]
 800398e:	68b9      	ldr	r1, [r7, #8]
 8003990:	68f8      	ldr	r0, [r7, #12]
 8003992:	f000 f835 	bl	8003a00 <DMA_SetConfig>
  	
  	/* Enable the transfer complete, & transfer error interrupts */
  	/* Half transfer interrupt is optional: enable it only if associated callback is available */
    if(NULL != hdma->XferHalfCpltCallback )
 8003996:	68fb      	ldr	r3, [r7, #12]
 8003998:	6adb      	ldr	r3, [r3, #44]	; 0x2c
 800399a:	2b00      	cmp	r3, #0
 800399c:	d008      	beq.n	80039b0 <HAL_DMA_Start_IT+0x7c>
    {
      hdma->Instance->CCR |= (DMA_IT_TC | DMA_IT_HT | DMA_IT_TE);
 800399e:	68fb      	ldr	r3, [r7, #12]
 80039a0:	681b      	ldr	r3, [r3, #0]
 80039a2:	681a      	ldr	r2, [r3, #0]
 80039a4:	68fb      	ldr	r3, [r7, #12]
 80039a6:	681b      	ldr	r3, [r3, #0]
 80039a8:	210e      	movs	r1, #14
 80039aa:	430a      	orrs	r2, r1
 80039ac:	601a      	str	r2, [r3, #0]
 80039ae:	e00f      	b.n	80039d0 <HAL_DMA_Start_IT+0x9c>
    }
  	else
  	{
  		hdma->Instance->CCR |= (DMA_IT_TC | DMA_IT_TE);
 80039b0:	68fb      	ldr	r3, [r7, #12]
 80039b2:	681b      	ldr	r3, [r3, #0]
 80039b4:	681a      	ldr	r2, [r3, #0]
 80039b6:	68fb      	ldr	r3, [r7, #12]
 80039b8:	681b      	ldr	r3, [r3, #0]
 80039ba:	210a      	movs	r1, #10
 80039bc:	430a      	orrs	r2, r1
 80039be:	601a      	str	r2, [r3, #0]
  		hdma->Instance->CCR &= ~DMA_IT_HT;
 80039c0:	68fb      	ldr	r3, [r7, #12]
 80039c2:	681b      	ldr	r3, [r3, #0]
 80039c4:	681a      	ldr	r2, [r3, #0]
 80039c6:	68fb      	ldr	r3, [r7, #12]
 80039c8:	681b      	ldr	r3, [r3, #0]
 80039ca:	2104      	movs	r1, #4
 80039cc:	438a      	bics	r2, r1
 80039ce:	601a      	str	r2, [r3, #0]
  	}
  	
  	/* Enable the Peripheral */
  	hdma->Instance->CCR |= DMA_CCR_EN;
 80039d0:	68fb      	ldr	r3, [r7, #12]
 80039d2:	681b      	ldr	r3, [r3, #0]
 80039d4:	681a      	ldr	r2, [r3, #0]
 80039d6:	68fb      	ldr	r3, [r7, #12]
 80039d8:	681b      	ldr	r3, [r3, #0]
 80039da:	2101      	movs	r1, #1
 80039dc:	430a      	orrs	r2, r1
 80039de:	601a      	str	r2, [r3, #0]
 80039e0:	e007      	b.n	80039f2 <HAL_DMA_Start_IT+0xbe>
  }
  else
  {
  	/* Process Unlocked */
    __HAL_UNLOCK(hdma); 
 80039e2:	68fb      	ldr	r3, [r7, #12]
 80039e4:	2220      	movs	r2, #32
 80039e6:	2100      	movs	r1, #0
 80039e8:	5499      	strb	r1, [r3, r2]
  
    /* Remain BUSY */
    status = HAL_BUSY;
 80039ea:	2317      	movs	r3, #23
 80039ec:	18fb      	adds	r3, r7, r3
 80039ee:	2202      	movs	r2, #2
 80039f0:	701a      	strb	r2, [r3, #0]
  }     
  
  return status;    
 80039f2:	2317      	movs	r3, #23
 80039f4:	18fb      	adds	r3, r7, r3
 80039f6:	781b      	ldrb	r3, [r3, #0]
} 
 80039f8:	0018      	movs	r0, r3
 80039fa:	46bd      	mov	sp, r7
 80039fc:	b006      	add	sp, #24
 80039fe:	bd80      	pop	{r7, pc}

08003a00 <DMA_SetConfig>:
  * @param  DstAddress The destination memory Buffer address
  * @param  DataLength The length of data to be transferred from source to destination
  * @retval HAL status
  */
static void DMA_SetConfig(DMA_HandleTypeDef *hdma, uint32_t SrcAddress, uint32_t DstAddress, uint32_t DataLength)
{
 8003a00:	b580      	push	{r7, lr}
 8003a02:	b084      	sub	sp, #16
 8003a04:	af00      	add	r7, sp, #0
 8003a06:	60f8      	str	r0, [r7, #12]
 8003a08:	60b9      	str	r1, [r7, #8]
 8003a0a:	607a      	str	r2, [r7, #4]
 8003a0c:	603b      	str	r3, [r7, #0]
	/* Clear all flags */
  hdma->DmaBaseAddress->IFCR  = (DMA_FLAG_GL1 << hdma->ChannelIndex);
 8003a0e:	68fb      	ldr	r3, [r7, #12]
 8003a10:	6c1a      	ldr	r2, [r3, #64]	; 0x40
 8003a12:	68fb      	ldr	r3, [r7, #12]
 8003a14:	6bdb      	ldr	r3, [r3, #60]	; 0x3c
 8003a16:	2101      	movs	r1, #1
 8003a18:	4091      	lsls	r1, r2
 8003a1a:	000a      	movs	r2, r1
 8003a1c:	605a      	str	r2, [r3, #4]
  
  /* Configure DMA Channel data length */
  hdma->Instance->CNDTR = DataLength;
 8003a1e:	68fb      	ldr	r3, [r7, #12]
 8003a20:	681b      	ldr	r3, [r3, #0]
 8003a22:	683a      	ldr	r2, [r7, #0]
 8003a24:	605a      	str	r2, [r3, #4]
  
  /* Memory to Peripheral */
  if((hdma->Init.Direction) == DMA_MEMORY_TO_PERIPH)
 8003a26:	68fb      	ldr	r3, [r7, #12]
 8003a28:	685b      	ldr	r3, [r3, #4]
 8003a2a:	2b10      	cmp	r3, #16
 8003a2c:	d108      	bne.n	8003a40 <DMA_SetConfig+0x40>
  {   
    /* Configure DMA Channel destination address */
    hdma->Instance->CPAR = DstAddress;
 8003a2e:	68fb      	ldr	r3, [r7, #12]
 8003a30:	681b      	ldr	r3, [r3, #0]
 8003a32:	687a      	ldr	r2, [r7, #4]
 8003a34:	609a      	str	r2, [r3, #8]
    
    /* Configure DMA Channel source address */
    hdma->Instance->CMAR = SrcAddress;
 8003a36:	68fb      	ldr	r3, [r7, #12]
 8003a38:	681b      	ldr	r3, [r3, #0]
 8003a3a:	68ba      	ldr	r2, [r7, #8]
 8003a3c:	60da      	str	r2, [r3, #12]
    hdma->Instance->CPAR = SrcAddress;
    
    /* Configure DMA Channel destination address */
    hdma->Instance->CMAR = DstAddress;
  }
}
 8003a3e:	e007      	b.n	8003a50 <DMA_SetConfig+0x50>
    hdma->Instance->CPAR = SrcAddress;
 8003a40:	68fb      	ldr	r3, [r7, #12]
 8003a42:	681b      	ldr	r3, [r3, #0]
 8003a44:	68ba      	ldr	r2, [r7, #8]
 8003a46:	609a      	str	r2, [r3, #8]
    hdma->Instance->CMAR = DstAddress;
 8003a48:	68fb      	ldr	r3, [r7, #12]
 8003a4a:	681b      	ldr	r3, [r3, #0]
 8003a4c:	687a      	ldr	r2, [r7, #4]
 8003a4e:	60da      	str	r2, [r3, #12]
}
 8003a50:	46c0      	nop			; (mov r8, r8)
 8003a52:	46bd      	mov	sp, r7
 8003a54:	b004      	add	sp, #16
 8003a56:	bd80      	pop	{r7, pc}

08003a58 <HAL_GPIO_Init>:
  * @param  GPIO_Init pointer to a GPIO_InitTypeDef structure that contains
  *         the configuration information for the specified GPIO peripheral.
  * @retval None
  */
void HAL_GPIO_Init(GPIO_TypeDef  *GPIOx, GPIO_InitTypeDef *GPIO_Init)
{ 
 8003a58:	b580      	push	{r7, lr}
 8003a5a:	b086      	sub	sp, #24
 8003a5c:	af00      	add	r7, sp, #0
 8003a5e:	6078      	str	r0, [r7, #4]
 8003a60:	6039      	str	r1, [r7, #0]
  uint32_t position = 0x00u;
 8003a62:	2300      	movs	r3, #0
 8003a64:	617b      	str	r3, [r7, #20]
  assert_param(IS_GPIO_PIN(GPIO_Init->Pin));
  assert_param(IS_GPIO_MODE(GPIO_Init->Mode));
  assert_param(IS_GPIO_PULL(GPIO_Init->Pull));

  /* Configure the port pins */
  while (((GPIO_Init->Pin) >> position) != 0x00u)
 8003a66:	e14f      	b.n	8003d08 <HAL_GPIO_Init+0x2b0>
  {
    /* Get current io position */
    iocurrent = (GPIO_Init->Pin) & (1uL << position);
 8003a68:	683b      	ldr	r3, [r7, #0]
 8003a6a:	681b      	ldr	r3, [r3, #0]
 8003a6c:	2101      	movs	r1, #1
 8003a6e:	697a      	ldr	r2, [r7, #20]
 8003a70:	4091      	lsls	r1, r2
 8003a72:	000a      	movs	r2, r1
 8003a74:	4013      	ands	r3, r2
 8003a76:	60fb      	str	r3, [r7, #12]

    if (iocurrent != 0x00u)
 8003a78:	68fb      	ldr	r3, [r7, #12]
 8003a7a:	2b00      	cmp	r3, #0
 8003a7c:	d100      	bne.n	8003a80 <HAL_GPIO_Init+0x28>
 8003a7e:	e140      	b.n	8003d02 <HAL_GPIO_Init+0x2aa>
    {
      /*--------------------- GPIO Mode Configuration ------------------------*/
      /* In case of Output or Alternate function mode selection */
      if((GPIO_Init->Mode == GPIO_MODE_OUTPUT_PP) || (GPIO_Init->Mode == GPIO_MODE_AF_PP) ||
 8003a80:	683b      	ldr	r3, [r7, #0]
 8003a82:	685b      	ldr	r3, [r3, #4]
 8003a84:	2b01      	cmp	r3, #1
 8003a86:	d00b      	beq.n	8003aa0 <HAL_GPIO_Init+0x48>
 8003a88:	683b      	ldr	r3, [r7, #0]
 8003a8a:	685b      	ldr	r3, [r3, #4]
 8003a8c:	2b02      	cmp	r3, #2
 8003a8e:	d007      	beq.n	8003aa0 <HAL_GPIO_Init+0x48>
         (GPIO_Init->Mode == GPIO_MODE_OUTPUT_OD) || (GPIO_Init->Mode == GPIO_MODE_AF_OD))
 8003a90:	683b      	ldr	r3, [r7, #0]
 8003a92:	685b      	ldr	r3, [r3, #4]
      if((GPIO_Init->Mode == GPIO_MODE_OUTPUT_PP) || (GPIO_Init->Mode == GPIO_MODE_AF_PP) ||
 8003a94:	2b11      	cmp	r3, #17
 8003a96:	d003      	beq.n	8003aa0 <HAL_GPIO_Init+0x48>
         (GPIO_Init->Mode == GPIO_MODE_OUTPUT_OD) || (GPIO_Init->Mode == GPIO_MODE_AF_OD))
 8003a98:	683b      	ldr	r3, [r7, #0]
 8003a9a:	685b      	ldr	r3, [r3, #4]
 8003a9c:	2b12      	cmp	r3, #18
 8003a9e:	d130      	bne.n	8003b02 <HAL_GPIO_Init+0xaa>
      {
        /* Check the Speed parameter */
        assert_param(IS_GPIO_SPEED(GPIO_Init->Speed));
        /* Configure the IO Speed */
        temp = GPIOx->OSPEEDR;
 8003aa0:	687b      	ldr	r3, [r7, #4]
 8003aa2:	689b      	ldr	r3, [r3, #8]
 8003aa4:	613b      	str	r3, [r7, #16]
        temp &= ~(GPIO_OSPEEDER_OSPEEDR0 << (position * 2u));
 8003aa6:	697b      	ldr	r3, [r7, #20]
 8003aa8:	005b      	lsls	r3, r3, #1
 8003aaa:	2203      	movs	r2, #3
 8003aac:	409a      	lsls	r2, r3
 8003aae:	0013      	movs	r3, r2
 8003ab0:	43da      	mvns	r2, r3
 8003ab2:	693b      	ldr	r3, [r7, #16]
 8003ab4:	4013      	ands	r3, r2
 8003ab6:	613b      	str	r3, [r7, #16]
        temp |= (GPIO_Init->Speed << (position * 2u));
 8003ab8:	683b      	ldr	r3, [r7, #0]
 8003aba:	68da      	ldr	r2, [r3, #12]
 8003abc:	697b      	ldr	r3, [r7, #20]
 8003abe:	005b      	lsls	r3, r3, #1
 8003ac0:	409a      	lsls	r2, r3
 8003ac2:	0013      	movs	r3, r2
 8003ac4:	693a      	ldr	r2, [r7, #16]
 8003ac6:	4313      	orrs	r3, r2
 8003ac8:	613b      	str	r3, [r7, #16]
        GPIOx->OSPEEDR = temp;
 8003aca:	687b      	ldr	r3, [r7, #4]
 8003acc:	693a      	ldr	r2, [r7, #16]
 8003ace:	609a      	str	r2, [r3, #8]

        /* Configure the IO Output Type */
        temp = GPIOx->OTYPER;
 8003ad0:	687b      	ldr	r3, [r7, #4]
 8003ad2:	685b      	ldr	r3, [r3, #4]
 8003ad4:	613b      	str	r3, [r7, #16]
        temp &= ~(GPIO_OTYPER_OT_0 << position) ;
 8003ad6:	2201      	movs	r2, #1
 8003ad8:	697b      	ldr	r3, [r7, #20]
 8003ada:	409a      	lsls	r2, r3
 8003adc:	0013      	movs	r3, r2
 8003ade:	43da      	mvns	r2, r3
 8003ae0:	693b      	ldr	r3, [r7, #16]
 8003ae2:	4013      	ands	r3, r2
 8003ae4:	613b      	str	r3, [r7, #16]
        temp |= (((GPIO_Init->Mode & GPIO_OUTPUT_TYPE) >> 4u) << position);
 8003ae6:	683b      	ldr	r3, [r7, #0]
 8003ae8:	685b      	ldr	r3, [r3, #4]
 8003aea:	091b      	lsrs	r3, r3, #4
 8003aec:	2201      	movs	r2, #1
 8003aee:	401a      	ands	r2, r3
 8003af0:	697b      	ldr	r3, [r7, #20]
 8003af2:	409a      	lsls	r2, r3
 8003af4:	0013      	movs	r3, r2
 8003af6:	693a      	ldr	r2, [r7, #16]
 8003af8:	4313      	orrs	r3, r2
 8003afa:	613b      	str	r3, [r7, #16]
        GPIOx->OTYPER = temp;
 8003afc:	687b      	ldr	r3, [r7, #4]
 8003afe:	693a      	ldr	r2, [r7, #16]
 8003b00:	605a      	str	r2, [r3, #4]
      }

      /* Activate the Pull-up or Pull down resistor for the current IO */
      temp = GPIOx->PUPDR;
 8003b02:	687b      	ldr	r3, [r7, #4]
 8003b04:	68db      	ldr	r3, [r3, #12]
 8003b06:	613b      	str	r3, [r7, #16]
      temp &= ~(GPIO_PUPDR_PUPDR0 << (position * 2u));
 8003b08:	697b      	ldr	r3, [r7, #20]
 8003b0a:	005b      	lsls	r3, r3, #1
 8003b0c:	2203      	movs	r2, #3
 8003b0e:	409a      	lsls	r2, r3
 8003b10:	0013      	movs	r3, r2
 8003b12:	43da      	mvns	r2, r3
 8003b14:	693b      	ldr	r3, [r7, #16]
 8003b16:	4013      	ands	r3, r2
 8003b18:	613b      	str	r3, [r7, #16]
      temp |= ((GPIO_Init->Pull) << (position * 2u));
 8003b1a:	683b      	ldr	r3, [r7, #0]
 8003b1c:	689a      	ldr	r2, [r3, #8]
 8003b1e:	697b      	ldr	r3, [r7, #20]
 8003b20:	005b      	lsls	r3, r3, #1
 8003b22:	409a      	lsls	r2, r3
 8003b24:	0013      	movs	r3, r2
 8003b26:	693a      	ldr	r2, [r7, #16]
 8003b28:	4313      	orrs	r3, r2
 8003b2a:	613b      	str	r3, [r7, #16]
      GPIOx->PUPDR = temp;
 8003b2c:	687b      	ldr	r3, [r7, #4]
 8003b2e:	693a      	ldr	r2, [r7, #16]
 8003b30:	60da      	str	r2, [r3, #12]

      /* In case of Alternate function mode selection */
      if((GPIO_Init->Mode == GPIO_MODE_AF_PP) || (GPIO_Init->Mode == GPIO_MODE_AF_OD))
 8003b32:	683b      	ldr	r3, [r7, #0]
 8003b34:	685b      	ldr	r3, [r3, #4]
 8003b36:	2b02      	cmp	r3, #2
 8003b38:	d003      	beq.n	8003b42 <HAL_GPIO_Init+0xea>
 8003b3a:	683b      	ldr	r3, [r7, #0]
 8003b3c:	685b      	ldr	r3, [r3, #4]
 8003b3e:	2b12      	cmp	r3, #18
 8003b40:	d123      	bne.n	8003b8a <HAL_GPIO_Init+0x132>
        /* Check the Alternate function parameters */
        assert_param(IS_GPIO_AF_INSTANCE(GPIOx));
        assert_param(IS_GPIO_AF(GPIO_Init->Alternate));

        /* Configure Alternate function mapped with the current IO */
        temp = GPIOx->AFR[position >> 3u];
 8003b42:	697b      	ldr	r3, [r7, #20]
 8003b44:	08da      	lsrs	r2, r3, #3
 8003b46:	687b      	ldr	r3, [r7, #4]
 8003b48:	3208      	adds	r2, #8
 8003b4a:	0092      	lsls	r2, r2, #2
 8003b4c:	58d3      	ldr	r3, [r2, r3]
 8003b4e:	613b      	str	r3, [r7, #16]
        temp &= ~(0xFu << ((position & 0x07u) * 4u));
 8003b50:	697b      	ldr	r3, [r7, #20]
 8003b52:	2207      	movs	r2, #7
 8003b54:	4013      	ands	r3, r2
 8003b56:	009b      	lsls	r3, r3, #2
 8003b58:	220f      	movs	r2, #15
 8003b5a:	409a      	lsls	r2, r3
 8003b5c:	0013      	movs	r3, r2
 8003b5e:	43da      	mvns	r2, r3
 8003b60:	693b      	ldr	r3, [r7, #16]
 8003b62:	4013      	ands	r3, r2
 8003b64:	613b      	str	r3, [r7, #16]
        temp |= ((GPIO_Init->Alternate) << ((position & 0x07u) * 4u));
 8003b66:	683b      	ldr	r3, [r7, #0]
 8003b68:	691a      	ldr	r2, [r3, #16]
 8003b6a:	697b      	ldr	r3, [r7, #20]
 8003b6c:	2107      	movs	r1, #7
 8003b6e:	400b      	ands	r3, r1
 8003b70:	009b      	lsls	r3, r3, #2
 8003b72:	409a      	lsls	r2, r3
 8003b74:	0013      	movs	r3, r2
 8003b76:	693a      	ldr	r2, [r7, #16]
 8003b78:	4313      	orrs	r3, r2
 8003b7a:	613b      	str	r3, [r7, #16]
        GPIOx->AFR[position >> 3u] = temp;
 8003b7c:	697b      	ldr	r3, [r7, #20]
 8003b7e:	08da      	lsrs	r2, r3, #3
 8003b80:	687b      	ldr	r3, [r7, #4]
 8003b82:	3208      	adds	r2, #8
 8003b84:	0092      	lsls	r2, r2, #2
 8003b86:	6939      	ldr	r1, [r7, #16]
 8003b88:	50d1      	str	r1, [r2, r3]
      }

      /* Configure IO Direction mode (Input, Output, Alternate or Analog) */
      temp = GPIOx->MODER;
 8003b8a:	687b      	ldr	r3, [r7, #4]
 8003b8c:	681b      	ldr	r3, [r3, #0]
 8003b8e:	613b      	str	r3, [r7, #16]
      temp &= ~(GPIO_MODER_MODER0 << (position * 2u));
 8003b90:	697b      	ldr	r3, [r7, #20]
 8003b92:	005b      	lsls	r3, r3, #1
 8003b94:	2203      	movs	r2, #3
 8003b96:	409a      	lsls	r2, r3
 8003b98:	0013      	movs	r3, r2
 8003b9a:	43da      	mvns	r2, r3
 8003b9c:	693b      	ldr	r3, [r7, #16]
 8003b9e:	4013      	ands	r3, r2
 8003ba0:	613b      	str	r3, [r7, #16]
      temp |= ((GPIO_Init->Mode & GPIO_MODE) << (position * 2u));
 8003ba2:	683b      	ldr	r3, [r7, #0]
 8003ba4:	685b      	ldr	r3, [r3, #4]
 8003ba6:	2203      	movs	r2, #3
 8003ba8:	401a      	ands	r2, r3
 8003baa:	697b      	ldr	r3, [r7, #20]
 8003bac:	005b      	lsls	r3, r3, #1
 8003bae:	409a      	lsls	r2, r3
 8003bb0:	0013      	movs	r3, r2
 8003bb2:	693a      	ldr	r2, [r7, #16]
 8003bb4:	4313      	orrs	r3, r2
 8003bb6:	613b      	str	r3, [r7, #16]
      GPIOx->MODER = temp;
 8003bb8:	687b      	ldr	r3, [r7, #4]
 8003bba:	693a      	ldr	r2, [r7, #16]
 8003bbc:	601a      	str	r2, [r3, #0]

      /*--------------------- EXTI Mode Configuration ------------------------*/
      /* Configure the External Interrupt or event for the current IO */
      if((GPIO_Init->Mode & EXTI_MODE) == EXTI_MODE)
 8003bbe:	683b      	ldr	r3, [r7, #0]
 8003bc0:	685a      	ldr	r2, [r3, #4]
 8003bc2:	2380      	movs	r3, #128	; 0x80
 8003bc4:	055b      	lsls	r3, r3, #21
 8003bc6:	4013      	ands	r3, r2
 8003bc8:	d100      	bne.n	8003bcc <HAL_GPIO_Init+0x174>
 8003bca:	e09a      	b.n	8003d02 <HAL_GPIO_Init+0x2aa>
      {
        /* Enable SYSCFG Clock */
        __HAL_RCC_SYSCFG_CLK_ENABLE();
 8003bcc:	4b54      	ldr	r3, [pc, #336]	; (8003d20 <HAL_GPIO_Init+0x2c8>)
 8003bce:	699a      	ldr	r2, [r3, #24]
 8003bd0:	4b53      	ldr	r3, [pc, #332]	; (8003d20 <HAL_GPIO_Init+0x2c8>)
 8003bd2:	2101      	movs	r1, #1
 8003bd4:	430a      	orrs	r2, r1
 8003bd6:	619a      	str	r2, [r3, #24]
 8003bd8:	4b51      	ldr	r3, [pc, #324]	; (8003d20 <HAL_GPIO_Init+0x2c8>)
 8003bda:	699b      	ldr	r3, [r3, #24]
 8003bdc:	2201      	movs	r2, #1
 8003bde:	4013      	ands	r3, r2
 8003be0:	60bb      	str	r3, [r7, #8]
 8003be2:	68bb      	ldr	r3, [r7, #8]

        temp = SYSCFG->EXTICR[position >> 2u];
 8003be4:	4a4f      	ldr	r2, [pc, #316]	; (8003d24 <HAL_GPIO_Init+0x2cc>)
 8003be6:	697b      	ldr	r3, [r7, #20]
 8003be8:	089b      	lsrs	r3, r3, #2
 8003bea:	3302      	adds	r3, #2
 8003bec:	009b      	lsls	r3, r3, #2
 8003bee:	589b      	ldr	r3, [r3, r2]
 8003bf0:	613b      	str	r3, [r7, #16]
        temp &= ~(0x0FuL << (4u * (position & 0x03u)));
 8003bf2:	697b      	ldr	r3, [r7, #20]
 8003bf4:	2203      	movs	r2, #3
 8003bf6:	4013      	ands	r3, r2
 8003bf8:	009b      	lsls	r3, r3, #2
 8003bfa:	220f      	movs	r2, #15
 8003bfc:	409a      	lsls	r2, r3
 8003bfe:	0013      	movs	r3, r2
 8003c00:	43da      	mvns	r2, r3
 8003c02:	693b      	ldr	r3, [r7, #16]
 8003c04:	4013      	ands	r3, r2
 8003c06:	613b      	str	r3, [r7, #16]
        temp |= (GPIO_GET_INDEX(GPIOx) << (4u * (position & 0x03u)));
 8003c08:	687a      	ldr	r2, [r7, #4]
 8003c0a:	2390      	movs	r3, #144	; 0x90
 8003c0c:	05db      	lsls	r3, r3, #23
 8003c0e:	429a      	cmp	r2, r3
 8003c10:	d013      	beq.n	8003c3a <HAL_GPIO_Init+0x1e2>
 8003c12:	687b      	ldr	r3, [r7, #4]
 8003c14:	4a44      	ldr	r2, [pc, #272]	; (8003d28 <HAL_GPIO_Init+0x2d0>)
 8003c16:	4293      	cmp	r3, r2
 8003c18:	d00d      	beq.n	8003c36 <HAL_GPIO_Init+0x1de>
 8003c1a:	687b      	ldr	r3, [r7, #4]
 8003c1c:	4a43      	ldr	r2, [pc, #268]	; (8003d2c <HAL_GPIO_Init+0x2d4>)
 8003c1e:	4293      	cmp	r3, r2
 8003c20:	d007      	beq.n	8003c32 <HAL_GPIO_Init+0x1da>
 8003c22:	687b      	ldr	r3, [r7, #4]
 8003c24:	4a42      	ldr	r2, [pc, #264]	; (8003d30 <HAL_GPIO_Init+0x2d8>)
 8003c26:	4293      	cmp	r3, r2
 8003c28:	d101      	bne.n	8003c2e <HAL_GPIO_Init+0x1d6>
 8003c2a:	2303      	movs	r3, #3
 8003c2c:	e006      	b.n	8003c3c <HAL_GPIO_Init+0x1e4>
 8003c2e:	2305      	movs	r3, #5
 8003c30:	e004      	b.n	8003c3c <HAL_GPIO_Init+0x1e4>
 8003c32:	2302      	movs	r3, #2
 8003c34:	e002      	b.n	8003c3c <HAL_GPIO_Init+0x1e4>
 8003c36:	2301      	movs	r3, #1
 8003c38:	e000      	b.n	8003c3c <HAL_GPIO_Init+0x1e4>
 8003c3a:	2300      	movs	r3, #0
 8003c3c:	697a      	ldr	r2, [r7, #20]
 8003c3e:	2103      	movs	r1, #3
 8003c40:	400a      	ands	r2, r1
 8003c42:	0092      	lsls	r2, r2, #2
 8003c44:	4093      	lsls	r3, r2
 8003c46:	693a      	ldr	r2, [r7, #16]
 8003c48:	4313      	orrs	r3, r2
 8003c4a:	613b      	str	r3, [r7, #16]
        SYSCFG->EXTICR[position >> 2u] = temp;
 8003c4c:	4935      	ldr	r1, [pc, #212]	; (8003d24 <HAL_GPIO_Init+0x2cc>)
 8003c4e:	697b      	ldr	r3, [r7, #20]
 8003c50:	089b      	lsrs	r3, r3, #2
 8003c52:	3302      	adds	r3, #2
 8003c54:	009b      	lsls	r3, r3, #2
 8003c56:	693a      	ldr	r2, [r7, #16]
 8003c58:	505a      	str	r2, [r3, r1]

        /* Clear EXTI line configuration */
        temp = EXTI->IMR;
 8003c5a:	4b36      	ldr	r3, [pc, #216]	; (8003d34 <HAL_GPIO_Init+0x2dc>)
 8003c5c:	681b      	ldr	r3, [r3, #0]
 8003c5e:	613b      	str	r3, [r7, #16]
        temp &= ~(iocurrent);
 8003c60:	68fb      	ldr	r3, [r7, #12]
 8003c62:	43da      	mvns	r2, r3
 8003c64:	693b      	ldr	r3, [r7, #16]
 8003c66:	4013      	ands	r3, r2
 8003c68:	613b      	str	r3, [r7, #16]
        if((GPIO_Init->Mode & GPIO_MODE_IT) == GPIO_MODE_IT)
 8003c6a:	683b      	ldr	r3, [r7, #0]
 8003c6c:	685a      	ldr	r2, [r3, #4]
 8003c6e:	2380      	movs	r3, #128	; 0x80
 8003c70:	025b      	lsls	r3, r3, #9
 8003c72:	4013      	ands	r3, r2
 8003c74:	d003      	beq.n	8003c7e <HAL_GPIO_Init+0x226>
        {
          temp |= iocurrent;
 8003c76:	693a      	ldr	r2, [r7, #16]
 8003c78:	68fb      	ldr	r3, [r7, #12]
 8003c7a:	4313      	orrs	r3, r2
 8003c7c:	613b      	str	r3, [r7, #16]
        }
        EXTI->IMR = temp;
 8003c7e:	4b2d      	ldr	r3, [pc, #180]	; (8003d34 <HAL_GPIO_Init+0x2dc>)
 8003c80:	693a      	ldr	r2, [r7, #16]
 8003c82:	601a      	str	r2, [r3, #0]

        temp = EXTI->EMR;
 8003c84:	4b2b      	ldr	r3, [pc, #172]	; (8003d34 <HAL_GPIO_Init+0x2dc>)
 8003c86:	685b      	ldr	r3, [r3, #4]
 8003c88:	613b      	str	r3, [r7, #16]
        temp &= ~(iocurrent);
 8003c8a:	68fb      	ldr	r3, [r7, #12]
 8003c8c:	43da      	mvns	r2, r3
 8003c8e:	693b      	ldr	r3, [r7, #16]
 8003c90:	4013      	ands	r3, r2
 8003c92:	613b      	str	r3, [r7, #16]
        if((GPIO_Init->Mode & GPIO_MODE_EVT) == GPIO_MODE_EVT)
 8003c94:	683b      	ldr	r3, [r7, #0]
 8003c96:	685a      	ldr	r2, [r3, #4]
 8003c98:	2380      	movs	r3, #128	; 0x80
 8003c9a:	029b      	lsls	r3, r3, #10
 8003c9c:	4013      	ands	r3, r2
 8003c9e:	d003      	beq.n	8003ca8 <HAL_GPIO_Init+0x250>
        {
          temp |= iocurrent;
 8003ca0:	693a      	ldr	r2, [r7, #16]
 8003ca2:	68fb      	ldr	r3, [r7, #12]
 8003ca4:	4313      	orrs	r3, r2
 8003ca6:	613b      	str	r3, [r7, #16]
        }
        EXTI->EMR = temp;
 8003ca8:	4b22      	ldr	r3, [pc, #136]	; (8003d34 <HAL_GPIO_Init+0x2dc>)
 8003caa:	693a      	ldr	r2, [r7, #16]
 8003cac:	605a      	str	r2, [r3, #4]

        /* Clear Rising Falling edge configuration */
        temp = EXTI->RTSR;
 8003cae:	4b21      	ldr	r3, [pc, #132]	; (8003d34 <HAL_GPIO_Init+0x2dc>)
 8003cb0:	689b      	ldr	r3, [r3, #8]
 8003cb2:	613b      	str	r3, [r7, #16]
        temp &= ~(iocurrent);
 8003cb4:	68fb      	ldr	r3, [r7, #12]
 8003cb6:	43da      	mvns	r2, r3
 8003cb8:	693b      	ldr	r3, [r7, #16]
 8003cba:	4013      	ands	r3, r2
 8003cbc:	613b      	str	r3, [r7, #16]
        if((GPIO_Init->Mode & RISING_EDGE) == RISING_EDGE)
 8003cbe:	683b      	ldr	r3, [r7, #0]
 8003cc0:	685a      	ldr	r2, [r3, #4]
 8003cc2:	2380      	movs	r3, #128	; 0x80
 8003cc4:	035b      	lsls	r3, r3, #13
 8003cc6:	4013      	ands	r3, r2
 8003cc8:	d003      	beq.n	8003cd2 <HAL_GPIO_Init+0x27a>
        {
          temp |= iocurrent;
 8003cca:	693a      	ldr	r2, [r7, #16]
 8003ccc:	68fb      	ldr	r3, [r7, #12]
 8003cce:	4313      	orrs	r3, r2
 8003cd0:	613b      	str	r3, [r7, #16]
        }
        EXTI->RTSR = temp;
 8003cd2:	4b18      	ldr	r3, [pc, #96]	; (8003d34 <HAL_GPIO_Init+0x2dc>)
 8003cd4:	693a      	ldr	r2, [r7, #16]
 8003cd6:	609a      	str	r2, [r3, #8]

        temp = EXTI->FTSR;
 8003cd8:	4b16      	ldr	r3, [pc, #88]	; (8003d34 <HAL_GPIO_Init+0x2dc>)
 8003cda:	68db      	ldr	r3, [r3, #12]
 8003cdc:	613b      	str	r3, [r7, #16]
        temp &= ~(iocurrent);
 8003cde:	68fb      	ldr	r3, [r7, #12]
 8003ce0:	43da      	mvns	r2, r3
 8003ce2:	693b      	ldr	r3, [r7, #16]
 8003ce4:	4013      	ands	r3, r2
 8003ce6:	613b      	str	r3, [r7, #16]
        if((GPIO_Init->Mode & FALLING_EDGE) == FALLING_EDGE)
 8003ce8:	683b      	ldr	r3, [r7, #0]
 8003cea:	685a      	ldr	r2, [r3, #4]
 8003cec:	2380      	movs	r3, #128	; 0x80
 8003cee:	039b      	lsls	r3, r3, #14
 8003cf0:	4013      	ands	r3, r2
 8003cf2:	d003      	beq.n	8003cfc <HAL_GPIO_Init+0x2a4>
        {
          temp |= iocurrent;
 8003cf4:	693a      	ldr	r2, [r7, #16]
 8003cf6:	68fb      	ldr	r3, [r7, #12]
 8003cf8:	4313      	orrs	r3, r2
 8003cfa:	613b      	str	r3, [r7, #16]
        }
        EXTI->FTSR = temp;
 8003cfc:	4b0d      	ldr	r3, [pc, #52]	; (8003d34 <HAL_GPIO_Init+0x2dc>)
 8003cfe:	693a      	ldr	r2, [r7, #16]
 8003d00:	60da      	str	r2, [r3, #12]
      }
    }

    position++;
 8003d02:	697b      	ldr	r3, [r7, #20]
 8003d04:	3301      	adds	r3, #1
 8003d06:	617b      	str	r3, [r7, #20]
  while (((GPIO_Init->Pin) >> position) != 0x00u)
 8003d08:	683b      	ldr	r3, [r7, #0]
 8003d0a:	681a      	ldr	r2, [r3, #0]
 8003d0c:	697b      	ldr	r3, [r7, #20]
 8003d0e:	40da      	lsrs	r2, r3
 8003d10:	1e13      	subs	r3, r2, #0
 8003d12:	d000      	beq.n	8003d16 <HAL_GPIO_Init+0x2be>
 8003d14:	e6a8      	b.n	8003a68 <HAL_GPIO_Init+0x10>
  } 
}
 8003d16:	46c0      	nop			; (mov r8, r8)
 8003d18:	46bd      	mov	sp, r7
 8003d1a:	b006      	add	sp, #24
 8003d1c:	bd80      	pop	{r7, pc}
 8003d1e:	46c0      	nop			; (mov r8, r8)
 8003d20:	40021000 	.word	0x40021000
 8003d24:	40010000 	.word	0x40010000
 8003d28:	48000400 	.word	0x48000400
 8003d2c:	48000800 	.word	0x48000800
 8003d30:	48000c00 	.word	0x48000c00
 8003d34:	40010400 	.word	0x40010400

08003d38 <HAL_GPIO_ReadPin>:
  * @param  GPIO_Pin specifies the port bit to read.
  *         This parameter can be GPIO_PIN_x where x can be (0..15).
  * @retval The input port pin value.
  */
GPIO_PinState HAL_GPIO_ReadPin(GPIO_TypeDef* GPIOx, uint16_t GPIO_Pin)
{
 8003d38:	b580      	push	{r7, lr}
 8003d3a:	b084      	sub	sp, #16
 8003d3c:	af00      	add	r7, sp, #0
 8003d3e:	6078      	str	r0, [r7, #4]
 8003d40:	000a      	movs	r2, r1
 8003d42:	1cbb      	adds	r3, r7, #2
 8003d44:	801a      	strh	r2, [r3, #0]
  GPIO_PinState bitstatus;

  /* Check the parameters */
  assert_param(IS_GPIO_PIN(GPIO_Pin));

  if ((GPIOx->IDR & GPIO_Pin) != (uint32_t)GPIO_PIN_RESET)
 8003d46:	687b      	ldr	r3, [r7, #4]
 8003d48:	691b      	ldr	r3, [r3, #16]
 8003d4a:	1cba      	adds	r2, r7, #2
 8003d4c:	8812      	ldrh	r2, [r2, #0]
 8003d4e:	4013      	ands	r3, r2
 8003d50:	d004      	beq.n	8003d5c <HAL_GPIO_ReadPin+0x24>
  {
    bitstatus = GPIO_PIN_SET;
 8003d52:	230f      	movs	r3, #15
 8003d54:	18fb      	adds	r3, r7, r3
 8003d56:	2201      	movs	r2, #1
 8003d58:	701a      	strb	r2, [r3, #0]
 8003d5a:	e003      	b.n	8003d64 <HAL_GPIO_ReadPin+0x2c>
  }
  else
  {
    bitstatus = GPIO_PIN_RESET;
 8003d5c:	230f      	movs	r3, #15
 8003d5e:	18fb      	adds	r3, r7, r3
 8003d60:	2200      	movs	r2, #0
 8003d62:	701a      	strb	r2, [r3, #0]
  }
  return bitstatus;
 8003d64:	230f      	movs	r3, #15
 8003d66:	18fb      	adds	r3, r7, r3
 8003d68:	781b      	ldrb	r3, [r3, #0]
  }
 8003d6a:	0018      	movs	r0, r3
 8003d6c:	46bd      	mov	sp, r7
 8003d6e:	b004      	add	sp, #16
 8003d70:	bd80      	pop	{r7, pc}

08003d72 <HAL_GPIO_WritePin>:
  *            @arg GPIO_PIN_RESET: to clear the port pin
  *            @arg GPIO_PIN_SET: to set the port pin
  * @retval None
  */
void HAL_GPIO_WritePin(GPIO_TypeDef* GPIOx, uint16_t GPIO_Pin, GPIO_PinState PinState)
{
 8003d72:	b580      	push	{r7, lr}
 8003d74:	b082      	sub	sp, #8
 8003d76:	af00      	add	r7, sp, #0
 8003d78:	6078      	str	r0, [r7, #4]
 8003d7a:	0008      	movs	r0, r1
 8003d7c:	0011      	movs	r1, r2
 8003d7e:	1cbb      	adds	r3, r7, #2
 8003d80:	1c02      	adds	r2, r0, #0
 8003d82:	801a      	strh	r2, [r3, #0]
 8003d84:	1c7b      	adds	r3, r7, #1
 8003d86:	1c0a      	adds	r2, r1, #0
 8003d88:	701a      	strb	r2, [r3, #0]
  /* Check the parameters */
  assert_param(IS_GPIO_PIN(GPIO_Pin));
  assert_param(IS_GPIO_PIN_ACTION(PinState));

  if (PinState != GPIO_PIN_RESET)
 8003d8a:	1c7b      	adds	r3, r7, #1
 8003d8c:	781b      	ldrb	r3, [r3, #0]
 8003d8e:	2b00      	cmp	r3, #0
 8003d90:	d004      	beq.n	8003d9c <HAL_GPIO_WritePin+0x2a>
  {
    GPIOx->BSRR = (uint32_t)GPIO_Pin;
 8003d92:	1cbb      	adds	r3, r7, #2
 8003d94:	881a      	ldrh	r2, [r3, #0]
 8003d96:	687b      	ldr	r3, [r7, #4]
 8003d98:	619a      	str	r2, [r3, #24]
  }
  else
  {
    GPIOx->BRR = (uint32_t)GPIO_Pin;
  }
}
 8003d9a:	e003      	b.n	8003da4 <HAL_GPIO_WritePin+0x32>
    GPIOx->BRR = (uint32_t)GPIO_Pin;
 8003d9c:	1cbb      	adds	r3, r7, #2
 8003d9e:	881a      	ldrh	r2, [r3, #0]
 8003da0:	687b      	ldr	r3, [r7, #4]
 8003da2:	629a      	str	r2, [r3, #40]	; 0x28
}
 8003da4:	46c0      	nop			; (mov r8, r8)
 8003da6:	46bd      	mov	sp, r7
 8003da8:	b002      	add	sp, #8
 8003daa:	bd80      	pop	{r7, pc}

08003dac <HAL_RCC_OscConfig>:
  *         supported by this macro. User should request a transition to HSE Off
  *         first and then HSE On or HSE Bypass.
  * @retval HAL status
  */
HAL_StatusTypeDef HAL_RCC_OscConfig(RCC_OscInitTypeDef  *RCC_OscInitStruct)
{
 8003dac:	b580      	push	{r7, lr}
 8003dae:	b088      	sub	sp, #32
 8003db0:	af00      	add	r7, sp, #0
 8003db2:	6078      	str	r0, [r7, #4]
  uint32_t tickstart;
  uint32_t pll_config;
  uint32_t pll_config2;

  /* Check Null pointer */
  if(RCC_OscInitStruct == NULL)
 8003db4:	687b      	ldr	r3, [r7, #4]
 8003db6:	2b00      	cmp	r3, #0
 8003db8:	d101      	bne.n	8003dbe <HAL_RCC_OscConfig+0x12>
  {
    return HAL_ERROR;
 8003dba:	2301      	movs	r3, #1
 8003dbc:	e303      	b.n	80043c6 <HAL_RCC_OscConfig+0x61a>

  /* Check the parameters */
  assert_param(IS_RCC_OSCILLATORTYPE(RCC_OscInitStruct->OscillatorType));

  /*------------------------------- HSE Configuration ------------------------*/ 
  if(((RCC_OscInitStruct->OscillatorType) & RCC_OSCILLATORTYPE_HSE) == RCC_OSCILLATORTYPE_HSE)
 8003dbe:	687b      	ldr	r3, [r7, #4]
 8003dc0:	681b      	ldr	r3, [r3, #0]
 8003dc2:	2201      	movs	r2, #1
 8003dc4:	4013      	ands	r3, r2
 8003dc6:	d100      	bne.n	8003dca <HAL_RCC_OscConfig+0x1e>
 8003dc8:	e08d      	b.n	8003ee6 <HAL_RCC_OscConfig+0x13a>
  {
    /* Check the parameters */
    assert_param(IS_RCC_HSE(RCC_OscInitStruct->HSEState));

    /* When the HSE is used as system clock or clock source for PLL in these cases it is not allowed to be disabled */
    if((__HAL_RCC_GET_SYSCLK_SOURCE() == RCC_SYSCLKSOURCE_STATUS_HSE) 
 8003dca:	4bc4      	ldr	r3, [pc, #784]	; (80040dc <HAL_RCC_OscConfig+0x330>)
 8003dcc:	685b      	ldr	r3, [r3, #4]
 8003dce:	220c      	movs	r2, #12
 8003dd0:	4013      	ands	r3, r2
 8003dd2:	2b04      	cmp	r3, #4
 8003dd4:	d00e      	beq.n	8003df4 <HAL_RCC_OscConfig+0x48>
       || ((__HAL_RCC_GET_SYSCLK_SOURCE() == RCC_SYSCLKSOURCE_STATUS_PLLCLK) && (__HAL_RCC_GET_PLL_OSCSOURCE() == RCC_PLLSOURCE_HSE)))
 8003dd6:	4bc1      	ldr	r3, [pc, #772]	; (80040dc <HAL_RCC_OscConfig+0x330>)
 8003dd8:	685b      	ldr	r3, [r3, #4]
 8003dda:	220c      	movs	r2, #12
 8003ddc:	4013      	ands	r3, r2
 8003dde:	2b08      	cmp	r3, #8
 8003de0:	d116      	bne.n	8003e10 <HAL_RCC_OscConfig+0x64>
 8003de2:	4bbe      	ldr	r3, [pc, #760]	; (80040dc <HAL_RCC_OscConfig+0x330>)
 8003de4:	685a      	ldr	r2, [r3, #4]
 8003de6:	2380      	movs	r3, #128	; 0x80
 8003de8:	025b      	lsls	r3, r3, #9
 8003dea:	401a      	ands	r2, r3
 8003dec:	2380      	movs	r3, #128	; 0x80
 8003dee:	025b      	lsls	r3, r3, #9
 8003df0:	429a      	cmp	r2, r3
 8003df2:	d10d      	bne.n	8003e10 <HAL_RCC_OscConfig+0x64>
    {
      if((__HAL_RCC_GET_FLAG(RCC_FLAG_HSERDY) != RESET) && (RCC_OscInitStruct->HSEState == RCC_HSE_OFF))
 8003df4:	4bb9      	ldr	r3, [pc, #740]	; (80040dc <HAL_RCC_OscConfig+0x330>)
 8003df6:	681a      	ldr	r2, [r3, #0]
 8003df8:	2380      	movs	r3, #128	; 0x80
 8003dfa:	029b      	lsls	r3, r3, #10
 8003dfc:	4013      	ands	r3, r2
 8003dfe:	d100      	bne.n	8003e02 <HAL_RCC_OscConfig+0x56>
 8003e00:	e070      	b.n	8003ee4 <HAL_RCC_OscConfig+0x138>
 8003e02:	687b      	ldr	r3, [r7, #4]
 8003e04:	685b      	ldr	r3, [r3, #4]
 8003e06:	2b00      	cmp	r3, #0
 8003e08:	d000      	beq.n	8003e0c <HAL_RCC_OscConfig+0x60>
 8003e0a:	e06b      	b.n	8003ee4 <HAL_RCC_OscConfig+0x138>
      {
        return HAL_ERROR;
 8003e0c:	2301      	movs	r3, #1
 8003e0e:	e2da      	b.n	80043c6 <HAL_RCC_OscConfig+0x61a>
      }
    }
    else
    {
      /* Set the new HSE configuration ---------------------------------------*/
      __HAL_RCC_HSE_CONFIG(RCC_OscInitStruct->HSEState);
 8003e10:	687b      	ldr	r3, [r7, #4]
 8003e12:	685b      	ldr	r3, [r3, #4]
 8003e14:	2b01      	cmp	r3, #1
 8003e16:	d107      	bne.n	8003e28 <HAL_RCC_OscConfig+0x7c>
 8003e18:	4bb0      	ldr	r3, [pc, #704]	; (80040dc <HAL_RCC_OscConfig+0x330>)
 8003e1a:	681a      	ldr	r2, [r3, #0]
 8003e1c:	4baf      	ldr	r3, [pc, #700]	; (80040dc <HAL_RCC_OscConfig+0x330>)
 8003e1e:	2180      	movs	r1, #128	; 0x80
 8003e20:	0249      	lsls	r1, r1, #9
 8003e22:	430a      	orrs	r2, r1
 8003e24:	601a      	str	r2, [r3, #0]
 8003e26:	e02f      	b.n	8003e88 <HAL_RCC_OscConfig+0xdc>
 8003e28:	687b      	ldr	r3, [r7, #4]
 8003e2a:	685b      	ldr	r3, [r3, #4]
 8003e2c:	2b00      	cmp	r3, #0
 8003e2e:	d10c      	bne.n	8003e4a <HAL_RCC_OscConfig+0x9e>
 8003e30:	4baa      	ldr	r3, [pc, #680]	; (80040dc <HAL_RCC_OscConfig+0x330>)
 8003e32:	681a      	ldr	r2, [r3, #0]
 8003e34:	4ba9      	ldr	r3, [pc, #676]	; (80040dc <HAL_RCC_OscConfig+0x330>)
 8003e36:	49aa      	ldr	r1, [pc, #680]	; (80040e0 <HAL_RCC_OscConfig+0x334>)
 8003e38:	400a      	ands	r2, r1
 8003e3a:	601a      	str	r2, [r3, #0]
 8003e3c:	4ba7      	ldr	r3, [pc, #668]	; (80040dc <HAL_RCC_OscConfig+0x330>)
 8003e3e:	681a      	ldr	r2, [r3, #0]
 8003e40:	4ba6      	ldr	r3, [pc, #664]	; (80040dc <HAL_RCC_OscConfig+0x330>)
 8003e42:	49a8      	ldr	r1, [pc, #672]	; (80040e4 <HAL_RCC_OscConfig+0x338>)
 8003e44:	400a      	ands	r2, r1
 8003e46:	601a      	str	r2, [r3, #0]
 8003e48:	e01e      	b.n	8003e88 <HAL_RCC_OscConfig+0xdc>
 8003e4a:	687b      	ldr	r3, [r7, #4]
 8003e4c:	685b      	ldr	r3, [r3, #4]
 8003e4e:	2b05      	cmp	r3, #5
 8003e50:	d10e      	bne.n	8003e70 <HAL_RCC_OscConfig+0xc4>
 8003e52:	4ba2      	ldr	r3, [pc, #648]	; (80040dc <HAL_RCC_OscConfig+0x330>)
 8003e54:	681a      	ldr	r2, [r3, #0]
 8003e56:	4ba1      	ldr	r3, [pc, #644]	; (80040dc <HAL_RCC_OscConfig+0x330>)
 8003e58:	2180      	movs	r1, #128	; 0x80
 8003e5a:	02c9      	lsls	r1, r1, #11
 8003e5c:	430a      	orrs	r2, r1
 8003e5e:	601a      	str	r2, [r3, #0]
 8003e60:	4b9e      	ldr	r3, [pc, #632]	; (80040dc <HAL_RCC_OscConfig+0x330>)
 8003e62:	681a      	ldr	r2, [r3, #0]
 8003e64:	4b9d      	ldr	r3, [pc, #628]	; (80040dc <HAL_RCC_OscConfig+0x330>)
 8003e66:	2180      	movs	r1, #128	; 0x80
 8003e68:	0249      	lsls	r1, r1, #9
 8003e6a:	430a      	orrs	r2, r1
 8003e6c:	601a      	str	r2, [r3, #0]
 8003e6e:	e00b      	b.n	8003e88 <HAL_RCC_OscConfig+0xdc>
 8003e70:	4b9a      	ldr	r3, [pc, #616]	; (80040dc <HAL_RCC_OscConfig+0x330>)
 8003e72:	681a      	ldr	r2, [r3, #0]
 8003e74:	4b99      	ldr	r3, [pc, #612]	; (80040dc <HAL_RCC_OscConfig+0x330>)
 8003e76:	499a      	ldr	r1, [pc, #616]	; (80040e0 <HAL_RCC_OscConfig+0x334>)
 8003e78:	400a      	ands	r2, r1
 8003e7a:	601a      	str	r2, [r3, #0]
 8003e7c:	4b97      	ldr	r3, [pc, #604]	; (80040dc <HAL_RCC_OscConfig+0x330>)
 8003e7e:	681a      	ldr	r2, [r3, #0]
 8003e80:	4b96      	ldr	r3, [pc, #600]	; (80040dc <HAL_RCC_OscConfig+0x330>)
 8003e82:	4998      	ldr	r1, [pc, #608]	; (80040e4 <HAL_RCC_OscConfig+0x338>)
 8003e84:	400a      	ands	r2, r1
 8003e86:	601a      	str	r2, [r3, #0]
      

       /* Check the HSE State */
      if(RCC_OscInitStruct->HSEState != RCC_HSE_OFF)
 8003e88:	687b      	ldr	r3, [r7, #4]
 8003e8a:	685b      	ldr	r3, [r3, #4]
 8003e8c:	2b00      	cmp	r3, #0
 8003e8e:	d014      	beq.n	8003eba <HAL_RCC_OscConfig+0x10e>
      {
        /* Get Start Tick */
        tickstart = HAL_GetTick();
 8003e90:	f7ff fc70 	bl	8003774 <HAL_GetTick>
 8003e94:	0003      	movs	r3, r0
 8003e96:	61bb      	str	r3, [r7, #24]
        
        /* Wait till HSE is ready */
        while(__HAL_RCC_GET_FLAG(RCC_FLAG_HSERDY) == RESET)
 8003e98:	e008      	b.n	8003eac <HAL_RCC_OscConfig+0x100>
        {
          if((HAL_GetTick() - tickstart ) > HSE_TIMEOUT_VALUE)
 8003e9a:	f7ff fc6b 	bl	8003774 <HAL_GetTick>
 8003e9e:	0002      	movs	r2, r0
 8003ea0:	69bb      	ldr	r3, [r7, #24]
 8003ea2:	1ad3      	subs	r3, r2, r3
 8003ea4:	2b64      	cmp	r3, #100	; 0x64
 8003ea6:	d901      	bls.n	8003eac <HAL_RCC_OscConfig+0x100>
          {
            return HAL_TIMEOUT;
 8003ea8:	2303      	movs	r3, #3
 8003eaa:	e28c      	b.n	80043c6 <HAL_RCC_OscConfig+0x61a>
        while(__HAL_RCC_GET_FLAG(RCC_FLAG_HSERDY) == RESET)
 8003eac:	4b8b      	ldr	r3, [pc, #556]	; (80040dc <HAL_RCC_OscConfig+0x330>)
 8003eae:	681a      	ldr	r2, [r3, #0]
 8003eb0:	2380      	movs	r3, #128	; 0x80
 8003eb2:	029b      	lsls	r3, r3, #10
 8003eb4:	4013      	ands	r3, r2
 8003eb6:	d0f0      	beq.n	8003e9a <HAL_RCC_OscConfig+0xee>
 8003eb8:	e015      	b.n	8003ee6 <HAL_RCC_OscConfig+0x13a>
        }
      }
      else
      {
        /* Get Start Tick */
        tickstart = HAL_GetTick();
 8003eba:	f7ff fc5b 	bl	8003774 <HAL_GetTick>
 8003ebe:	0003      	movs	r3, r0
 8003ec0:	61bb      	str	r3, [r7, #24]
        
        /* Wait till HSE is disabled */
        while(__HAL_RCC_GET_FLAG(RCC_FLAG_HSERDY) != RESET)
 8003ec2:	e008      	b.n	8003ed6 <HAL_RCC_OscConfig+0x12a>
        {
           if((HAL_GetTick() - tickstart ) > HSE_TIMEOUT_VALUE)
 8003ec4:	f7ff fc56 	bl	8003774 <HAL_GetTick>
 8003ec8:	0002      	movs	r2, r0
 8003eca:	69bb      	ldr	r3, [r7, #24]
 8003ecc:	1ad3      	subs	r3, r2, r3
 8003ece:	2b64      	cmp	r3, #100	; 0x64
 8003ed0:	d901      	bls.n	8003ed6 <HAL_RCC_OscConfig+0x12a>
          {
            return HAL_TIMEOUT;
 8003ed2:	2303      	movs	r3, #3
 8003ed4:	e277      	b.n	80043c6 <HAL_RCC_OscConfig+0x61a>
        while(__HAL_RCC_GET_FLAG(RCC_FLAG_HSERDY) != RESET)
 8003ed6:	4b81      	ldr	r3, [pc, #516]	; (80040dc <HAL_RCC_OscConfig+0x330>)
 8003ed8:	681a      	ldr	r2, [r3, #0]
 8003eda:	2380      	movs	r3, #128	; 0x80
 8003edc:	029b      	lsls	r3, r3, #10
 8003ede:	4013      	ands	r3, r2
 8003ee0:	d1f0      	bne.n	8003ec4 <HAL_RCC_OscConfig+0x118>
 8003ee2:	e000      	b.n	8003ee6 <HAL_RCC_OscConfig+0x13a>
      if((__HAL_RCC_GET_FLAG(RCC_FLAG_HSERDY) != RESET) && (RCC_OscInitStruct->HSEState == RCC_HSE_OFF))
 8003ee4:	46c0      	nop			; (mov r8, r8)
        }
      }
    }
  }
  /*----------------------------- HSI Configuration --------------------------*/ 
  if(((RCC_OscInitStruct->OscillatorType) & RCC_OSCILLATORTYPE_HSI) == RCC_OSCILLATORTYPE_HSI)
 8003ee6:	687b      	ldr	r3, [r7, #4]
 8003ee8:	681b      	ldr	r3, [r3, #0]
 8003eea:	2202      	movs	r2, #2
 8003eec:	4013      	ands	r3, r2
 8003eee:	d100      	bne.n	8003ef2 <HAL_RCC_OscConfig+0x146>
 8003ef0:	e069      	b.n	8003fc6 <HAL_RCC_OscConfig+0x21a>
    /* Check the parameters */
    assert_param(IS_RCC_HSI(RCC_OscInitStruct->HSIState));
    assert_param(IS_RCC_CALIBRATION_VALUE(RCC_OscInitStruct->HSICalibrationValue));
    
    /* Check if HSI is used as system clock or as PLL source when PLL is selected as system clock */ 
    if((__HAL_RCC_GET_SYSCLK_SOURCE() == RCC_SYSCLKSOURCE_STATUS_HSI) 
 8003ef2:	4b7a      	ldr	r3, [pc, #488]	; (80040dc <HAL_RCC_OscConfig+0x330>)
 8003ef4:	685b      	ldr	r3, [r3, #4]
 8003ef6:	220c      	movs	r2, #12
 8003ef8:	4013      	ands	r3, r2
 8003efa:	d00b      	beq.n	8003f14 <HAL_RCC_OscConfig+0x168>
       || ((__HAL_RCC_GET_SYSCLK_SOURCE() == RCC_SYSCLKSOURCE_STATUS_PLLCLK) && (__HAL_RCC_GET_PLL_OSCSOURCE() == RCC_PLLSOURCE_HSI)))
 8003efc:	4b77      	ldr	r3, [pc, #476]	; (80040dc <HAL_RCC_OscConfig+0x330>)
 8003efe:	685b      	ldr	r3, [r3, #4]
 8003f00:	220c      	movs	r2, #12
 8003f02:	4013      	ands	r3, r2
 8003f04:	2b08      	cmp	r3, #8
 8003f06:	d11c      	bne.n	8003f42 <HAL_RCC_OscConfig+0x196>
 8003f08:	4b74      	ldr	r3, [pc, #464]	; (80040dc <HAL_RCC_OscConfig+0x330>)
 8003f0a:	685a      	ldr	r2, [r3, #4]
 8003f0c:	2380      	movs	r3, #128	; 0x80
 8003f0e:	025b      	lsls	r3, r3, #9
 8003f10:	4013      	ands	r3, r2
 8003f12:	d116      	bne.n	8003f42 <HAL_RCC_OscConfig+0x196>
    {
      /* When HSI is used as system clock it will not disabled */
      if((__HAL_RCC_GET_FLAG(RCC_FLAG_HSIRDY) != RESET) && (RCC_OscInitStruct->HSIState != RCC_HSI_ON))
 8003f14:	4b71      	ldr	r3, [pc, #452]	; (80040dc <HAL_RCC_OscConfig+0x330>)
 8003f16:	681b      	ldr	r3, [r3, #0]
 8003f18:	2202      	movs	r2, #2
 8003f1a:	4013      	ands	r3, r2
 8003f1c:	d005      	beq.n	8003f2a <HAL_RCC_OscConfig+0x17e>
 8003f1e:	687b      	ldr	r3, [r7, #4]
 8003f20:	68db      	ldr	r3, [r3, #12]
 8003f22:	2b01      	cmp	r3, #1
 8003f24:	d001      	beq.n	8003f2a <HAL_RCC_OscConfig+0x17e>
      {
        return HAL_ERROR;
 8003f26:	2301      	movs	r3, #1
 8003f28:	e24d      	b.n	80043c6 <HAL_RCC_OscConfig+0x61a>
      }
      /* Otherwise, just the calibration is allowed */
      else
      {
        /* Adjusts the Internal High Speed oscillator (HSI) calibration value.*/
        __HAL_RCC_HSI_CALIBRATIONVALUE_ADJUST(RCC_OscInitStruct->HSICalibrationValue);
 8003f2a:	4b6c      	ldr	r3, [pc, #432]	; (80040dc <HAL_RCC_OscConfig+0x330>)
 8003f2c:	681b      	ldr	r3, [r3, #0]
 8003f2e:	22f8      	movs	r2, #248	; 0xf8
 8003f30:	4393      	bics	r3, r2
 8003f32:	0019      	movs	r1, r3
 8003f34:	687b      	ldr	r3, [r7, #4]
 8003f36:	691b      	ldr	r3, [r3, #16]
 8003f38:	00da      	lsls	r2, r3, #3
 8003f3a:	4b68      	ldr	r3, [pc, #416]	; (80040dc <HAL_RCC_OscConfig+0x330>)
 8003f3c:	430a      	orrs	r2, r1
 8003f3e:	601a      	str	r2, [r3, #0]
      if((__HAL_RCC_GET_FLAG(RCC_FLAG_HSIRDY) != RESET) && (RCC_OscInitStruct->HSIState != RCC_HSI_ON))
 8003f40:	e041      	b.n	8003fc6 <HAL_RCC_OscConfig+0x21a>
      }
    }
    else
    {
      /* Check the HSI State */
      if(RCC_OscInitStruct->HSIState != RCC_HSI_OFF)
 8003f42:	687b      	ldr	r3, [r7, #4]
 8003f44:	68db      	ldr	r3, [r3, #12]
 8003f46:	2b00      	cmp	r3, #0
 8003f48:	d024      	beq.n	8003f94 <HAL_RCC_OscConfig+0x1e8>
      {
       /* Enable the Internal High Speed oscillator (HSI). */
        __HAL_RCC_HSI_ENABLE();
 8003f4a:	4b64      	ldr	r3, [pc, #400]	; (80040dc <HAL_RCC_OscConfig+0x330>)
 8003f4c:	681a      	ldr	r2, [r3, #0]
 8003f4e:	4b63      	ldr	r3, [pc, #396]	; (80040dc <HAL_RCC_OscConfig+0x330>)
 8003f50:	2101      	movs	r1, #1
 8003f52:	430a      	orrs	r2, r1
 8003f54:	601a      	str	r2, [r3, #0]
        
        /* Get Start Tick */
        tickstart = HAL_GetTick();
 8003f56:	f7ff fc0d 	bl	8003774 <HAL_GetTick>
 8003f5a:	0003      	movs	r3, r0
 8003f5c:	61bb      	str	r3, [r7, #24]
        
        /* Wait till HSI is ready */
        while(__HAL_RCC_GET_FLAG(RCC_FLAG_HSIRDY) == RESET)
 8003f5e:	e008      	b.n	8003f72 <HAL_RCC_OscConfig+0x1c6>
        {
          if((HAL_GetTick() - tickstart ) > HSI_TIMEOUT_VALUE)
 8003f60:	f7ff fc08 	bl	8003774 <HAL_GetTick>
 8003f64:	0002      	movs	r2, r0
 8003f66:	69bb      	ldr	r3, [r7, #24]
 8003f68:	1ad3      	subs	r3, r2, r3
 8003f6a:	2b02      	cmp	r3, #2
 8003f6c:	d901      	bls.n	8003f72 <HAL_RCC_OscConfig+0x1c6>
          {
            return HAL_TIMEOUT;
 8003f6e:	2303      	movs	r3, #3
 8003f70:	e229      	b.n	80043c6 <HAL_RCC_OscConfig+0x61a>
        while(__HAL_RCC_GET_FLAG(RCC_FLAG_HSIRDY) == RESET)
 8003f72:	4b5a      	ldr	r3, [pc, #360]	; (80040dc <HAL_RCC_OscConfig+0x330>)
 8003f74:	681b      	ldr	r3, [r3, #0]
 8003f76:	2202      	movs	r2, #2
 8003f78:	4013      	ands	r3, r2
 8003f7a:	d0f1      	beq.n	8003f60 <HAL_RCC_OscConfig+0x1b4>
          }
        }
                
        /* Adjusts the Internal High Speed oscillator (HSI) calibration value.*/
        __HAL_RCC_HSI_CALIBRATIONVALUE_ADJUST(RCC_OscInitStruct->HSICalibrationValue);
 8003f7c:	4b57      	ldr	r3, [pc, #348]	; (80040dc <HAL_RCC_OscConfig+0x330>)
 8003f7e:	681b      	ldr	r3, [r3, #0]
 8003f80:	22f8      	movs	r2, #248	; 0xf8
 8003f82:	4393      	bics	r3, r2
 8003f84:	0019      	movs	r1, r3
 8003f86:	687b      	ldr	r3, [r7, #4]
 8003f88:	691b      	ldr	r3, [r3, #16]
 8003f8a:	00da      	lsls	r2, r3, #3
 8003f8c:	4b53      	ldr	r3, [pc, #332]	; (80040dc <HAL_RCC_OscConfig+0x330>)
 8003f8e:	430a      	orrs	r2, r1
 8003f90:	601a      	str	r2, [r3, #0]
 8003f92:	e018      	b.n	8003fc6 <HAL_RCC_OscConfig+0x21a>
      }
      else
      {
        /* Disable the Internal High Speed oscillator (HSI). */
        __HAL_RCC_HSI_DISABLE();
 8003f94:	4b51      	ldr	r3, [pc, #324]	; (80040dc <HAL_RCC_OscConfig+0x330>)
 8003f96:	681a      	ldr	r2, [r3, #0]
 8003f98:	4b50      	ldr	r3, [pc, #320]	; (80040dc <HAL_RCC_OscConfig+0x330>)
 8003f9a:	2101      	movs	r1, #1
 8003f9c:	438a      	bics	r2, r1
 8003f9e:	601a      	str	r2, [r3, #0]
        
        /* Get Start Tick */
        tickstart = HAL_GetTick();
 8003fa0:	f7ff fbe8 	bl	8003774 <HAL_GetTick>
 8003fa4:	0003      	movs	r3, r0
 8003fa6:	61bb      	str	r3, [r7, #24]
        
        /* Wait till HSI is disabled */
        while(__HAL_RCC_GET_FLAG(RCC_FLAG_HSIRDY) != RESET)
 8003fa8:	e008      	b.n	8003fbc <HAL_RCC_OscConfig+0x210>
        {
          if((HAL_GetTick() - tickstart ) > HSI_TIMEOUT_VALUE)
 8003faa:	f7ff fbe3 	bl	8003774 <HAL_GetTick>
 8003fae:	0002      	movs	r2, r0
 8003fb0:	69bb      	ldr	r3, [r7, #24]
 8003fb2:	1ad3      	subs	r3, r2, r3
 8003fb4:	2b02      	cmp	r3, #2
 8003fb6:	d901      	bls.n	8003fbc <HAL_RCC_OscConfig+0x210>
          {
            return HAL_TIMEOUT;
 8003fb8:	2303      	movs	r3, #3
 8003fba:	e204      	b.n	80043c6 <HAL_RCC_OscConfig+0x61a>
        while(__HAL_RCC_GET_FLAG(RCC_FLAG_HSIRDY) != RESET)
 8003fbc:	4b47      	ldr	r3, [pc, #284]	; (80040dc <HAL_RCC_OscConfig+0x330>)
 8003fbe:	681b      	ldr	r3, [r3, #0]
 8003fc0:	2202      	movs	r2, #2
 8003fc2:	4013      	ands	r3, r2
 8003fc4:	d1f1      	bne.n	8003faa <HAL_RCC_OscConfig+0x1fe>
        }
      }
    }
  }
  /*------------------------------ LSI Configuration -------------------------*/ 
  if(((RCC_OscInitStruct->OscillatorType) & RCC_OSCILLATORTYPE_LSI) == RCC_OSCILLATORTYPE_LSI)
 8003fc6:	687b      	ldr	r3, [r7, #4]
 8003fc8:	681b      	ldr	r3, [r3, #0]
 8003fca:	2208      	movs	r2, #8
 8003fcc:	4013      	ands	r3, r2
 8003fce:	d036      	beq.n	800403e <HAL_RCC_OscConfig+0x292>
  {
    /* Check the parameters */
    assert_param(IS_RCC_LSI(RCC_OscInitStruct->LSIState));
    
    /* Check the LSI State */
    if(RCC_OscInitStruct->LSIState != RCC_LSI_OFF)
 8003fd0:	687b      	ldr	r3, [r7, #4]
 8003fd2:	69db      	ldr	r3, [r3, #28]
 8003fd4:	2b00      	cmp	r3, #0
 8003fd6:	d019      	beq.n	800400c <HAL_RCC_OscConfig+0x260>
    {
      /* Enable the Internal Low Speed oscillator (LSI). */
      __HAL_RCC_LSI_ENABLE();
 8003fd8:	4b40      	ldr	r3, [pc, #256]	; (80040dc <HAL_RCC_OscConfig+0x330>)
 8003fda:	6a5a      	ldr	r2, [r3, #36]	; 0x24
 8003fdc:	4b3f      	ldr	r3, [pc, #252]	; (80040dc <HAL_RCC_OscConfig+0x330>)
 8003fde:	2101      	movs	r1, #1
 8003fe0:	430a      	orrs	r2, r1
 8003fe2:	625a      	str	r2, [r3, #36]	; 0x24
      
      /* Get Start Tick */
      tickstart = HAL_GetTick();
 8003fe4:	f7ff fbc6 	bl	8003774 <HAL_GetTick>
 8003fe8:	0003      	movs	r3, r0
 8003fea:	61bb      	str	r3, [r7, #24]
      
      /* Wait till LSI is ready */  
      while(__HAL_RCC_GET_FLAG(RCC_FLAG_LSIRDY) == RESET)
 8003fec:	e008      	b.n	8004000 <HAL_RCC_OscConfig+0x254>
      {
        if((HAL_GetTick() - tickstart ) > LSI_TIMEOUT_VALUE)
 8003fee:	f7ff fbc1 	bl	8003774 <HAL_GetTick>
 8003ff2:	0002      	movs	r2, r0
 8003ff4:	69bb      	ldr	r3, [r7, #24]
 8003ff6:	1ad3      	subs	r3, r2, r3
 8003ff8:	2b02      	cmp	r3, #2
 8003ffa:	d901      	bls.n	8004000 <HAL_RCC_OscConfig+0x254>
        {
          return HAL_TIMEOUT;
 8003ffc:	2303      	movs	r3, #3
 8003ffe:	e1e2      	b.n	80043c6 <HAL_RCC_OscConfig+0x61a>
      while(__HAL_RCC_GET_FLAG(RCC_FLAG_LSIRDY) == RESET)
 8004000:	4b36      	ldr	r3, [pc, #216]	; (80040dc <HAL_RCC_OscConfig+0x330>)
 8004002:	6a5b      	ldr	r3, [r3, #36]	; 0x24
 8004004:	2202      	movs	r2, #2
 8004006:	4013      	ands	r3, r2
 8004008:	d0f1      	beq.n	8003fee <HAL_RCC_OscConfig+0x242>
 800400a:	e018      	b.n	800403e <HAL_RCC_OscConfig+0x292>
      }
    }
    else
    {
      /* Disable the Internal Low Speed oscillator (LSI). */
      __HAL_RCC_LSI_DISABLE();
 800400c:	4b33      	ldr	r3, [pc, #204]	; (80040dc <HAL_RCC_OscConfig+0x330>)
 800400e:	6a5a      	ldr	r2, [r3, #36]	; 0x24
 8004010:	4b32      	ldr	r3, [pc, #200]	; (80040dc <HAL_RCC_OscConfig+0x330>)
 8004012:	2101      	movs	r1, #1
 8004014:	438a      	bics	r2, r1
 8004016:	625a      	str	r2, [r3, #36]	; 0x24
      
      /* Get Start Tick */
      tickstart = HAL_GetTick();
 8004018:	f7ff fbac 	bl	8003774 <HAL_GetTick>
 800401c:	0003      	movs	r3, r0
 800401e:	61bb      	str	r3, [r7, #24]
      
      /* Wait till LSI is disabled */  
      while(__HAL_RCC_GET_FLAG(RCC_FLAG_LSIRDY) != RESET)
 8004020:	e008      	b.n	8004034 <HAL_RCC_OscConfig+0x288>
      {
        if((HAL_GetTick() - tickstart ) > LSI_TIMEOUT_VALUE)
 8004022:	f7ff fba7 	bl	8003774 <HAL_GetTick>
 8004026:	0002      	movs	r2, r0
 8004028:	69bb      	ldr	r3, [r7, #24]
 800402a:	1ad3      	subs	r3, r2, r3
 800402c:	2b02      	cmp	r3, #2
 800402e:	d901      	bls.n	8004034 <HAL_RCC_OscConfig+0x288>
        {
          return HAL_TIMEOUT;
 8004030:	2303      	movs	r3, #3
 8004032:	e1c8      	b.n	80043c6 <HAL_RCC_OscConfig+0x61a>
      while(__HAL_RCC_GET_FLAG(RCC_FLAG_LSIRDY) != RESET)
 8004034:	4b29      	ldr	r3, [pc, #164]	; (80040dc <HAL_RCC_OscConfig+0x330>)
 8004036:	6a5b      	ldr	r3, [r3, #36]	; 0x24
 8004038:	2202      	movs	r2, #2
 800403a:	4013      	ands	r3, r2
 800403c:	d1f1      	bne.n	8004022 <HAL_RCC_OscConfig+0x276>
        }
      }
    }
  }
  /*------------------------------ LSE Configuration -------------------------*/ 
  if(((RCC_OscInitStruct->OscillatorType) & RCC_OSCILLATORTYPE_LSE) == RCC_OSCILLATORTYPE_LSE)
 800403e:	687b      	ldr	r3, [r7, #4]
 8004040:	681b      	ldr	r3, [r3, #0]
 8004042:	2204      	movs	r2, #4
 8004044:	4013      	ands	r3, r2
 8004046:	d100      	bne.n	800404a <HAL_RCC_OscConfig+0x29e>
 8004048:	e0b6      	b.n	80041b8 <HAL_RCC_OscConfig+0x40c>
  {
    FlagStatus       pwrclkchanged = RESET;
 800404a:	231f      	movs	r3, #31
 800404c:	18fb      	adds	r3, r7, r3
 800404e:	2200      	movs	r2, #0
 8004050:	701a      	strb	r2, [r3, #0]
    /* Check the parameters */
    assert_param(IS_RCC_LSE(RCC_OscInitStruct->LSEState));

    /* Update LSE configuration in Backup Domain control register    */
    /* Requires to enable write access to Backup Domain of necessary */
    if(__HAL_RCC_PWR_IS_CLK_DISABLED())
 8004052:	4b22      	ldr	r3, [pc, #136]	; (80040dc <HAL_RCC_OscConfig+0x330>)
 8004054:	69da      	ldr	r2, [r3, #28]
 8004056:	2380      	movs	r3, #128	; 0x80
 8004058:	055b      	lsls	r3, r3, #21
 800405a:	4013      	ands	r3, r2
 800405c:	d111      	bne.n	8004082 <HAL_RCC_OscConfig+0x2d6>
    {
      __HAL_RCC_PWR_CLK_ENABLE();
 800405e:	4b1f      	ldr	r3, [pc, #124]	; (80040dc <HAL_RCC_OscConfig+0x330>)
 8004060:	69da      	ldr	r2, [r3, #28]
 8004062:	4b1e      	ldr	r3, [pc, #120]	; (80040dc <HAL_RCC_OscConfig+0x330>)
 8004064:	2180      	movs	r1, #128	; 0x80
 8004066:	0549      	lsls	r1, r1, #21
 8004068:	430a      	orrs	r2, r1
 800406a:	61da      	str	r2, [r3, #28]
 800406c:	4b1b      	ldr	r3, [pc, #108]	; (80040dc <HAL_RCC_OscConfig+0x330>)
 800406e:	69da      	ldr	r2, [r3, #28]
 8004070:	2380      	movs	r3, #128	; 0x80
 8004072:	055b      	lsls	r3, r3, #21
 8004074:	4013      	ands	r3, r2
 8004076:	60fb      	str	r3, [r7, #12]
 8004078:	68fb      	ldr	r3, [r7, #12]
      pwrclkchanged = SET;
 800407a:	231f      	movs	r3, #31
 800407c:	18fb      	adds	r3, r7, r3
 800407e:	2201      	movs	r2, #1
 8004080:	701a      	strb	r2, [r3, #0]
    }
    
    if(HAL_IS_BIT_CLR(PWR->CR, PWR_CR_DBP))
 8004082:	4b19      	ldr	r3, [pc, #100]	; (80040e8 <HAL_RCC_OscConfig+0x33c>)
 8004084:	681a      	ldr	r2, [r3, #0]
 8004086:	2380      	movs	r3, #128	; 0x80
 8004088:	005b      	lsls	r3, r3, #1
 800408a:	4013      	ands	r3, r2
 800408c:	d11a      	bne.n	80040c4 <HAL_RCC_OscConfig+0x318>
    {
      /* Enable write access to Backup domain */
      SET_BIT(PWR->CR, PWR_CR_DBP);
 800408e:	4b16      	ldr	r3, [pc, #88]	; (80040e8 <HAL_RCC_OscConfig+0x33c>)
 8004090:	681a      	ldr	r2, [r3, #0]
 8004092:	4b15      	ldr	r3, [pc, #84]	; (80040e8 <HAL_RCC_OscConfig+0x33c>)
 8004094:	2180      	movs	r1, #128	; 0x80
 8004096:	0049      	lsls	r1, r1, #1
 8004098:	430a      	orrs	r2, r1
 800409a:	601a      	str	r2, [r3, #0]
      
      /* Wait for Backup domain Write protection disable */
      tickstart = HAL_GetTick();
 800409c:	f7ff fb6a 	bl	8003774 <HAL_GetTick>
 80040a0:	0003      	movs	r3, r0
 80040a2:	61bb      	str	r3, [r7, #24]

      while(HAL_IS_BIT_CLR(PWR->CR, PWR_CR_DBP))
 80040a4:	e008      	b.n	80040b8 <HAL_RCC_OscConfig+0x30c>
      {
        if((HAL_GetTick() - tickstart) > RCC_DBP_TIMEOUT_VALUE)
 80040a6:	f7ff fb65 	bl	8003774 <HAL_GetTick>
 80040aa:	0002      	movs	r2, r0
 80040ac:	69bb      	ldr	r3, [r7, #24]
 80040ae:	1ad3      	subs	r3, r2, r3
 80040b0:	2b64      	cmp	r3, #100	; 0x64
 80040b2:	d901      	bls.n	80040b8 <HAL_RCC_OscConfig+0x30c>
        {
          return HAL_TIMEOUT;
 80040b4:	2303      	movs	r3, #3
 80040b6:	e186      	b.n	80043c6 <HAL_RCC_OscConfig+0x61a>
      while(HAL_IS_BIT_CLR(PWR->CR, PWR_CR_DBP))
 80040b8:	4b0b      	ldr	r3, [pc, #44]	; (80040e8 <HAL_RCC_OscConfig+0x33c>)
 80040ba:	681a      	ldr	r2, [r3, #0]
 80040bc:	2380      	movs	r3, #128	; 0x80
 80040be:	005b      	lsls	r3, r3, #1
 80040c0:	4013      	ands	r3, r2
 80040c2:	d0f0      	beq.n	80040a6 <HAL_RCC_OscConfig+0x2fa>
        }
      }
    }

    /* Set the new LSE configuration -----------------------------------------*/
    __HAL_RCC_LSE_CONFIG(RCC_OscInitStruct->LSEState);
 80040c4:	687b      	ldr	r3, [r7, #4]
 80040c6:	689b      	ldr	r3, [r3, #8]
 80040c8:	2b01      	cmp	r3, #1
 80040ca:	d10f      	bne.n	80040ec <HAL_RCC_OscConfig+0x340>
 80040cc:	4b03      	ldr	r3, [pc, #12]	; (80040dc <HAL_RCC_OscConfig+0x330>)
 80040ce:	6a1a      	ldr	r2, [r3, #32]
 80040d0:	4b02      	ldr	r3, [pc, #8]	; (80040dc <HAL_RCC_OscConfig+0x330>)
 80040d2:	2101      	movs	r1, #1
 80040d4:	430a      	orrs	r2, r1
 80040d6:	621a      	str	r2, [r3, #32]
 80040d8:	e036      	b.n	8004148 <HAL_RCC_OscConfig+0x39c>
 80040da:	46c0      	nop			; (mov r8, r8)
 80040dc:	40021000 	.word	0x40021000
 80040e0:	fffeffff 	.word	0xfffeffff
 80040e4:	fffbffff 	.word	0xfffbffff
 80040e8:	40007000 	.word	0x40007000
 80040ec:	687b      	ldr	r3, [r7, #4]
 80040ee:	689b      	ldr	r3, [r3, #8]
 80040f0:	2b00      	cmp	r3, #0
 80040f2:	d10c      	bne.n	800410e <HAL_RCC_OscConfig+0x362>
 80040f4:	4bb6      	ldr	r3, [pc, #728]	; (80043d0 <HAL_RCC_OscConfig+0x624>)
 80040f6:	6a1a      	ldr	r2, [r3, #32]
 80040f8:	4bb5      	ldr	r3, [pc, #724]	; (80043d0 <HAL_RCC_OscConfig+0x624>)
 80040fa:	2101      	movs	r1, #1
 80040fc:	438a      	bics	r2, r1
 80040fe:	621a      	str	r2, [r3, #32]
 8004100:	4bb3      	ldr	r3, [pc, #716]	; (80043d0 <HAL_RCC_OscConfig+0x624>)
 8004102:	6a1a      	ldr	r2, [r3, #32]
 8004104:	4bb2      	ldr	r3, [pc, #712]	; (80043d0 <HAL_RCC_OscConfig+0x624>)
 8004106:	2104      	movs	r1, #4
 8004108:	438a      	bics	r2, r1
 800410a:	621a      	str	r2, [r3, #32]
 800410c:	e01c      	b.n	8004148 <HAL_RCC_OscConfig+0x39c>
 800410e:	687b      	ldr	r3, [r7, #4]
 8004110:	689b      	ldr	r3, [r3, #8]
 8004112:	2b05      	cmp	r3, #5
 8004114:	d10c      	bne.n	8004130 <HAL_RCC_OscConfig+0x384>
 8004116:	4bae      	ldr	r3, [pc, #696]	; (80043d0 <HAL_RCC_OscConfig+0x624>)
 8004118:	6a1a      	ldr	r2, [r3, #32]
 800411a:	4bad      	ldr	r3, [pc, #692]	; (80043d0 <HAL_RCC_OscConfig+0x624>)
 800411c:	2104      	movs	r1, #4
 800411e:	430a      	orrs	r2, r1
 8004120:	621a      	str	r2, [r3, #32]
 8004122:	4bab      	ldr	r3, [pc, #684]	; (80043d0 <HAL_RCC_OscConfig+0x624>)
 8004124:	6a1a      	ldr	r2, [r3, #32]
 8004126:	4baa      	ldr	r3, [pc, #680]	; (80043d0 <HAL_RCC_OscConfig+0x624>)
 8004128:	2101      	movs	r1, #1
 800412a:	430a      	orrs	r2, r1
 800412c:	621a      	str	r2, [r3, #32]
 800412e:	e00b      	b.n	8004148 <HAL_RCC_OscConfig+0x39c>
 8004130:	4ba7      	ldr	r3, [pc, #668]	; (80043d0 <HAL_RCC_OscConfig+0x624>)
 8004132:	6a1a      	ldr	r2, [r3, #32]
 8004134:	4ba6      	ldr	r3, [pc, #664]	; (80043d0 <HAL_RCC_OscConfig+0x624>)
 8004136:	2101      	movs	r1, #1
 8004138:	438a      	bics	r2, r1
 800413a:	621a      	str	r2, [r3, #32]
 800413c:	4ba4      	ldr	r3, [pc, #656]	; (80043d0 <HAL_RCC_OscConfig+0x624>)
 800413e:	6a1a      	ldr	r2, [r3, #32]
 8004140:	4ba3      	ldr	r3, [pc, #652]	; (80043d0 <HAL_RCC_OscConfig+0x624>)
 8004142:	2104      	movs	r1, #4
 8004144:	438a      	bics	r2, r1
 8004146:	621a      	str	r2, [r3, #32]
    /* Check the LSE State */
    if(RCC_OscInitStruct->LSEState != RCC_LSE_OFF)
 8004148:	687b      	ldr	r3, [r7, #4]
 800414a:	689b      	ldr	r3, [r3, #8]
 800414c:	2b00      	cmp	r3, #0
 800414e:	d014      	beq.n	800417a <HAL_RCC_OscConfig+0x3ce>
    {
      /* Get Start Tick */
      tickstart = HAL_GetTick();
 8004150:	f7ff fb10 	bl	8003774 <HAL_GetTick>
 8004154:	0003      	movs	r3, r0
 8004156:	61bb      	str	r3, [r7, #24]
      
      /* Wait till LSE is ready */  
      while(__HAL_RCC_GET_FLAG(RCC_FLAG_LSERDY) == RESET)
 8004158:	e009      	b.n	800416e <HAL_RCC_OscConfig+0x3c2>
      {
        if((HAL_GetTick() - tickstart ) > RCC_LSE_TIMEOUT_VALUE)
 800415a:	f7ff fb0b 	bl	8003774 <HAL_GetTick>
 800415e:	0002      	movs	r2, r0
 8004160:	69bb      	ldr	r3, [r7, #24]
 8004162:	1ad3      	subs	r3, r2, r3
 8004164:	4a9b      	ldr	r2, [pc, #620]	; (80043d4 <HAL_RCC_OscConfig+0x628>)
 8004166:	4293      	cmp	r3, r2
 8004168:	d901      	bls.n	800416e <HAL_RCC_OscConfig+0x3c2>
        {
          return HAL_TIMEOUT;
 800416a:	2303      	movs	r3, #3
 800416c:	e12b      	b.n	80043c6 <HAL_RCC_OscConfig+0x61a>
      while(__HAL_RCC_GET_FLAG(RCC_FLAG_LSERDY) == RESET)
 800416e:	4b98      	ldr	r3, [pc, #608]	; (80043d0 <HAL_RCC_OscConfig+0x624>)
 8004170:	6a1b      	ldr	r3, [r3, #32]
 8004172:	2202      	movs	r2, #2
 8004174:	4013      	ands	r3, r2
 8004176:	d0f0      	beq.n	800415a <HAL_RCC_OscConfig+0x3ae>
 8004178:	e013      	b.n	80041a2 <HAL_RCC_OscConfig+0x3f6>
      }
    }
    else
    {
      /* Get Start Tick */
      tickstart = HAL_GetTick();
 800417a:	f7ff fafb 	bl	8003774 <HAL_GetTick>
 800417e:	0003      	movs	r3, r0
 8004180:	61bb      	str	r3, [r7, #24]
      
      /* Wait till LSE is disabled */  
      while(__HAL_RCC_GET_FLAG(RCC_FLAG_LSERDY) != RESET)
 8004182:	e009      	b.n	8004198 <HAL_RCC_OscConfig+0x3ec>
      {
        if((HAL_GetTick() - tickstart ) > RCC_LSE_TIMEOUT_VALUE)
 8004184:	f7ff faf6 	bl	8003774 <HAL_GetTick>
 8004188:	0002      	movs	r2, r0
 800418a:	69bb      	ldr	r3, [r7, #24]
 800418c:	1ad3      	subs	r3, r2, r3
 800418e:	4a91      	ldr	r2, [pc, #580]	; (80043d4 <HAL_RCC_OscConfig+0x628>)
 8004190:	4293      	cmp	r3, r2
 8004192:	d901      	bls.n	8004198 <HAL_RCC_OscConfig+0x3ec>
        {
          return HAL_TIMEOUT;
 8004194:	2303      	movs	r3, #3
 8004196:	e116      	b.n	80043c6 <HAL_RCC_OscConfig+0x61a>
      while(__HAL_RCC_GET_FLAG(RCC_FLAG_LSERDY) != RESET)
 8004198:	4b8d      	ldr	r3, [pc, #564]	; (80043d0 <HAL_RCC_OscConfig+0x624>)
 800419a:	6a1b      	ldr	r3, [r3, #32]
 800419c:	2202      	movs	r2, #2
 800419e:	4013      	ands	r3, r2
 80041a0:	d1f0      	bne.n	8004184 <HAL_RCC_OscConfig+0x3d8>
        }
      }
    }

    /* Require to disable power clock if necessary */
    if(pwrclkchanged == SET)
 80041a2:	231f      	movs	r3, #31
 80041a4:	18fb      	adds	r3, r7, r3
 80041a6:	781b      	ldrb	r3, [r3, #0]
 80041a8:	2b01      	cmp	r3, #1
 80041aa:	d105      	bne.n	80041b8 <HAL_RCC_OscConfig+0x40c>
    {
      __HAL_RCC_PWR_CLK_DISABLE();
 80041ac:	4b88      	ldr	r3, [pc, #544]	; (80043d0 <HAL_RCC_OscConfig+0x624>)
 80041ae:	69da      	ldr	r2, [r3, #28]
 80041b0:	4b87      	ldr	r3, [pc, #540]	; (80043d0 <HAL_RCC_OscConfig+0x624>)
 80041b2:	4989      	ldr	r1, [pc, #548]	; (80043d8 <HAL_RCC_OscConfig+0x62c>)
 80041b4:	400a      	ands	r2, r1
 80041b6:	61da      	str	r2, [r3, #28]
    }
  }

  /*----------------------------- HSI14 Configuration --------------------------*/
  if(((RCC_OscInitStruct->OscillatorType) & RCC_OSCILLATORTYPE_HSI14) == RCC_OSCILLATORTYPE_HSI14)
 80041b8:	687b      	ldr	r3, [r7, #4]
 80041ba:	681b      	ldr	r3, [r3, #0]
 80041bc:	2210      	movs	r2, #16
 80041be:	4013      	ands	r3, r2
 80041c0:	d063      	beq.n	800428a <HAL_RCC_OscConfig+0x4de>
    /* Check the parameters */
    assert_param(IS_RCC_HSI14(RCC_OscInitStruct->HSI14State));
    assert_param(IS_RCC_CALIBRATION_VALUE(RCC_OscInitStruct->HSI14CalibrationValue));

    /* Check the HSI14 State */
    if(RCC_OscInitStruct->HSI14State == RCC_HSI14_ON)
 80041c2:	687b      	ldr	r3, [r7, #4]
 80041c4:	695b      	ldr	r3, [r3, #20]
 80041c6:	2b01      	cmp	r3, #1
 80041c8:	d12a      	bne.n	8004220 <HAL_RCC_OscConfig+0x474>
    {
      /* Disable ADC control of the Internal High Speed oscillator HSI14 */
      __HAL_RCC_HSI14ADC_DISABLE();
 80041ca:	4b81      	ldr	r3, [pc, #516]	; (80043d0 <HAL_RCC_OscConfig+0x624>)
 80041cc:	6b5a      	ldr	r2, [r3, #52]	; 0x34
 80041ce:	4b80      	ldr	r3, [pc, #512]	; (80043d0 <HAL_RCC_OscConfig+0x624>)
 80041d0:	2104      	movs	r1, #4
 80041d2:	430a      	orrs	r2, r1
 80041d4:	635a      	str	r2, [r3, #52]	; 0x34

      /* Enable the Internal High Speed oscillator (HSI). */
      __HAL_RCC_HSI14_ENABLE();
 80041d6:	4b7e      	ldr	r3, [pc, #504]	; (80043d0 <HAL_RCC_OscConfig+0x624>)
 80041d8:	6b5a      	ldr	r2, [r3, #52]	; 0x34
 80041da:	4b7d      	ldr	r3, [pc, #500]	; (80043d0 <HAL_RCC_OscConfig+0x624>)
 80041dc:	2101      	movs	r1, #1
 80041de:	430a      	orrs	r2, r1
 80041e0:	635a      	str	r2, [r3, #52]	; 0x34

      /* Get Start Tick */
      tickstart = HAL_GetTick();
 80041e2:	f7ff fac7 	bl	8003774 <HAL_GetTick>
 80041e6:	0003      	movs	r3, r0
 80041e8:	61bb      	str	r3, [r7, #24]
      
      /* Wait till HSI is ready */  
      while(__HAL_RCC_GET_FLAG(RCC_FLAG_HSI14RDY) == RESET)
 80041ea:	e008      	b.n	80041fe <HAL_RCC_OscConfig+0x452>
      {
        if((HAL_GetTick() - tickstart) > HSI14_TIMEOUT_VALUE)
 80041ec:	f7ff fac2 	bl	8003774 <HAL_GetTick>
 80041f0:	0002      	movs	r2, r0
 80041f2:	69bb      	ldr	r3, [r7, #24]
 80041f4:	1ad3      	subs	r3, r2, r3
 80041f6:	2b02      	cmp	r3, #2
 80041f8:	d901      	bls.n	80041fe <HAL_RCC_OscConfig+0x452>
        {
          return HAL_TIMEOUT;
 80041fa:	2303      	movs	r3, #3
 80041fc:	e0e3      	b.n	80043c6 <HAL_RCC_OscConfig+0x61a>
      while(__HAL_RCC_GET_FLAG(RCC_FLAG_HSI14RDY) == RESET)
 80041fe:	4b74      	ldr	r3, [pc, #464]	; (80043d0 <HAL_RCC_OscConfig+0x624>)
 8004200:	6b5b      	ldr	r3, [r3, #52]	; 0x34
 8004202:	2202      	movs	r2, #2
 8004204:	4013      	ands	r3, r2
 8004206:	d0f1      	beq.n	80041ec <HAL_RCC_OscConfig+0x440>
        }      
      } 

      /* Adjusts the Internal High Speed oscillator 14Mhz (HSI14) calibration value. */
      __HAL_RCC_HSI14_CALIBRATIONVALUE_ADJUST(RCC_OscInitStruct->HSI14CalibrationValue);
 8004208:	4b71      	ldr	r3, [pc, #452]	; (80043d0 <HAL_RCC_OscConfig+0x624>)
 800420a:	6b5b      	ldr	r3, [r3, #52]	; 0x34
 800420c:	22f8      	movs	r2, #248	; 0xf8
 800420e:	4393      	bics	r3, r2
 8004210:	0019      	movs	r1, r3
 8004212:	687b      	ldr	r3, [r7, #4]
 8004214:	699b      	ldr	r3, [r3, #24]
 8004216:	00da      	lsls	r2, r3, #3
 8004218:	4b6d      	ldr	r3, [pc, #436]	; (80043d0 <HAL_RCC_OscConfig+0x624>)
 800421a:	430a      	orrs	r2, r1
 800421c:	635a      	str	r2, [r3, #52]	; 0x34
 800421e:	e034      	b.n	800428a <HAL_RCC_OscConfig+0x4de>
    }
    else if(RCC_OscInitStruct->HSI14State == RCC_HSI14_ADC_CONTROL)
 8004220:	687b      	ldr	r3, [r7, #4]
 8004222:	695b      	ldr	r3, [r3, #20]
 8004224:	3305      	adds	r3, #5
 8004226:	d111      	bne.n	800424c <HAL_RCC_OscConfig+0x4a0>
    {
      /* Enable ADC control of the Internal High Speed oscillator HSI14 */
      __HAL_RCC_HSI14ADC_ENABLE();
 8004228:	4b69      	ldr	r3, [pc, #420]	; (80043d0 <HAL_RCC_OscConfig+0x624>)
 800422a:	6b5a      	ldr	r2, [r3, #52]	; 0x34
 800422c:	4b68      	ldr	r3, [pc, #416]	; (80043d0 <HAL_RCC_OscConfig+0x624>)
 800422e:	2104      	movs	r1, #4
 8004230:	438a      	bics	r2, r1
 8004232:	635a      	str	r2, [r3, #52]	; 0x34

      /* Adjusts the Internal High Speed oscillator 14Mhz (HSI14) calibration value. */
      __HAL_RCC_HSI14_CALIBRATIONVALUE_ADJUST(RCC_OscInitStruct->HSI14CalibrationValue);
 8004234:	4b66      	ldr	r3, [pc, #408]	; (80043d0 <HAL_RCC_OscConfig+0x624>)
 8004236:	6b5b      	ldr	r3, [r3, #52]	; 0x34
 8004238:	22f8      	movs	r2, #248	; 0xf8
 800423a:	4393      	bics	r3, r2
 800423c:	0019      	movs	r1, r3
 800423e:	687b      	ldr	r3, [r7, #4]
 8004240:	699b      	ldr	r3, [r3, #24]
 8004242:	00da      	lsls	r2, r3, #3
 8004244:	4b62      	ldr	r3, [pc, #392]	; (80043d0 <HAL_RCC_OscConfig+0x624>)
 8004246:	430a      	orrs	r2, r1
 8004248:	635a      	str	r2, [r3, #52]	; 0x34
 800424a:	e01e      	b.n	800428a <HAL_RCC_OscConfig+0x4de>
    }
    else
    {
      /* Disable ADC control of the Internal High Speed oscillator HSI14 */
      __HAL_RCC_HSI14ADC_DISABLE();
 800424c:	4b60      	ldr	r3, [pc, #384]	; (80043d0 <HAL_RCC_OscConfig+0x624>)
 800424e:	6b5a      	ldr	r2, [r3, #52]	; 0x34
 8004250:	4b5f      	ldr	r3, [pc, #380]	; (80043d0 <HAL_RCC_OscConfig+0x624>)
 8004252:	2104      	movs	r1, #4
 8004254:	430a      	orrs	r2, r1
 8004256:	635a      	str	r2, [r3, #52]	; 0x34

      /* Disable the Internal High Speed oscillator (HSI). */
      __HAL_RCC_HSI14_DISABLE();
 8004258:	4b5d      	ldr	r3, [pc, #372]	; (80043d0 <HAL_RCC_OscConfig+0x624>)
 800425a:	6b5a      	ldr	r2, [r3, #52]	; 0x34
 800425c:	4b5c      	ldr	r3, [pc, #368]	; (80043d0 <HAL_RCC_OscConfig+0x624>)
 800425e:	2101      	movs	r1, #1
 8004260:	438a      	bics	r2, r1
 8004262:	635a      	str	r2, [r3, #52]	; 0x34

      /* Get Start Tick */
      tickstart = HAL_GetTick();
 8004264:	f7ff fa86 	bl	8003774 <HAL_GetTick>
 8004268:	0003      	movs	r3, r0
 800426a:	61bb      	str	r3, [r7, #24]
      
      /* Wait till HSI is ready */  
      while(__HAL_RCC_GET_FLAG(RCC_FLAG_HSI14RDY) != RESET)
 800426c:	e008      	b.n	8004280 <HAL_RCC_OscConfig+0x4d4>
      {
        if((HAL_GetTick() - tickstart) > HSI14_TIMEOUT_VALUE)
 800426e:	f7ff fa81 	bl	8003774 <HAL_GetTick>
 8004272:	0002      	movs	r2, r0
 8004274:	69bb      	ldr	r3, [r7, #24]
 8004276:	1ad3      	subs	r3, r2, r3
 8004278:	2b02      	cmp	r3, #2
 800427a:	d901      	bls.n	8004280 <HAL_RCC_OscConfig+0x4d4>
        {
          return HAL_TIMEOUT;
 800427c:	2303      	movs	r3, #3
 800427e:	e0a2      	b.n	80043c6 <HAL_RCC_OscConfig+0x61a>
      while(__HAL_RCC_GET_FLAG(RCC_FLAG_HSI14RDY) != RESET)
 8004280:	4b53      	ldr	r3, [pc, #332]	; (80043d0 <HAL_RCC_OscConfig+0x624>)
 8004282:	6b5b      	ldr	r3, [r3, #52]	; 0x34
 8004284:	2202      	movs	r2, #2
 8004286:	4013      	ands	r3, r2
 8004288:	d1f1      	bne.n	800426e <HAL_RCC_OscConfig+0x4c2>
#endif /* RCC_HSI48_SUPPORT */
       
  /*-------------------------------- PLL Configuration -----------------------*/
  /* Check the parameters */
  assert_param(IS_RCC_PLL(RCC_OscInitStruct->PLL.PLLState));
  if ((RCC_OscInitStruct->PLL.PLLState) != RCC_PLL_NONE)
 800428a:	687b      	ldr	r3, [r7, #4]
 800428c:	6a1b      	ldr	r3, [r3, #32]
 800428e:	2b00      	cmp	r3, #0
 8004290:	d100      	bne.n	8004294 <HAL_RCC_OscConfig+0x4e8>
 8004292:	e097      	b.n	80043c4 <HAL_RCC_OscConfig+0x618>
  {
    /* Check if the PLL is used as system clock or not */
    if(__HAL_RCC_GET_SYSCLK_SOURCE() != RCC_SYSCLKSOURCE_STATUS_PLLCLK)
 8004294:	4b4e      	ldr	r3, [pc, #312]	; (80043d0 <HAL_RCC_OscConfig+0x624>)
 8004296:	685b      	ldr	r3, [r3, #4]
 8004298:	220c      	movs	r2, #12
 800429a:	4013      	ands	r3, r2
 800429c:	2b08      	cmp	r3, #8
 800429e:	d100      	bne.n	80042a2 <HAL_RCC_OscConfig+0x4f6>
 80042a0:	e06b      	b.n	800437a <HAL_RCC_OscConfig+0x5ce>
    { 
      if((RCC_OscInitStruct->PLL.PLLState) == RCC_PLL_ON)
 80042a2:	687b      	ldr	r3, [r7, #4]
 80042a4:	6a1b      	ldr	r3, [r3, #32]
 80042a6:	2b02      	cmp	r3, #2
 80042a8:	d14c      	bne.n	8004344 <HAL_RCC_OscConfig+0x598>
        assert_param(IS_RCC_PLLSOURCE(RCC_OscInitStruct->PLL.PLLSource));
        assert_param(IS_RCC_PLL_MUL(RCC_OscInitStruct->PLL.PLLMUL));
        assert_param(IS_RCC_PREDIV(RCC_OscInitStruct->PLL.PREDIV));
  
        /* Disable the main PLL. */
        __HAL_RCC_PLL_DISABLE();
 80042aa:	4b49      	ldr	r3, [pc, #292]	; (80043d0 <HAL_RCC_OscConfig+0x624>)
 80042ac:	681a      	ldr	r2, [r3, #0]
 80042ae:	4b48      	ldr	r3, [pc, #288]	; (80043d0 <HAL_RCC_OscConfig+0x624>)
 80042b0:	494a      	ldr	r1, [pc, #296]	; (80043dc <HAL_RCC_OscConfig+0x630>)
 80042b2:	400a      	ands	r2, r1
 80042b4:	601a      	str	r2, [r3, #0]
        
        /* Get Start Tick */
        tickstart = HAL_GetTick();
 80042b6:	f7ff fa5d 	bl	8003774 <HAL_GetTick>
 80042ba:	0003      	movs	r3, r0
 80042bc:	61bb      	str	r3, [r7, #24]
        
        /* Wait till PLL is disabled */
        while(__HAL_RCC_GET_FLAG(RCC_FLAG_PLLRDY)  != RESET)
 80042be:	e008      	b.n	80042d2 <HAL_RCC_OscConfig+0x526>
        {
          if((HAL_GetTick() - tickstart ) > PLL_TIMEOUT_VALUE)
 80042c0:	f7ff fa58 	bl	8003774 <HAL_GetTick>
 80042c4:	0002      	movs	r2, r0
 80042c6:	69bb      	ldr	r3, [r7, #24]
 80042c8:	1ad3      	subs	r3, r2, r3
 80042ca:	2b02      	cmp	r3, #2
 80042cc:	d901      	bls.n	80042d2 <HAL_RCC_OscConfig+0x526>
          {
            return HAL_TIMEOUT;
 80042ce:	2303      	movs	r3, #3
 80042d0:	e079      	b.n	80043c6 <HAL_RCC_OscConfig+0x61a>
        while(__HAL_RCC_GET_FLAG(RCC_FLAG_PLLRDY)  != RESET)
 80042d2:	4b3f      	ldr	r3, [pc, #252]	; (80043d0 <HAL_RCC_OscConfig+0x624>)
 80042d4:	681a      	ldr	r2, [r3, #0]
 80042d6:	2380      	movs	r3, #128	; 0x80
 80042d8:	049b      	lsls	r3, r3, #18
 80042da:	4013      	ands	r3, r2
 80042dc:	d1f0      	bne.n	80042c0 <HAL_RCC_OscConfig+0x514>
          }
        }

        /* Configure the main PLL clock source, predivider and multiplication factor. */
        __HAL_RCC_PLL_CONFIG(RCC_OscInitStruct->PLL.PLLSource,
 80042de:	4b3c      	ldr	r3, [pc, #240]	; (80043d0 <HAL_RCC_OscConfig+0x624>)
 80042e0:	6adb      	ldr	r3, [r3, #44]	; 0x2c
 80042e2:	220f      	movs	r2, #15
 80042e4:	4393      	bics	r3, r2
 80042e6:	0019      	movs	r1, r3
 80042e8:	687b      	ldr	r3, [r7, #4]
 80042ea:	6ada      	ldr	r2, [r3, #44]	; 0x2c
 80042ec:	4b38      	ldr	r3, [pc, #224]	; (80043d0 <HAL_RCC_OscConfig+0x624>)
 80042ee:	430a      	orrs	r2, r1
 80042f0:	62da      	str	r2, [r3, #44]	; 0x2c
 80042f2:	4b37      	ldr	r3, [pc, #220]	; (80043d0 <HAL_RCC_OscConfig+0x624>)
 80042f4:	685b      	ldr	r3, [r3, #4]
 80042f6:	4a3a      	ldr	r2, [pc, #232]	; (80043e0 <HAL_RCC_OscConfig+0x634>)
 80042f8:	4013      	ands	r3, r2
 80042fa:	0019      	movs	r1, r3
 80042fc:	687b      	ldr	r3, [r7, #4]
 80042fe:	6a9a      	ldr	r2, [r3, #40]	; 0x28
 8004300:	687b      	ldr	r3, [r7, #4]
 8004302:	6a5b      	ldr	r3, [r3, #36]	; 0x24
 8004304:	431a      	orrs	r2, r3
 8004306:	4b32      	ldr	r3, [pc, #200]	; (80043d0 <HAL_RCC_OscConfig+0x624>)
 8004308:	430a      	orrs	r2, r1
 800430a:	605a      	str	r2, [r3, #4]
                             RCC_OscInitStruct->PLL.PREDIV,
                             RCC_OscInitStruct->PLL.PLLMUL);
        /* Enable the main PLL. */
        __HAL_RCC_PLL_ENABLE();
 800430c:	4b30      	ldr	r3, [pc, #192]	; (80043d0 <HAL_RCC_OscConfig+0x624>)
 800430e:	681a      	ldr	r2, [r3, #0]
 8004310:	4b2f      	ldr	r3, [pc, #188]	; (80043d0 <HAL_RCC_OscConfig+0x624>)
 8004312:	2180      	movs	r1, #128	; 0x80
 8004314:	0449      	lsls	r1, r1, #17
 8004316:	430a      	orrs	r2, r1
 8004318:	601a      	str	r2, [r3, #0]
        
        /* Get Start Tick */
        tickstart = HAL_GetTick();
 800431a:	f7ff fa2b 	bl	8003774 <HAL_GetTick>
 800431e:	0003      	movs	r3, r0
 8004320:	61bb      	str	r3, [r7, #24]
        
        /* Wait till PLL is ready */
        while(__HAL_RCC_GET_FLAG(RCC_FLAG_PLLRDY)  == RESET)
 8004322:	e008      	b.n	8004336 <HAL_RCC_OscConfig+0x58a>
        {
          if((HAL_GetTick() - tickstart ) > PLL_TIMEOUT_VALUE)
 8004324:	f7ff fa26 	bl	8003774 <HAL_GetTick>
 8004328:	0002      	movs	r2, r0
 800432a:	69bb      	ldr	r3, [r7, #24]
 800432c:	1ad3      	subs	r3, r2, r3
 800432e:	2b02      	cmp	r3, #2
 8004330:	d901      	bls.n	8004336 <HAL_RCC_OscConfig+0x58a>
          {
            return HAL_TIMEOUT;
 8004332:	2303      	movs	r3, #3
 8004334:	e047      	b.n	80043c6 <HAL_RCC_OscConfig+0x61a>
        while(__HAL_RCC_GET_FLAG(RCC_FLAG_PLLRDY)  == RESET)
 8004336:	4b26      	ldr	r3, [pc, #152]	; (80043d0 <HAL_RCC_OscConfig+0x624>)
 8004338:	681a      	ldr	r2, [r3, #0]
 800433a:	2380      	movs	r3, #128	; 0x80
 800433c:	049b      	lsls	r3, r3, #18
 800433e:	4013      	ands	r3, r2
 8004340:	d0f0      	beq.n	8004324 <HAL_RCC_OscConfig+0x578>
 8004342:	e03f      	b.n	80043c4 <HAL_RCC_OscConfig+0x618>
        }
      }
      else
      {
        /* Disable the main PLL. */
        __HAL_RCC_PLL_DISABLE();
 8004344:	4b22      	ldr	r3, [pc, #136]	; (80043d0 <HAL_RCC_OscConfig+0x624>)
 8004346:	681a      	ldr	r2, [r3, #0]
 8004348:	4b21      	ldr	r3, [pc, #132]	; (80043d0 <HAL_RCC_OscConfig+0x624>)
 800434a:	4924      	ldr	r1, [pc, #144]	; (80043dc <HAL_RCC_OscConfig+0x630>)
 800434c:	400a      	ands	r2, r1
 800434e:	601a      	str	r2, [r3, #0]
 
        /* Get Start Tick */
        tickstart = HAL_GetTick();
 8004350:	f7ff fa10 	bl	8003774 <HAL_GetTick>
 8004354:	0003      	movs	r3, r0
 8004356:	61bb      	str	r3, [r7, #24]
        
        /* Wait till PLL is disabled */  
        while(__HAL_RCC_GET_FLAG(RCC_FLAG_PLLRDY)  != RESET)
 8004358:	e008      	b.n	800436c <HAL_RCC_OscConfig+0x5c0>
        {
          if((HAL_GetTick() - tickstart ) > PLL_TIMEOUT_VALUE)
 800435a:	f7ff fa0b 	bl	8003774 <HAL_GetTick>
 800435e:	0002      	movs	r2, r0
 8004360:	69bb      	ldr	r3, [r7, #24]
 8004362:	1ad3      	subs	r3, r2, r3
 8004364:	2b02      	cmp	r3, #2
 8004366:	d901      	bls.n	800436c <HAL_RCC_OscConfig+0x5c0>
          {
            return HAL_TIMEOUT;
 8004368:	2303      	movs	r3, #3
 800436a:	e02c      	b.n	80043c6 <HAL_RCC_OscConfig+0x61a>
        while(__HAL_RCC_GET_FLAG(RCC_FLAG_PLLRDY)  != RESET)
 800436c:	4b18      	ldr	r3, [pc, #96]	; (80043d0 <HAL_RCC_OscConfig+0x624>)
 800436e:	681a      	ldr	r2, [r3, #0]
 8004370:	2380      	movs	r3, #128	; 0x80
 8004372:	049b      	lsls	r3, r3, #18
 8004374:	4013      	ands	r3, r2
 8004376:	d1f0      	bne.n	800435a <HAL_RCC_OscConfig+0x5ae>
 8004378:	e024      	b.n	80043c4 <HAL_RCC_OscConfig+0x618>
      }
    }
    else
    {
      /* Check if there is a request to disable the PLL used as System clock source */
      if((RCC_OscInitStruct->PLL.PLLState) == RCC_PLL_OFF)
 800437a:	687b      	ldr	r3, [r7, #4]
 800437c:	6a1b      	ldr	r3, [r3, #32]
 800437e:	2b01      	cmp	r3, #1
 8004380:	d101      	bne.n	8004386 <HAL_RCC_OscConfig+0x5da>
      {
        return HAL_ERROR;
 8004382:	2301      	movs	r3, #1
 8004384:	e01f      	b.n	80043c6 <HAL_RCC_OscConfig+0x61a>
      }
      else
      {
        /* Do not return HAL_ERROR if request repeats the current configuration */
        pll_config  = RCC->CFGR;
 8004386:	4b12      	ldr	r3, [pc, #72]	; (80043d0 <HAL_RCC_OscConfig+0x624>)
 8004388:	685b      	ldr	r3, [r3, #4]
 800438a:	617b      	str	r3, [r7, #20]
        pll_config2 = RCC->CFGR2;
 800438c:	4b10      	ldr	r3, [pc, #64]	; (80043d0 <HAL_RCC_OscConfig+0x624>)
 800438e:	6adb      	ldr	r3, [r3, #44]	; 0x2c
 8004390:	613b      	str	r3, [r7, #16]
        if((READ_BIT(pll_config,  RCC_CFGR_PLLSRC)  != RCC_OscInitStruct->PLL.PLLSource) ||
 8004392:	697a      	ldr	r2, [r7, #20]
 8004394:	2380      	movs	r3, #128	; 0x80
 8004396:	025b      	lsls	r3, r3, #9
 8004398:	401a      	ands	r2, r3
 800439a:	687b      	ldr	r3, [r7, #4]
 800439c:	6a5b      	ldr	r3, [r3, #36]	; 0x24
 800439e:	429a      	cmp	r2, r3
 80043a0:	d10e      	bne.n	80043c0 <HAL_RCC_OscConfig+0x614>
           (READ_BIT(pll_config2, RCC_CFGR2_PREDIV) != RCC_OscInitStruct->PLL.PREDIV)    ||
 80043a2:	693b      	ldr	r3, [r7, #16]
 80043a4:	220f      	movs	r2, #15
 80043a6:	401a      	ands	r2, r3
 80043a8:	687b      	ldr	r3, [r7, #4]
 80043aa:	6adb      	ldr	r3, [r3, #44]	; 0x2c
        if((READ_BIT(pll_config,  RCC_CFGR_PLLSRC)  != RCC_OscInitStruct->PLL.PLLSource) ||
 80043ac:	429a      	cmp	r2, r3
 80043ae:	d107      	bne.n	80043c0 <HAL_RCC_OscConfig+0x614>
           (READ_BIT(pll_config,  RCC_CFGR_PLLMUL)  != RCC_OscInitStruct->PLL.PLLMUL))
 80043b0:	697a      	ldr	r2, [r7, #20]
 80043b2:	23f0      	movs	r3, #240	; 0xf0
 80043b4:	039b      	lsls	r3, r3, #14
 80043b6:	401a      	ands	r2, r3
 80043b8:	687b      	ldr	r3, [r7, #4]
 80043ba:	6a9b      	ldr	r3, [r3, #40]	; 0x28
           (READ_BIT(pll_config2, RCC_CFGR2_PREDIV) != RCC_OscInitStruct->PLL.PREDIV)    ||
 80043bc:	429a      	cmp	r2, r3
 80043be:	d001      	beq.n	80043c4 <HAL_RCC_OscConfig+0x618>
        {
          return HAL_ERROR;
 80043c0:	2301      	movs	r3, #1
 80043c2:	e000      	b.n	80043c6 <HAL_RCC_OscConfig+0x61a>
        }
      }
    }
  }

  return HAL_OK;
 80043c4:	2300      	movs	r3, #0
}
 80043c6:	0018      	movs	r0, r3
 80043c8:	46bd      	mov	sp, r7
 80043ca:	b008      	add	sp, #32
 80043cc:	bd80      	pop	{r7, pc}
 80043ce:	46c0      	nop			; (mov r8, r8)
 80043d0:	40021000 	.word	0x40021000
 80043d4:	00001388 	.word	0x00001388
 80043d8:	efffffff 	.word	0xefffffff
 80043dc:	feffffff 	.word	0xfeffffff
 80043e0:	ffc2ffff 	.word	0xffc2ffff

080043e4 <HAL_RCC_ClockConfig>:
  *         You can use @ref HAL_RCC_GetClockConfig() function to know which clock is
  *         currently used as system clock source.
  * @retval HAL status
  */
HAL_StatusTypeDef HAL_RCC_ClockConfig(RCC_ClkInitTypeDef  *RCC_ClkInitStruct, uint32_t FLatency)
{
 80043e4:	b580      	push	{r7, lr}
 80043e6:	b084      	sub	sp, #16
 80043e8:	af00      	add	r7, sp, #0
 80043ea:	6078      	str	r0, [r7, #4]
 80043ec:	6039      	str	r1, [r7, #0]
  uint32_t tickstart;

  /* Check Null pointer */
  if(RCC_ClkInitStruct == NULL)
 80043ee:	687b      	ldr	r3, [r7, #4]
 80043f0:	2b00      	cmp	r3, #0
 80043f2:	d101      	bne.n	80043f8 <HAL_RCC_ClockConfig+0x14>
  {
    return HAL_ERROR;
 80043f4:	2301      	movs	r3, #1
 80043f6:	e0b3      	b.n	8004560 <HAL_RCC_ClockConfig+0x17c>
  /* To correctly read data from FLASH memory, the number of wait states (LATENCY) 
  must be correctly programmed according to the frequency of the CPU clock 
    (HCLK) of the device. */

  /* Increasing the number of wait states because of higher CPU frequency */
  if(FLatency > __HAL_FLASH_GET_LATENCY())
 80043f8:	4b5b      	ldr	r3, [pc, #364]	; (8004568 <HAL_RCC_ClockConfig+0x184>)
 80043fa:	681b      	ldr	r3, [r3, #0]
 80043fc:	2201      	movs	r2, #1
 80043fe:	4013      	ands	r3, r2
 8004400:	683a      	ldr	r2, [r7, #0]
 8004402:	429a      	cmp	r2, r3
 8004404:	d911      	bls.n	800442a <HAL_RCC_ClockConfig+0x46>
  {    
    /* Program the new number of wait states to the LATENCY bits in the FLASH_ACR register */
    __HAL_FLASH_SET_LATENCY(FLatency);
 8004406:	4b58      	ldr	r3, [pc, #352]	; (8004568 <HAL_RCC_ClockConfig+0x184>)
 8004408:	681b      	ldr	r3, [r3, #0]
 800440a:	2201      	movs	r2, #1
 800440c:	4393      	bics	r3, r2
 800440e:	0019      	movs	r1, r3
 8004410:	4b55      	ldr	r3, [pc, #340]	; (8004568 <HAL_RCC_ClockConfig+0x184>)
 8004412:	683a      	ldr	r2, [r7, #0]
 8004414:	430a      	orrs	r2, r1
 8004416:	601a      	str	r2, [r3, #0]
    
    /* Check that the new number of wait states is taken into account to access the Flash
    memory by reading the FLASH_ACR register */
    if(__HAL_FLASH_GET_LATENCY() != FLatency)
 8004418:	4b53      	ldr	r3, [pc, #332]	; (8004568 <HAL_RCC_ClockConfig+0x184>)
 800441a:	681b      	ldr	r3, [r3, #0]
 800441c:	2201      	movs	r2, #1
 800441e:	4013      	ands	r3, r2
 8004420:	683a      	ldr	r2, [r7, #0]
 8004422:	429a      	cmp	r2, r3
 8004424:	d001      	beq.n	800442a <HAL_RCC_ClockConfig+0x46>
    {
      return HAL_ERROR;
 8004426:	2301      	movs	r3, #1
 8004428:	e09a      	b.n	8004560 <HAL_RCC_ClockConfig+0x17c>
    }
  }

  /*-------------------------- HCLK Configuration --------------------------*/
  if(((RCC_ClkInitStruct->ClockType) & RCC_CLOCKTYPE_HCLK) == RCC_CLOCKTYPE_HCLK)
 800442a:	687b      	ldr	r3, [r7, #4]
 800442c:	681b      	ldr	r3, [r3, #0]
 800442e:	2202      	movs	r2, #2
 8004430:	4013      	ands	r3, r2
 8004432:	d015      	beq.n	8004460 <HAL_RCC_ClockConfig+0x7c>
  {
    /* Set the highest APB divider in order to ensure that we do not go through
       a non-spec phase whatever we decrease or increase HCLK. */
    if(((RCC_ClkInitStruct->ClockType) & RCC_CLOCKTYPE_PCLK1) == RCC_CLOCKTYPE_PCLK1)
 8004434:	687b      	ldr	r3, [r7, #4]
 8004436:	681b      	ldr	r3, [r3, #0]
 8004438:	2204      	movs	r2, #4
 800443a:	4013      	ands	r3, r2
 800443c:	d006      	beq.n	800444c <HAL_RCC_ClockConfig+0x68>
    {
      MODIFY_REG(RCC->CFGR, RCC_CFGR_PPRE, RCC_HCLK_DIV16);
 800443e:	4b4b      	ldr	r3, [pc, #300]	; (800456c <HAL_RCC_ClockConfig+0x188>)
 8004440:	685a      	ldr	r2, [r3, #4]
 8004442:	4b4a      	ldr	r3, [pc, #296]	; (800456c <HAL_RCC_ClockConfig+0x188>)
 8004444:	21e0      	movs	r1, #224	; 0xe0
 8004446:	00c9      	lsls	r1, r1, #3
 8004448:	430a      	orrs	r2, r1
 800444a:	605a      	str	r2, [r3, #4]
    }

    /* Set the new HCLK clock divider */
    assert_param(IS_RCC_HCLK(RCC_ClkInitStruct->AHBCLKDivider));
    MODIFY_REG(RCC->CFGR, RCC_CFGR_HPRE, RCC_ClkInitStruct->AHBCLKDivider);
 800444c:	4b47      	ldr	r3, [pc, #284]	; (800456c <HAL_RCC_ClockConfig+0x188>)
 800444e:	685b      	ldr	r3, [r3, #4]
 8004450:	22f0      	movs	r2, #240	; 0xf0
 8004452:	4393      	bics	r3, r2
 8004454:	0019      	movs	r1, r3
 8004456:	687b      	ldr	r3, [r7, #4]
 8004458:	689a      	ldr	r2, [r3, #8]
 800445a:	4b44      	ldr	r3, [pc, #272]	; (800456c <HAL_RCC_ClockConfig+0x188>)
 800445c:	430a      	orrs	r2, r1
 800445e:	605a      	str	r2, [r3, #4]
  }

  /*------------------------- SYSCLK Configuration ---------------------------*/ 
  if(((RCC_ClkInitStruct->ClockType) & RCC_CLOCKTYPE_SYSCLK) == RCC_CLOCKTYPE_SYSCLK)
 8004460:	687b      	ldr	r3, [r7, #4]
 8004462:	681b      	ldr	r3, [r3, #0]
 8004464:	2201      	movs	r2, #1
 8004466:	4013      	ands	r3, r2
 8004468:	d040      	beq.n	80044ec <HAL_RCC_ClockConfig+0x108>
  {
    assert_param(IS_RCC_SYSCLKSOURCE(RCC_ClkInitStruct->SYSCLKSource));
    
    /* HSE is selected as System Clock Source */
    if(RCC_ClkInitStruct->SYSCLKSource == RCC_SYSCLKSOURCE_HSE)
 800446a:	687b      	ldr	r3, [r7, #4]
 800446c:	685b      	ldr	r3, [r3, #4]
 800446e:	2b01      	cmp	r3, #1
 8004470:	d107      	bne.n	8004482 <HAL_RCC_ClockConfig+0x9e>
    {
      /* Check the HSE ready flag */  
      if(__HAL_RCC_GET_FLAG(RCC_FLAG_HSERDY) == RESET)
 8004472:	4b3e      	ldr	r3, [pc, #248]	; (800456c <HAL_RCC_ClockConfig+0x188>)
 8004474:	681a      	ldr	r2, [r3, #0]
 8004476:	2380      	movs	r3, #128	; 0x80
 8004478:	029b      	lsls	r3, r3, #10
 800447a:	4013      	ands	r3, r2
 800447c:	d114      	bne.n	80044a8 <HAL_RCC_ClockConfig+0xc4>
      {
        return HAL_ERROR;
 800447e:	2301      	movs	r3, #1
 8004480:	e06e      	b.n	8004560 <HAL_RCC_ClockConfig+0x17c>
      }
    }
    /* PLL is selected as System Clock Source */
    else if(RCC_ClkInitStruct->SYSCLKSource == RCC_SYSCLKSOURCE_PLLCLK)
 8004482:	687b      	ldr	r3, [r7, #4]
 8004484:	685b      	ldr	r3, [r3, #4]
 8004486:	2b02      	cmp	r3, #2
 8004488:	d107      	bne.n	800449a <HAL_RCC_ClockConfig+0xb6>
    {
      /* Check the PLL ready flag */  
      if(__HAL_RCC_GET_FLAG(RCC_FLAG_PLLRDY) == RESET)
 800448a:	4b38      	ldr	r3, [pc, #224]	; (800456c <HAL_RCC_ClockConfig+0x188>)
 800448c:	681a      	ldr	r2, [r3, #0]
 800448e:	2380      	movs	r3, #128	; 0x80
 8004490:	049b      	lsls	r3, r3, #18
 8004492:	4013      	ands	r3, r2
 8004494:	d108      	bne.n	80044a8 <HAL_RCC_ClockConfig+0xc4>
      {
        return HAL_ERROR;
 8004496:	2301      	movs	r3, #1
 8004498:	e062      	b.n	8004560 <HAL_RCC_ClockConfig+0x17c>
#endif /* RCC_CFGR_SWS_HSI48 */
    /* HSI is selected as System Clock Source */
    else
    {
      /* Check the HSI ready flag */  
      if(__HAL_RCC_GET_FLAG(RCC_FLAG_HSIRDY) == RESET)
 800449a:	4b34      	ldr	r3, [pc, #208]	; (800456c <HAL_RCC_ClockConfig+0x188>)
 800449c:	681b      	ldr	r3, [r3, #0]
 800449e:	2202      	movs	r2, #2
 80044a0:	4013      	ands	r3, r2
 80044a2:	d101      	bne.n	80044a8 <HAL_RCC_ClockConfig+0xc4>
      {
        return HAL_ERROR;
 80044a4:	2301      	movs	r3, #1
 80044a6:	e05b      	b.n	8004560 <HAL_RCC_ClockConfig+0x17c>
      }
    }
    __HAL_RCC_SYSCLK_CONFIG(RCC_ClkInitStruct->SYSCLKSource);
 80044a8:	4b30      	ldr	r3, [pc, #192]	; (800456c <HAL_RCC_ClockConfig+0x188>)
 80044aa:	685b      	ldr	r3, [r3, #4]
 80044ac:	2203      	movs	r2, #3
 80044ae:	4393      	bics	r3, r2
 80044b0:	0019      	movs	r1, r3
 80044b2:	687b      	ldr	r3, [r7, #4]
 80044b4:	685a      	ldr	r2, [r3, #4]
 80044b6:	4b2d      	ldr	r3, [pc, #180]	; (800456c <HAL_RCC_ClockConfig+0x188>)
 80044b8:	430a      	orrs	r2, r1
 80044ba:	605a      	str	r2, [r3, #4]

    /* Get Start Tick */
    tickstart = HAL_GetTick();
 80044bc:	f7ff f95a 	bl	8003774 <HAL_GetTick>
 80044c0:	0003      	movs	r3, r0
 80044c2:	60fb      	str	r3, [r7, #12]
    
    while (__HAL_RCC_GET_SYSCLK_SOURCE() != (RCC_ClkInitStruct->SYSCLKSource << RCC_CFGR_SWS_Pos))
 80044c4:	e009      	b.n	80044da <HAL_RCC_ClockConfig+0xf6>
    {
      if((HAL_GetTick() - tickstart ) > CLOCKSWITCH_TIMEOUT_VALUE)
 80044c6:	f7ff f955 	bl	8003774 <HAL_GetTick>
 80044ca:	0002      	movs	r2, r0
 80044cc:	68fb      	ldr	r3, [r7, #12]
 80044ce:	1ad3      	subs	r3, r2, r3
 80044d0:	4a27      	ldr	r2, [pc, #156]	; (8004570 <HAL_RCC_ClockConfig+0x18c>)
 80044d2:	4293      	cmp	r3, r2
 80044d4:	d901      	bls.n	80044da <HAL_RCC_ClockConfig+0xf6>
      {
        return HAL_TIMEOUT;
 80044d6:	2303      	movs	r3, #3
 80044d8:	e042      	b.n	8004560 <HAL_RCC_ClockConfig+0x17c>
    while (__HAL_RCC_GET_SYSCLK_SOURCE() != (RCC_ClkInitStruct->SYSCLKSource << RCC_CFGR_SWS_Pos))
 80044da:	4b24      	ldr	r3, [pc, #144]	; (800456c <HAL_RCC_ClockConfig+0x188>)
 80044dc:	685b      	ldr	r3, [r3, #4]
 80044de:	220c      	movs	r2, #12
 80044e0:	401a      	ands	r2, r3
 80044e2:	687b      	ldr	r3, [r7, #4]
 80044e4:	685b      	ldr	r3, [r3, #4]
 80044e6:	009b      	lsls	r3, r3, #2
 80044e8:	429a      	cmp	r2, r3
 80044ea:	d1ec      	bne.n	80044c6 <HAL_RCC_ClockConfig+0xe2>
      }
    }
  }

  /* Decreasing the number of wait states because of lower CPU frequency */
  if(FLatency < __HAL_FLASH_GET_LATENCY())
 80044ec:	4b1e      	ldr	r3, [pc, #120]	; (8004568 <HAL_RCC_ClockConfig+0x184>)
 80044ee:	681b      	ldr	r3, [r3, #0]
 80044f0:	2201      	movs	r2, #1
 80044f2:	4013      	ands	r3, r2
 80044f4:	683a      	ldr	r2, [r7, #0]
 80044f6:	429a      	cmp	r2, r3
 80044f8:	d211      	bcs.n	800451e <HAL_RCC_ClockConfig+0x13a>
  {    
    /* Program the new number of wait states to the LATENCY bits in the FLASH_ACR register */
    __HAL_FLASH_SET_LATENCY(FLatency);
 80044fa:	4b1b      	ldr	r3, [pc, #108]	; (8004568 <HAL_RCC_ClockConfig+0x184>)
 80044fc:	681b      	ldr	r3, [r3, #0]
 80044fe:	2201      	movs	r2, #1
 8004500:	4393      	bics	r3, r2
 8004502:	0019      	movs	r1, r3
 8004504:	4b18      	ldr	r3, [pc, #96]	; (8004568 <HAL_RCC_ClockConfig+0x184>)
 8004506:	683a      	ldr	r2, [r7, #0]
 8004508:	430a      	orrs	r2, r1
 800450a:	601a      	str	r2, [r3, #0]
    
    /* Check that the new number of wait states is taken into account to access the Flash
    memory by reading the FLASH_ACR register */
    if(__HAL_FLASH_GET_LATENCY() != FLatency)
 800450c:	4b16      	ldr	r3, [pc, #88]	; (8004568 <HAL_RCC_ClockConfig+0x184>)
 800450e:	681b      	ldr	r3, [r3, #0]
 8004510:	2201      	movs	r2, #1
 8004512:	4013      	ands	r3, r2
 8004514:	683a      	ldr	r2, [r7, #0]
 8004516:	429a      	cmp	r2, r3
 8004518:	d001      	beq.n	800451e <HAL_RCC_ClockConfig+0x13a>
    {
      return HAL_ERROR;
 800451a:	2301      	movs	r3, #1
 800451c:	e020      	b.n	8004560 <HAL_RCC_ClockConfig+0x17c>
    }
  }    

  /*-------------------------- PCLK1 Configuration ---------------------------*/ 
  if(((RCC_ClkInitStruct->ClockType) & RCC_CLOCKTYPE_PCLK1) == RCC_CLOCKTYPE_PCLK1)
 800451e:	687b      	ldr	r3, [r7, #4]
 8004520:	681b      	ldr	r3, [r3, #0]
 8004522:	2204      	movs	r2, #4
 8004524:	4013      	ands	r3, r2
 8004526:	d009      	beq.n	800453c <HAL_RCC_ClockConfig+0x158>
  {
    assert_param(IS_RCC_PCLK(RCC_ClkInitStruct->APB1CLKDivider));
    MODIFY_REG(RCC->CFGR, RCC_CFGR_PPRE, RCC_ClkInitStruct->APB1CLKDivider);
 8004528:	4b10      	ldr	r3, [pc, #64]	; (800456c <HAL_RCC_ClockConfig+0x188>)
 800452a:	685b      	ldr	r3, [r3, #4]
 800452c:	4a11      	ldr	r2, [pc, #68]	; (8004574 <HAL_RCC_ClockConfig+0x190>)
 800452e:	4013      	ands	r3, r2
 8004530:	0019      	movs	r1, r3
 8004532:	687b      	ldr	r3, [r7, #4]
 8004534:	68da      	ldr	r2, [r3, #12]
 8004536:	4b0d      	ldr	r3, [pc, #52]	; (800456c <HAL_RCC_ClockConfig+0x188>)
 8004538:	430a      	orrs	r2, r1
 800453a:	605a      	str	r2, [r3, #4]
  }
  
  /* Update the SystemCoreClock global variable */
  SystemCoreClock = HAL_RCC_GetSysClockFreq() >> AHBPrescTable[(RCC->CFGR & RCC_CFGR_HPRE)>> RCC_CFGR_HPRE_BITNUMBER];
 800453c:	f000 f820 	bl	8004580 <HAL_RCC_GetSysClockFreq>
 8004540:	0001      	movs	r1, r0
 8004542:	4b0a      	ldr	r3, [pc, #40]	; (800456c <HAL_RCC_ClockConfig+0x188>)
 8004544:	685b      	ldr	r3, [r3, #4]
 8004546:	091b      	lsrs	r3, r3, #4
 8004548:	220f      	movs	r2, #15
 800454a:	4013      	ands	r3, r2
 800454c:	4a0a      	ldr	r2, [pc, #40]	; (8004578 <HAL_RCC_ClockConfig+0x194>)
 800454e:	5cd3      	ldrb	r3, [r2, r3]
 8004550:	000a      	movs	r2, r1
 8004552:	40da      	lsrs	r2, r3
 8004554:	4b09      	ldr	r3, [pc, #36]	; (800457c <HAL_RCC_ClockConfig+0x198>)
 8004556:	601a      	str	r2, [r3, #0]

  /* Configure the source of time base considering new system clocks settings*/
  HAL_InitTick (TICK_INT_PRIORITY);
 8004558:	2000      	movs	r0, #0
 800455a:	f7ff f8c5 	bl	80036e8 <HAL_InitTick>
  
  return HAL_OK;
 800455e:	2300      	movs	r3, #0
}
 8004560:	0018      	movs	r0, r3
 8004562:	46bd      	mov	sp, r7
 8004564:	b004      	add	sp, #16
 8004566:	bd80      	pop	{r7, pc}
 8004568:	40022000 	.word	0x40022000
 800456c:	40021000 	.word	0x40021000
 8004570:	00001388 	.word	0x00001388
 8004574:	fffff8ff 	.word	0xfffff8ff
 8004578:	08007ec8 	.word	0x08007ec8
 800457c:	20000004 	.word	0x20000004

08004580 <HAL_RCC_GetSysClockFreq>:
  *         right SYSCLK value. Otherwise, any configuration based on this function will be incorrect.
  *         
  * @retval SYSCLK frequency
  */
uint32_t HAL_RCC_GetSysClockFreq(void)
{
 8004580:	b590      	push	{r4, r7, lr}
 8004582:	b08f      	sub	sp, #60	; 0x3c
 8004584:	af00      	add	r7, sp, #0
  const uint8_t aPLLMULFactorTable[16] = { 2U,  3U,  4U,  5U,  6U,  7U,  8U,  9U,
 8004586:	2314      	movs	r3, #20
 8004588:	18fb      	adds	r3, r7, r3
 800458a:	4a2b      	ldr	r2, [pc, #172]	; (8004638 <HAL_RCC_GetSysClockFreq+0xb8>)
 800458c:	ca13      	ldmia	r2!, {r0, r1, r4}
 800458e:	c313      	stmia	r3!, {r0, r1, r4}
 8004590:	6812      	ldr	r2, [r2, #0]
 8004592:	601a      	str	r2, [r3, #0]
                                         10U, 11U, 12U, 13U, 14U, 15U, 16U, 16U};
  const uint8_t aPredivFactorTable[16] = { 1U, 2U,  3U,  4U,  5U,  6U,  7U,  8U,
 8004594:	1d3b      	adds	r3, r7, #4
 8004596:	4a29      	ldr	r2, [pc, #164]	; (800463c <HAL_RCC_GetSysClockFreq+0xbc>)
 8004598:	ca13      	ldmia	r2!, {r0, r1, r4}
 800459a:	c313      	stmia	r3!, {r0, r1, r4}
 800459c:	6812      	ldr	r2, [r2, #0]
 800459e:	601a      	str	r2, [r3, #0]
                                           9U,10U, 11U, 12U, 13U, 14U, 15U, 16U};

  uint32_t tmpreg = 0U, prediv = 0U, pllclk = 0U, pllmul = 0U;
 80045a0:	2300      	movs	r3, #0
 80045a2:	62fb      	str	r3, [r7, #44]	; 0x2c
 80045a4:	2300      	movs	r3, #0
 80045a6:	62bb      	str	r3, [r7, #40]	; 0x28
 80045a8:	2300      	movs	r3, #0
 80045aa:	637b      	str	r3, [r7, #52]	; 0x34
 80045ac:	2300      	movs	r3, #0
 80045ae:	627b      	str	r3, [r7, #36]	; 0x24
  uint32_t sysclockfreq = 0U;
 80045b0:	2300      	movs	r3, #0
 80045b2:	633b      	str	r3, [r7, #48]	; 0x30
  
  tmpreg = RCC->CFGR;
 80045b4:	4b22      	ldr	r3, [pc, #136]	; (8004640 <HAL_RCC_GetSysClockFreq+0xc0>)
 80045b6:	685b      	ldr	r3, [r3, #4]
 80045b8:	62fb      	str	r3, [r7, #44]	; 0x2c
  
  /* Get SYSCLK source -------------------------------------------------------*/
  switch (tmpreg & RCC_CFGR_SWS)
 80045ba:	6afb      	ldr	r3, [r7, #44]	; 0x2c
 80045bc:	220c      	movs	r2, #12
 80045be:	4013      	ands	r3, r2
 80045c0:	2b04      	cmp	r3, #4
 80045c2:	d002      	beq.n	80045ca <HAL_RCC_GetSysClockFreq+0x4a>
 80045c4:	2b08      	cmp	r3, #8
 80045c6:	d003      	beq.n	80045d0 <HAL_RCC_GetSysClockFreq+0x50>
 80045c8:	e02d      	b.n	8004626 <HAL_RCC_GetSysClockFreq+0xa6>
  {
    case RCC_SYSCLKSOURCE_STATUS_HSE:  /* HSE used as system clock */
    {
      sysclockfreq = HSE_VALUE;
 80045ca:	4b1e      	ldr	r3, [pc, #120]	; (8004644 <HAL_RCC_GetSysClockFreq+0xc4>)
 80045cc:	633b      	str	r3, [r7, #48]	; 0x30
      break;
 80045ce:	e02d      	b.n	800462c <HAL_RCC_GetSysClockFreq+0xac>
    }
    case RCC_SYSCLKSOURCE_STATUS_PLLCLK:  /* PLL used as system clock */
    {
      pllmul = aPLLMULFactorTable[(uint32_t)(tmpreg & RCC_CFGR_PLLMUL) >> RCC_CFGR_PLLMUL_BITNUMBER];
 80045d0:	6afb      	ldr	r3, [r7, #44]	; 0x2c
 80045d2:	0c9b      	lsrs	r3, r3, #18
 80045d4:	220f      	movs	r2, #15
 80045d6:	4013      	ands	r3, r2
 80045d8:	2214      	movs	r2, #20
 80045da:	18ba      	adds	r2, r7, r2
 80045dc:	5cd3      	ldrb	r3, [r2, r3]
 80045de:	627b      	str	r3, [r7, #36]	; 0x24
      prediv = aPredivFactorTable[(uint32_t)(RCC->CFGR2 & RCC_CFGR2_PREDIV) >> RCC_CFGR2_PREDIV_BITNUMBER];
 80045e0:	4b17      	ldr	r3, [pc, #92]	; (8004640 <HAL_RCC_GetSysClockFreq+0xc0>)
 80045e2:	6adb      	ldr	r3, [r3, #44]	; 0x2c
 80045e4:	220f      	movs	r2, #15
 80045e6:	4013      	ands	r3, r2
 80045e8:	1d3a      	adds	r2, r7, #4
 80045ea:	5cd3      	ldrb	r3, [r2, r3]
 80045ec:	62bb      	str	r3, [r7, #40]	; 0x28
      if ((tmpreg & RCC_CFGR_PLLSRC) == RCC_PLLSOURCE_HSE)
 80045ee:	6afa      	ldr	r2, [r7, #44]	; 0x2c
 80045f0:	2380      	movs	r3, #128	; 0x80
 80045f2:	025b      	lsls	r3, r3, #9
 80045f4:	4013      	ands	r3, r2
 80045f6:	d009      	beq.n	800460c <HAL_RCC_GetSysClockFreq+0x8c>
      {
        /* HSE used as PLL clock source : PLLCLK = HSE/PREDIV * PLLMUL */
        pllclk = (uint32_t)((uint64_t) HSE_VALUE / (uint64_t) (prediv)) * ((uint64_t) pllmul);
 80045f8:	6ab9      	ldr	r1, [r7, #40]	; 0x28
 80045fa:	4812      	ldr	r0, [pc, #72]	; (8004644 <HAL_RCC_GetSysClockFreq+0xc4>)
 80045fc:	f7fb fd84 	bl	8000108 <__udivsi3>
 8004600:	0003      	movs	r3, r0
 8004602:	001a      	movs	r2, r3
 8004604:	6a7b      	ldr	r3, [r7, #36]	; 0x24
 8004606:	4353      	muls	r3, r2
 8004608:	637b      	str	r3, [r7, #52]	; 0x34
 800460a:	e009      	b.n	8004620 <HAL_RCC_GetSysClockFreq+0xa0>
#if  (defined(STM32F042x6) || defined(STM32F048xx) || defined(STM32F070x6) || defined(STM32F071xB) || defined(STM32F072xB) || defined(STM32F078xx) || defined(STM32F070xB) || defined(STM32F091xC) || defined(STM32F098xx) || defined(STM32F030xC))
        /* HSI used as PLL clock source : PLLCLK = HSI/PREDIV * PLLMUL */
        pllclk = (uint32_t)((uint64_t) HSI_VALUE / (uint64_t) (prediv)) * ((uint64_t) pllmul);
#else
        /* HSI used as PLL clock source : PLLCLK = HSI/2 * PLLMUL */
        pllclk = (uint32_t)((uint64_t) (HSI_VALUE >> 1U) * ((uint64_t) pllmul));
 800460c:	6a79      	ldr	r1, [r7, #36]	; 0x24
 800460e:	000a      	movs	r2, r1
 8004610:	0152      	lsls	r2, r2, #5
 8004612:	1a52      	subs	r2, r2, r1
 8004614:	0193      	lsls	r3, r2, #6
 8004616:	1a9b      	subs	r3, r3, r2
 8004618:	00db      	lsls	r3, r3, #3
 800461a:	185b      	adds	r3, r3, r1
 800461c:	021b      	lsls	r3, r3, #8
 800461e:	637b      	str	r3, [r7, #52]	; 0x34
#endif
      }
      sysclockfreq = pllclk;
 8004620:	6b7b      	ldr	r3, [r7, #52]	; 0x34
 8004622:	633b      	str	r3, [r7, #48]	; 0x30
      break;
 8004624:	e002      	b.n	800462c <HAL_RCC_GetSysClockFreq+0xac>
    }
#endif /* RCC_CFGR_SWS_HSI48 */
    case RCC_SYSCLKSOURCE_STATUS_HSI:  /* HSI used as system clock source */
    default: /* HSI used as system clock */
    {
      sysclockfreq = HSI_VALUE;
 8004626:	4b07      	ldr	r3, [pc, #28]	; (8004644 <HAL_RCC_GetSysClockFreq+0xc4>)
 8004628:	633b      	str	r3, [r7, #48]	; 0x30
      break;
 800462a:	46c0      	nop			; (mov r8, r8)
    }
  }
  return sysclockfreq;
 800462c:	6b3b      	ldr	r3, [r7, #48]	; 0x30
}
 800462e:	0018      	movs	r0, r3
 8004630:	46bd      	mov	sp, r7
 8004632:	b00f      	add	sp, #60	; 0x3c
 8004634:	bd90      	pop	{r4, r7, pc}
 8004636:	46c0      	nop			; (mov r8, r8)
 8004638:	08007e94 	.word	0x08007e94
 800463c:	08007ea4 	.word	0x08007ea4
 8004640:	40021000 	.word	0x40021000
 8004644:	007a1200 	.word	0x007a1200

08004648 <HAL_RCC_GetHCLKFreq>:
  * @note   The SystemCoreClock CMSIS variable is used to store System Clock Frequency 
  *         and updated within this function
  * @retval HCLK frequency
  */
uint32_t HAL_RCC_GetHCLKFreq(void)
{
 8004648:	b580      	push	{r7, lr}
 800464a:	af00      	add	r7, sp, #0
  return SystemCoreClock;
 800464c:	4b02      	ldr	r3, [pc, #8]	; (8004658 <HAL_RCC_GetHCLKFreq+0x10>)
 800464e:	681b      	ldr	r3, [r3, #0]
}
 8004650:	0018      	movs	r0, r3
 8004652:	46bd      	mov	sp, r7
 8004654:	bd80      	pop	{r7, pc}
 8004656:	46c0      	nop			; (mov r8, r8)
 8004658:	20000004 	.word	0x20000004

0800465c <HAL_RCC_GetPCLK1Freq>:
  * @note   Each time PCLK1 changes, this function must be called to update the
  *         right PCLK1 value. Otherwise, any configuration based on this function will be incorrect.
  * @retval PCLK1 frequency
  */
uint32_t HAL_RCC_GetPCLK1Freq(void)
{
 800465c:	b580      	push	{r7, lr}
 800465e:	af00      	add	r7, sp, #0
  /* Get HCLK source and Compute PCLK1 frequency ---------------------------*/
  return (HAL_RCC_GetHCLKFreq() >> APBPrescTable[(RCC->CFGR & RCC_CFGR_PPRE) >> RCC_CFGR_PPRE_BITNUMBER]);
 8004660:	f7ff fff2 	bl	8004648 <HAL_RCC_GetHCLKFreq>
 8004664:	0001      	movs	r1, r0
 8004666:	4b06      	ldr	r3, [pc, #24]	; (8004680 <HAL_RCC_GetPCLK1Freq+0x24>)
 8004668:	685b      	ldr	r3, [r3, #4]
 800466a:	0a1b      	lsrs	r3, r3, #8
 800466c:	2207      	movs	r2, #7
 800466e:	4013      	ands	r3, r2
 8004670:	4a04      	ldr	r2, [pc, #16]	; (8004684 <HAL_RCC_GetPCLK1Freq+0x28>)
 8004672:	5cd3      	ldrb	r3, [r2, r3]
 8004674:	40d9      	lsrs	r1, r3
 8004676:	000b      	movs	r3, r1
}    
 8004678:	0018      	movs	r0, r3
 800467a:	46bd      	mov	sp, r7
 800467c:	bd80      	pop	{r7, pc}
 800467e:	46c0      	nop			; (mov r8, r8)
 8004680:	40021000 	.word	0x40021000
 8004684:	08007ed8 	.word	0x08007ed8

08004688 <HAL_SPI_Init>:
  * @param  hspi pointer to a SPI_HandleTypeDef structure that contains
  *               the configuration information for SPI module.
  * @retval HAL status
  */
HAL_StatusTypeDef HAL_SPI_Init(SPI_HandleTypeDef *hspi)
{
 8004688:	b580      	push	{r7, lr}
 800468a:	b084      	sub	sp, #16
 800468c:	af00      	add	r7, sp, #0
 800468e:	6078      	str	r0, [r7, #4]
  uint32_t frxth;

  /* Check the SPI handle allocation */
  if (hspi == NULL)
 8004690:	687b      	ldr	r3, [r7, #4]
 8004692:	2b00      	cmp	r3, #0
 8004694:	d101      	bne.n	800469a <HAL_SPI_Init+0x12>
  {
    return HAL_ERROR;
 8004696:	2301      	movs	r3, #1
 8004698:	e08a      	b.n	80047b0 <HAL_SPI_Init+0x128>
  {
    assert_param(IS_SPI_CRC_POLYNOMIAL(hspi->Init.CRCPolynomial));
    assert_param(IS_SPI_CRC_LENGTH(hspi->Init.CRCLength));
  }
#else
  hspi->Init.CRCCalculation = SPI_CRCCALCULATION_DISABLE;
 800469a:	687b      	ldr	r3, [r7, #4]
 800469c:	2200      	movs	r2, #0
 800469e:	629a      	str	r2, [r3, #40]	; 0x28
#endif /* USE_SPI_CRC */

  if (hspi->State == HAL_SPI_STATE_RESET)
 80046a0:	687b      	ldr	r3, [r7, #4]
 80046a2:	225d      	movs	r2, #93	; 0x5d
 80046a4:	5c9b      	ldrb	r3, [r3, r2]
 80046a6:	b2db      	uxtb	r3, r3
 80046a8:	2b00      	cmp	r3, #0
 80046aa:	d107      	bne.n	80046bc <HAL_SPI_Init+0x34>
  {
    /* Allocate lock resource and initialize it */
    hspi->Lock = HAL_UNLOCKED;
 80046ac:	687b      	ldr	r3, [r7, #4]
 80046ae:	225c      	movs	r2, #92	; 0x5c
 80046b0:	2100      	movs	r1, #0
 80046b2:	5499      	strb	r1, [r3, r2]

    /* Init the low level hardware : GPIO, CLOCK, NVIC... */
    hspi->MspInitCallback(hspi);
#else
    /* Init the low level hardware : GPIO, CLOCK, NVIC... */
    HAL_SPI_MspInit(hspi);
 80046b4:	687b      	ldr	r3, [r7, #4]
 80046b6:	0018      	movs	r0, r3
 80046b8:	f7fe fee8 	bl	800348c <HAL_SPI_MspInit>
#endif /* USE_HAL_SPI_REGISTER_CALLBACKS */
  }

  hspi->State = HAL_SPI_STATE_BUSY;
 80046bc:	687b      	ldr	r3, [r7, #4]
 80046be:	225d      	movs	r2, #93	; 0x5d
 80046c0:	2102      	movs	r1, #2
 80046c2:	5499      	strb	r1, [r3, r2]

  /* Disable the selected SPI peripheral */
  __HAL_SPI_DISABLE(hspi);
 80046c4:	687b      	ldr	r3, [r7, #4]
 80046c6:	681b      	ldr	r3, [r3, #0]
 80046c8:	681a      	ldr	r2, [r3, #0]
 80046ca:	687b      	ldr	r3, [r7, #4]
 80046cc:	681b      	ldr	r3, [r3, #0]
 80046ce:	2140      	movs	r1, #64	; 0x40
 80046d0:	438a      	bics	r2, r1
 80046d2:	601a      	str	r2, [r3, #0]

  /* Align by default the rs fifo threshold on the data size */
  if (hspi->Init.DataSize > SPI_DATASIZE_8BIT)
 80046d4:	687b      	ldr	r3, [r7, #4]
 80046d6:	68da      	ldr	r2, [r3, #12]
 80046d8:	23e0      	movs	r3, #224	; 0xe0
 80046da:	00db      	lsls	r3, r3, #3
 80046dc:	429a      	cmp	r2, r3
 80046de:	d902      	bls.n	80046e6 <HAL_SPI_Init+0x5e>
  {
    frxth = SPI_RXFIFO_THRESHOLD_HF;
 80046e0:	2300      	movs	r3, #0
 80046e2:	60fb      	str	r3, [r7, #12]
 80046e4:	e002      	b.n	80046ec <HAL_SPI_Init+0x64>
  }
  else
  {
    frxth = SPI_RXFIFO_THRESHOLD_QF;
 80046e6:	2380      	movs	r3, #128	; 0x80
 80046e8:	015b      	lsls	r3, r3, #5
 80046ea:	60fb      	str	r3, [r7, #12]
  }

  /* CRC calculation is valid only for 16Bit and 8 Bit */
  if ((hspi->Init.DataSize != SPI_DATASIZE_16BIT) && (hspi->Init.DataSize != SPI_DATASIZE_8BIT))
 80046ec:	687b      	ldr	r3, [r7, #4]
 80046ee:	68da      	ldr	r2, [r3, #12]
 80046f0:	23f0      	movs	r3, #240	; 0xf0
 80046f2:	011b      	lsls	r3, r3, #4
 80046f4:	429a      	cmp	r2, r3
 80046f6:	d008      	beq.n	800470a <HAL_SPI_Init+0x82>
 80046f8:	687b      	ldr	r3, [r7, #4]
 80046fa:	68da      	ldr	r2, [r3, #12]
 80046fc:	23e0      	movs	r3, #224	; 0xe0
 80046fe:	00db      	lsls	r3, r3, #3
 8004700:	429a      	cmp	r2, r3
 8004702:	d002      	beq.n	800470a <HAL_SPI_Init+0x82>
  {
    /* CRC must be disabled */
    hspi->Init.CRCCalculation = SPI_CRCCALCULATION_DISABLE;
 8004704:	687b      	ldr	r3, [r7, #4]
 8004706:	2200      	movs	r2, #0
 8004708:	629a      	str	r2, [r3, #40]	; 0x28
  }

  /* Align the CRC Length on the data size */
  if (hspi->Init.CRCLength == SPI_CRC_LENGTH_DATASIZE)
 800470a:	687b      	ldr	r3, [r7, #4]
 800470c:	6b1b      	ldr	r3, [r3, #48]	; 0x30
 800470e:	2b00      	cmp	r3, #0
 8004710:	d10c      	bne.n	800472c <HAL_SPI_Init+0xa4>
  {
    /* CRC Length aligned on the data size : value set by default */
    if (hspi->Init.DataSize > SPI_DATASIZE_8BIT)
 8004712:	687b      	ldr	r3, [r7, #4]
 8004714:	68da      	ldr	r2, [r3, #12]
 8004716:	23e0      	movs	r3, #224	; 0xe0
 8004718:	00db      	lsls	r3, r3, #3
 800471a:	429a      	cmp	r2, r3
 800471c:	d903      	bls.n	8004726 <HAL_SPI_Init+0x9e>
    {
      hspi->Init.CRCLength = SPI_CRC_LENGTH_16BIT;
 800471e:	687b      	ldr	r3, [r7, #4]
 8004720:	2202      	movs	r2, #2
 8004722:	631a      	str	r2, [r3, #48]	; 0x30
 8004724:	e002      	b.n	800472c <HAL_SPI_Init+0xa4>
    }
    else
    {
      hspi->Init.CRCLength = SPI_CRC_LENGTH_8BIT;
 8004726:	687b      	ldr	r3, [r7, #4]
 8004728:	2201      	movs	r2, #1
 800472a:	631a      	str	r2, [r3, #48]	; 0x30
  }

  /*----------------------- SPIx CR1 & CR2 Configuration ---------------------*/
  /* Configure : SPI Mode, Communication Mode, Clock polarity and phase, NSS management,
  Communication speed, First bit and CRC calculation state */
  WRITE_REG(hspi->Instance->CR1, (hspi->Init.Mode | hspi->Init.Direction |
 800472c:	687b      	ldr	r3, [r7, #4]
 800472e:	685a      	ldr	r2, [r3, #4]
 8004730:	687b      	ldr	r3, [r7, #4]
 8004732:	689b      	ldr	r3, [r3, #8]
 8004734:	431a      	orrs	r2, r3
 8004736:	687b      	ldr	r3, [r7, #4]
 8004738:	691b      	ldr	r3, [r3, #16]
 800473a:	431a      	orrs	r2, r3
 800473c:	687b      	ldr	r3, [r7, #4]
 800473e:	695b      	ldr	r3, [r3, #20]
 8004740:	431a      	orrs	r2, r3
 8004742:	687b      	ldr	r3, [r7, #4]
 8004744:	6999      	ldr	r1, [r3, #24]
 8004746:	2380      	movs	r3, #128	; 0x80
 8004748:	009b      	lsls	r3, r3, #2
 800474a:	400b      	ands	r3, r1
 800474c:	431a      	orrs	r2, r3
 800474e:	687b      	ldr	r3, [r7, #4]
 8004750:	69db      	ldr	r3, [r3, #28]
 8004752:	431a      	orrs	r2, r3
 8004754:	687b      	ldr	r3, [r7, #4]
 8004756:	6a1b      	ldr	r3, [r3, #32]
 8004758:	431a      	orrs	r2, r3
 800475a:	0011      	movs	r1, r2
 800475c:	687b      	ldr	r3, [r7, #4]
 800475e:	6a9a      	ldr	r2, [r3, #40]	; 0x28
 8004760:	687b      	ldr	r3, [r7, #4]
 8004762:	681b      	ldr	r3, [r3, #0]
 8004764:	430a      	orrs	r2, r1
 8004766:	601a      	str	r2, [r3, #0]
    hspi->Instance->CR1 |= SPI_CR1_CRCL;
  }
#endif /* USE_SPI_CRC */

  /* Configure : NSS management, TI Mode, NSS Pulse, Data size and Rx Fifo threshold */
  WRITE_REG(hspi->Instance->CR2, (((hspi->Init.NSS >> 16U) & SPI_CR2_SSOE) | hspi->Init.TIMode |
 8004768:	687b      	ldr	r3, [r7, #4]
 800476a:	699b      	ldr	r3, [r3, #24]
 800476c:	0c1b      	lsrs	r3, r3, #16
 800476e:	2204      	movs	r2, #4
 8004770:	401a      	ands	r2, r3
 8004772:	687b      	ldr	r3, [r7, #4]
 8004774:	6a5b      	ldr	r3, [r3, #36]	; 0x24
 8004776:	431a      	orrs	r2, r3
 8004778:	687b      	ldr	r3, [r7, #4]
 800477a:	6b5b      	ldr	r3, [r3, #52]	; 0x34
 800477c:	431a      	orrs	r2, r3
 800477e:	687b      	ldr	r3, [r7, #4]
 8004780:	68db      	ldr	r3, [r3, #12]
 8004782:	431a      	orrs	r2, r3
 8004784:	0011      	movs	r1, r2
 8004786:	687b      	ldr	r3, [r7, #4]
 8004788:	681b      	ldr	r3, [r3, #0]
 800478a:	68fa      	ldr	r2, [r7, #12]
 800478c:	430a      	orrs	r2, r1
 800478e:	605a      	str	r2, [r3, #4]
  }
#endif /* USE_SPI_CRC */

#if defined(SPI_I2SCFGR_I2SMOD)
  /* Activate the SPI mode (Make sure that I2SMOD bit in I2SCFGR register is reset) */
  CLEAR_BIT(hspi->Instance->I2SCFGR, SPI_I2SCFGR_I2SMOD);
 8004790:	687b      	ldr	r3, [r7, #4]
 8004792:	681b      	ldr	r3, [r3, #0]
 8004794:	69da      	ldr	r2, [r3, #28]
 8004796:	687b      	ldr	r3, [r7, #4]
 8004798:	681b      	ldr	r3, [r3, #0]
 800479a:	4907      	ldr	r1, [pc, #28]	; (80047b8 <HAL_SPI_Init+0x130>)
 800479c:	400a      	ands	r2, r1
 800479e:	61da      	str	r2, [r3, #28]
#endif /* SPI_I2SCFGR_I2SMOD */

  hspi->ErrorCode = HAL_SPI_ERROR_NONE;
 80047a0:	687b      	ldr	r3, [r7, #4]
 80047a2:	2200      	movs	r2, #0
 80047a4:	661a      	str	r2, [r3, #96]	; 0x60
  hspi->State     = HAL_SPI_STATE_READY;
 80047a6:	687b      	ldr	r3, [r7, #4]
 80047a8:	225d      	movs	r2, #93	; 0x5d
 80047aa:	2101      	movs	r1, #1
 80047ac:	5499      	strb	r1, [r3, r2]

  return HAL_OK;
 80047ae:	2300      	movs	r3, #0
}
 80047b0:	0018      	movs	r0, r3
 80047b2:	46bd      	mov	sp, r7
 80047b4:	b004      	add	sp, #16
 80047b6:	bd80      	pop	{r7, pc}
 80047b8:	fffff7ff 	.word	0xfffff7ff

080047bc <HAL_SPI_Transmit>:
  * @param  Size amount of data to be sent
  * @param  Timeout Timeout duration
  * @retval HAL status
  */
HAL_StatusTypeDef HAL_SPI_Transmit(SPI_HandleTypeDef *hspi, uint8_t *pData, uint16_t Size, uint32_t Timeout)
{
 80047bc:	b580      	push	{r7, lr}
 80047be:	b088      	sub	sp, #32
 80047c0:	af00      	add	r7, sp, #0
 80047c2:	60f8      	str	r0, [r7, #12]
 80047c4:	60b9      	str	r1, [r7, #8]
 80047c6:	603b      	str	r3, [r7, #0]
 80047c8:	1dbb      	adds	r3, r7, #6
 80047ca:	801a      	strh	r2, [r3, #0]
  uint32_t tickstart;
  HAL_StatusTypeDef errorcode = HAL_OK;
 80047cc:	231f      	movs	r3, #31
 80047ce:	18fb      	adds	r3, r7, r3
 80047d0:	2200      	movs	r2, #0
 80047d2:	701a      	strb	r2, [r3, #0]

  /* Check Direction parameter */
  assert_param(IS_SPI_DIRECTION_2LINES_OR_1LINE(hspi->Init.Direction));

  /* Process Locked */
  __HAL_LOCK(hspi);
 80047d4:	68fb      	ldr	r3, [r7, #12]
 80047d6:	225c      	movs	r2, #92	; 0x5c
 80047d8:	5c9b      	ldrb	r3, [r3, r2]
 80047da:	2b01      	cmp	r3, #1
 80047dc:	d101      	bne.n	80047e2 <HAL_SPI_Transmit+0x26>
 80047de:	2302      	movs	r3, #2
 80047e0:	e169      	b.n	8004ab6 <HAL_SPI_Transmit+0x2fa>
 80047e2:	68fb      	ldr	r3, [r7, #12]
 80047e4:	225c      	movs	r2, #92	; 0x5c
 80047e6:	2101      	movs	r1, #1
 80047e8:	5499      	strb	r1, [r3, r2]

  /* Init tickstart for timeout management*/
  tickstart = HAL_GetTick();
 80047ea:	f7fe ffc3 	bl	8003774 <HAL_GetTick>
 80047ee:	0003      	movs	r3, r0
 80047f0:	61bb      	str	r3, [r7, #24]
  initial_TxXferCount = Size;
 80047f2:	2316      	movs	r3, #22
 80047f4:	18fb      	adds	r3, r7, r3
 80047f6:	1dba      	adds	r2, r7, #6
 80047f8:	8812      	ldrh	r2, [r2, #0]
 80047fa:	801a      	strh	r2, [r3, #0]

  if (hspi->State != HAL_SPI_STATE_READY)
 80047fc:	68fb      	ldr	r3, [r7, #12]
 80047fe:	225d      	movs	r2, #93	; 0x5d
 8004800:	5c9b      	ldrb	r3, [r3, r2]
 8004802:	b2db      	uxtb	r3, r3
 8004804:	2b01      	cmp	r3, #1
 8004806:	d004      	beq.n	8004812 <HAL_SPI_Transmit+0x56>
  {
    errorcode = HAL_BUSY;
 8004808:	231f      	movs	r3, #31
 800480a:	18fb      	adds	r3, r7, r3
 800480c:	2202      	movs	r2, #2
 800480e:	701a      	strb	r2, [r3, #0]
    goto error;
 8004810:	e146      	b.n	8004aa0 <HAL_SPI_Transmit+0x2e4>
  }

  if ((pData == NULL) || (Size == 0U))
 8004812:	68bb      	ldr	r3, [r7, #8]
 8004814:	2b00      	cmp	r3, #0
 8004816:	d003      	beq.n	8004820 <HAL_SPI_Transmit+0x64>
 8004818:	1dbb      	adds	r3, r7, #6
 800481a:	881b      	ldrh	r3, [r3, #0]
 800481c:	2b00      	cmp	r3, #0
 800481e:	d104      	bne.n	800482a <HAL_SPI_Transmit+0x6e>
  {
    errorcode = HAL_ERROR;
 8004820:	231f      	movs	r3, #31
 8004822:	18fb      	adds	r3, r7, r3
 8004824:	2201      	movs	r2, #1
 8004826:	701a      	strb	r2, [r3, #0]
    goto error;
 8004828:	e13a      	b.n	8004aa0 <HAL_SPI_Transmit+0x2e4>
  }

  /* Set the transaction information */
  hspi->State       = HAL_SPI_STATE_BUSY_TX;
 800482a:	68fb      	ldr	r3, [r7, #12]
 800482c:	225d      	movs	r2, #93	; 0x5d
 800482e:	2103      	movs	r1, #3
 8004830:	5499      	strb	r1, [r3, r2]
  hspi->ErrorCode   = HAL_SPI_ERROR_NONE;
 8004832:	68fb      	ldr	r3, [r7, #12]
 8004834:	2200      	movs	r2, #0
 8004836:	661a      	str	r2, [r3, #96]	; 0x60
  hspi->pTxBuffPtr  = (uint8_t *)pData;
 8004838:	68fb      	ldr	r3, [r7, #12]
 800483a:	68ba      	ldr	r2, [r7, #8]
 800483c:	639a      	str	r2, [r3, #56]	; 0x38
  hspi->TxXferSize  = Size;
 800483e:	68fb      	ldr	r3, [r7, #12]
 8004840:	1dba      	adds	r2, r7, #6
 8004842:	8812      	ldrh	r2, [r2, #0]
 8004844:	879a      	strh	r2, [r3, #60]	; 0x3c
  hspi->TxXferCount = Size;
 8004846:	68fb      	ldr	r3, [r7, #12]
 8004848:	1dba      	adds	r2, r7, #6
 800484a:	8812      	ldrh	r2, [r2, #0]
 800484c:	87da      	strh	r2, [r3, #62]	; 0x3e

  /*Init field not used in handle to zero */
  hspi->pRxBuffPtr  = (uint8_t *)NULL;
 800484e:	68fb      	ldr	r3, [r7, #12]
 8004850:	2200      	movs	r2, #0
 8004852:	641a      	str	r2, [r3, #64]	; 0x40
  hspi->RxXferSize  = 0U;
 8004854:	68fb      	ldr	r3, [r7, #12]
 8004856:	2244      	movs	r2, #68	; 0x44
 8004858:	2100      	movs	r1, #0
 800485a:	5299      	strh	r1, [r3, r2]
  hspi->RxXferCount = 0U;
 800485c:	68fb      	ldr	r3, [r7, #12]
 800485e:	2246      	movs	r2, #70	; 0x46
 8004860:	2100      	movs	r1, #0
 8004862:	5299      	strh	r1, [r3, r2]
  hspi->TxISR       = NULL;
 8004864:	68fb      	ldr	r3, [r7, #12]
 8004866:	2200      	movs	r2, #0
 8004868:	651a      	str	r2, [r3, #80]	; 0x50
  hspi->RxISR       = NULL;
 800486a:	68fb      	ldr	r3, [r7, #12]
 800486c:	2200      	movs	r2, #0
 800486e:	64da      	str	r2, [r3, #76]	; 0x4c

  /* Configure communication direction : 1Line */
  if (hspi->Init.Direction == SPI_DIRECTION_1LINE)
 8004870:	68fb      	ldr	r3, [r7, #12]
 8004872:	689a      	ldr	r2, [r3, #8]
 8004874:	2380      	movs	r3, #128	; 0x80
 8004876:	021b      	lsls	r3, r3, #8
 8004878:	429a      	cmp	r2, r3
 800487a:	d108      	bne.n	800488e <HAL_SPI_Transmit+0xd2>
  {
    SPI_1LINE_TX(hspi);
 800487c:	68fb      	ldr	r3, [r7, #12]
 800487e:	681b      	ldr	r3, [r3, #0]
 8004880:	681a      	ldr	r2, [r3, #0]
 8004882:	68fb      	ldr	r3, [r7, #12]
 8004884:	681b      	ldr	r3, [r3, #0]
 8004886:	2180      	movs	r1, #128	; 0x80
 8004888:	01c9      	lsls	r1, r1, #7
 800488a:	430a      	orrs	r2, r1
 800488c:	601a      	str	r2, [r3, #0]
    SPI_RESET_CRC(hspi);
  }
#endif /* USE_SPI_CRC */

  /* Check if the SPI is already enabled */
  if ((hspi->Instance->CR1 & SPI_CR1_SPE) != SPI_CR1_SPE)
 800488e:	68fb      	ldr	r3, [r7, #12]
 8004890:	681b      	ldr	r3, [r3, #0]
 8004892:	681b      	ldr	r3, [r3, #0]
 8004894:	2240      	movs	r2, #64	; 0x40
 8004896:	4013      	ands	r3, r2
 8004898:	2b40      	cmp	r3, #64	; 0x40
 800489a:	d007      	beq.n	80048ac <HAL_SPI_Transmit+0xf0>
  {
    /* Enable SPI peripheral */
    __HAL_SPI_ENABLE(hspi);
 800489c:	68fb      	ldr	r3, [r7, #12]
 800489e:	681b      	ldr	r3, [r3, #0]
 80048a0:	681a      	ldr	r2, [r3, #0]
 80048a2:	68fb      	ldr	r3, [r7, #12]
 80048a4:	681b      	ldr	r3, [r3, #0]
 80048a6:	2140      	movs	r1, #64	; 0x40
 80048a8:	430a      	orrs	r2, r1
 80048aa:	601a      	str	r2, [r3, #0]
  }

  /* Transmit data in 16 Bit mode */
  if (hspi->Init.DataSize > SPI_DATASIZE_8BIT)
 80048ac:	68fb      	ldr	r3, [r7, #12]
 80048ae:	68da      	ldr	r2, [r3, #12]
 80048b0:	23e0      	movs	r3, #224	; 0xe0
 80048b2:	00db      	lsls	r3, r3, #3
 80048b4:	429a      	cmp	r2, r3
 80048b6:	d94e      	bls.n	8004956 <HAL_SPI_Transmit+0x19a>
  {
    if ((hspi->Init.Mode == SPI_MODE_SLAVE) || (initial_TxXferCount == 0x01U))
 80048b8:	68fb      	ldr	r3, [r7, #12]
 80048ba:	685b      	ldr	r3, [r3, #4]
 80048bc:	2b00      	cmp	r3, #0
 80048be:	d004      	beq.n	80048ca <HAL_SPI_Transmit+0x10e>
 80048c0:	2316      	movs	r3, #22
 80048c2:	18fb      	adds	r3, r7, r3
 80048c4:	881b      	ldrh	r3, [r3, #0]
 80048c6:	2b01      	cmp	r3, #1
 80048c8:	d13f      	bne.n	800494a <HAL_SPI_Transmit+0x18e>
    {
      hspi->Instance->DR = *((uint16_t *)hspi->pTxBuffPtr);
 80048ca:	68fb      	ldr	r3, [r7, #12]
 80048cc:	6b9b      	ldr	r3, [r3, #56]	; 0x38
 80048ce:	881a      	ldrh	r2, [r3, #0]
 80048d0:	68fb      	ldr	r3, [r7, #12]
 80048d2:	681b      	ldr	r3, [r3, #0]
 80048d4:	60da      	str	r2, [r3, #12]
      hspi->pTxBuffPtr += sizeof(uint16_t);
 80048d6:	68fb      	ldr	r3, [r7, #12]
 80048d8:	6b9b      	ldr	r3, [r3, #56]	; 0x38
 80048da:	1c9a      	adds	r2, r3, #2
 80048dc:	68fb      	ldr	r3, [r7, #12]
 80048de:	639a      	str	r2, [r3, #56]	; 0x38
      hspi->TxXferCount--;
 80048e0:	68fb      	ldr	r3, [r7, #12]
 80048e2:	8fdb      	ldrh	r3, [r3, #62]	; 0x3e
 80048e4:	b29b      	uxth	r3, r3
 80048e6:	3b01      	subs	r3, #1
 80048e8:	b29a      	uxth	r2, r3
 80048ea:	68fb      	ldr	r3, [r7, #12]
 80048ec:	87da      	strh	r2, [r3, #62]	; 0x3e
    }
    /* Transmit data in 16 Bit mode */
    while (hspi->TxXferCount > 0U)
 80048ee:	e02c      	b.n	800494a <HAL_SPI_Transmit+0x18e>
    {
      /* Wait until TXE flag is set to send data */
      if (__HAL_SPI_GET_FLAG(hspi, SPI_FLAG_TXE))
 80048f0:	68fb      	ldr	r3, [r7, #12]
 80048f2:	681b      	ldr	r3, [r3, #0]
 80048f4:	689b      	ldr	r3, [r3, #8]
 80048f6:	2202      	movs	r2, #2
 80048f8:	4013      	ands	r3, r2
 80048fa:	2b02      	cmp	r3, #2
 80048fc:	d112      	bne.n	8004924 <HAL_SPI_Transmit+0x168>
      {
        hspi->Instance->DR = *((uint16_t *)hspi->pTxBuffPtr);
 80048fe:	68fb      	ldr	r3, [r7, #12]
 8004900:	6b9b      	ldr	r3, [r3, #56]	; 0x38
 8004902:	881a      	ldrh	r2, [r3, #0]
 8004904:	68fb      	ldr	r3, [r7, #12]
 8004906:	681b      	ldr	r3, [r3, #0]
 8004908:	60da      	str	r2, [r3, #12]
        hspi->pTxBuffPtr += sizeof(uint16_t);
 800490a:	68fb      	ldr	r3, [r7, #12]
 800490c:	6b9b      	ldr	r3, [r3, #56]	; 0x38
 800490e:	1c9a      	adds	r2, r3, #2
 8004910:	68fb      	ldr	r3, [r7, #12]
 8004912:	639a      	str	r2, [r3, #56]	; 0x38
        hspi->TxXferCount--;
 8004914:	68fb      	ldr	r3, [r7, #12]
 8004916:	8fdb      	ldrh	r3, [r3, #62]	; 0x3e
 8004918:	b29b      	uxth	r3, r3
 800491a:	3b01      	subs	r3, #1
 800491c:	b29a      	uxth	r2, r3
 800491e:	68fb      	ldr	r3, [r7, #12]
 8004920:	87da      	strh	r2, [r3, #62]	; 0x3e
 8004922:	e012      	b.n	800494a <HAL_SPI_Transmit+0x18e>
      }
      else
      {
        /* Timeout management */
        if ((((HAL_GetTick() - tickstart) >=  Timeout) && (Timeout != HAL_MAX_DELAY)) || (Timeout == 0U))
 8004924:	f7fe ff26 	bl	8003774 <HAL_GetTick>
 8004928:	0002      	movs	r2, r0
 800492a:	69bb      	ldr	r3, [r7, #24]
 800492c:	1ad3      	subs	r3, r2, r3
 800492e:	683a      	ldr	r2, [r7, #0]
 8004930:	429a      	cmp	r2, r3
 8004932:	d802      	bhi.n	800493a <HAL_SPI_Transmit+0x17e>
 8004934:	683b      	ldr	r3, [r7, #0]
 8004936:	3301      	adds	r3, #1
 8004938:	d102      	bne.n	8004940 <HAL_SPI_Transmit+0x184>
 800493a:	683b      	ldr	r3, [r7, #0]
 800493c:	2b00      	cmp	r3, #0
 800493e:	d104      	bne.n	800494a <HAL_SPI_Transmit+0x18e>
        {
          errorcode = HAL_TIMEOUT;
 8004940:	231f      	movs	r3, #31
 8004942:	18fb      	adds	r3, r7, r3
 8004944:	2203      	movs	r2, #3
 8004946:	701a      	strb	r2, [r3, #0]
          goto error;
 8004948:	e0aa      	b.n	8004aa0 <HAL_SPI_Transmit+0x2e4>
    while (hspi->TxXferCount > 0U)
 800494a:	68fb      	ldr	r3, [r7, #12]
 800494c:	8fdb      	ldrh	r3, [r3, #62]	; 0x3e
 800494e:	b29b      	uxth	r3, r3
 8004950:	2b00      	cmp	r3, #0
 8004952:	d1cd      	bne.n	80048f0 <HAL_SPI_Transmit+0x134>
 8004954:	e080      	b.n	8004a58 <HAL_SPI_Transmit+0x29c>
    }
  }
  /* Transmit data in 8 Bit mode */
  else
  {
    if ((hspi->Init.Mode == SPI_MODE_SLAVE) || (initial_TxXferCount == 0x01U))
 8004956:	68fb      	ldr	r3, [r7, #12]
 8004958:	685b      	ldr	r3, [r3, #4]
 800495a:	2b00      	cmp	r3, #0
 800495c:	d005      	beq.n	800496a <HAL_SPI_Transmit+0x1ae>
 800495e:	2316      	movs	r3, #22
 8004960:	18fb      	adds	r3, r7, r3
 8004962:	881b      	ldrh	r3, [r3, #0]
 8004964:	2b01      	cmp	r3, #1
 8004966:	d000      	beq.n	800496a <HAL_SPI_Transmit+0x1ae>
 8004968:	e071      	b.n	8004a4e <HAL_SPI_Transmit+0x292>
    {
      if (hspi->TxXferCount > 1U)
 800496a:	68fb      	ldr	r3, [r7, #12]
 800496c:	8fdb      	ldrh	r3, [r3, #62]	; 0x3e
 800496e:	b29b      	uxth	r3, r3
 8004970:	2b01      	cmp	r3, #1
 8004972:	d912      	bls.n	800499a <HAL_SPI_Transmit+0x1de>
      {
        /* write on the data register in packing mode */
        hspi->Instance->DR = *((uint16_t *)hspi->pTxBuffPtr);
 8004974:	68fb      	ldr	r3, [r7, #12]
 8004976:	6b9b      	ldr	r3, [r3, #56]	; 0x38
 8004978:	881a      	ldrh	r2, [r3, #0]
 800497a:	68fb      	ldr	r3, [r7, #12]
 800497c:	681b      	ldr	r3, [r3, #0]
 800497e:	60da      	str	r2, [r3, #12]
        hspi->pTxBuffPtr += sizeof(uint16_t);
 8004980:	68fb      	ldr	r3, [r7, #12]
 8004982:	6b9b      	ldr	r3, [r3, #56]	; 0x38
 8004984:	1c9a      	adds	r2, r3, #2
 8004986:	68fb      	ldr	r3, [r7, #12]
 8004988:	639a      	str	r2, [r3, #56]	; 0x38
        hspi->TxXferCount -= 2U;
 800498a:	68fb      	ldr	r3, [r7, #12]
 800498c:	8fdb      	ldrh	r3, [r3, #62]	; 0x3e
 800498e:	b29b      	uxth	r3, r3
 8004990:	3b02      	subs	r3, #2
 8004992:	b29a      	uxth	r2, r3
 8004994:	68fb      	ldr	r3, [r7, #12]
 8004996:	87da      	strh	r2, [r3, #62]	; 0x3e
 8004998:	e059      	b.n	8004a4e <HAL_SPI_Transmit+0x292>
      }
      else
      {
        *((__IO uint8_t *)&hspi->Instance->DR) = (*hspi->pTxBuffPtr);
 800499a:	68fb      	ldr	r3, [r7, #12]
 800499c:	6b9a      	ldr	r2, [r3, #56]	; 0x38
 800499e:	68fb      	ldr	r3, [r7, #12]
 80049a0:	681b      	ldr	r3, [r3, #0]
 80049a2:	330c      	adds	r3, #12
 80049a4:	7812      	ldrb	r2, [r2, #0]
 80049a6:	701a      	strb	r2, [r3, #0]
        hspi->pTxBuffPtr ++;
 80049a8:	68fb      	ldr	r3, [r7, #12]
 80049aa:	6b9b      	ldr	r3, [r3, #56]	; 0x38
 80049ac:	1c5a      	adds	r2, r3, #1
 80049ae:	68fb      	ldr	r3, [r7, #12]
 80049b0:	639a      	str	r2, [r3, #56]	; 0x38
        hspi->TxXferCount--;
 80049b2:	68fb      	ldr	r3, [r7, #12]
 80049b4:	8fdb      	ldrh	r3, [r3, #62]	; 0x3e
 80049b6:	b29b      	uxth	r3, r3
 80049b8:	3b01      	subs	r3, #1
 80049ba:	b29a      	uxth	r2, r3
 80049bc:	68fb      	ldr	r3, [r7, #12]
 80049be:	87da      	strh	r2, [r3, #62]	; 0x3e
      }
    }
    while (hspi->TxXferCount > 0U)
 80049c0:	e045      	b.n	8004a4e <HAL_SPI_Transmit+0x292>
    {
      /* Wait until TXE flag is set to send data */
      if (__HAL_SPI_GET_FLAG(hspi, SPI_FLAG_TXE))
 80049c2:	68fb      	ldr	r3, [r7, #12]
 80049c4:	681b      	ldr	r3, [r3, #0]
 80049c6:	689b      	ldr	r3, [r3, #8]
 80049c8:	2202      	movs	r2, #2
 80049ca:	4013      	ands	r3, r2
 80049cc:	2b02      	cmp	r3, #2
 80049ce:	d12b      	bne.n	8004a28 <HAL_SPI_Transmit+0x26c>
      {
        if (hspi->TxXferCount > 1U)
 80049d0:	68fb      	ldr	r3, [r7, #12]
 80049d2:	8fdb      	ldrh	r3, [r3, #62]	; 0x3e
 80049d4:	b29b      	uxth	r3, r3
 80049d6:	2b01      	cmp	r3, #1
 80049d8:	d912      	bls.n	8004a00 <HAL_SPI_Transmit+0x244>
        {
          /* write on the data register in packing mode */
          hspi->Instance->DR = *((uint16_t *)hspi->pTxBuffPtr);
 80049da:	68fb      	ldr	r3, [r7, #12]
 80049dc:	6b9b      	ldr	r3, [r3, #56]	; 0x38
 80049de:	881a      	ldrh	r2, [r3, #0]
 80049e0:	68fb      	ldr	r3, [r7, #12]
 80049e2:	681b      	ldr	r3, [r3, #0]
 80049e4:	60da      	str	r2, [r3, #12]
          hspi->pTxBuffPtr += sizeof(uint16_t);
 80049e6:	68fb      	ldr	r3, [r7, #12]
 80049e8:	6b9b      	ldr	r3, [r3, #56]	; 0x38
 80049ea:	1c9a      	adds	r2, r3, #2
 80049ec:	68fb      	ldr	r3, [r7, #12]
 80049ee:	639a      	str	r2, [r3, #56]	; 0x38
          hspi->TxXferCount -= 2U;
 80049f0:	68fb      	ldr	r3, [r7, #12]
 80049f2:	8fdb      	ldrh	r3, [r3, #62]	; 0x3e
 80049f4:	b29b      	uxth	r3, r3
 80049f6:	3b02      	subs	r3, #2
 80049f8:	b29a      	uxth	r2, r3
 80049fa:	68fb      	ldr	r3, [r7, #12]
 80049fc:	87da      	strh	r2, [r3, #62]	; 0x3e
 80049fe:	e026      	b.n	8004a4e <HAL_SPI_Transmit+0x292>
        }
        else
        {
          *((__IO uint8_t *)&hspi->Instance->DR) = (*hspi->pTxBuffPtr);
 8004a00:	68fb      	ldr	r3, [r7, #12]
 8004a02:	6b9a      	ldr	r2, [r3, #56]	; 0x38
 8004a04:	68fb      	ldr	r3, [r7, #12]
 8004a06:	681b      	ldr	r3, [r3, #0]
 8004a08:	330c      	adds	r3, #12
 8004a0a:	7812      	ldrb	r2, [r2, #0]
 8004a0c:	701a      	strb	r2, [r3, #0]
          hspi->pTxBuffPtr++;
 8004a0e:	68fb      	ldr	r3, [r7, #12]
 8004a10:	6b9b      	ldr	r3, [r3, #56]	; 0x38
 8004a12:	1c5a      	adds	r2, r3, #1
 8004a14:	68fb      	ldr	r3, [r7, #12]
 8004a16:	639a      	str	r2, [r3, #56]	; 0x38
          hspi->TxXferCount--;
 8004a18:	68fb      	ldr	r3, [r7, #12]
 8004a1a:	8fdb      	ldrh	r3, [r3, #62]	; 0x3e
 8004a1c:	b29b      	uxth	r3, r3
 8004a1e:	3b01      	subs	r3, #1
 8004a20:	b29a      	uxth	r2, r3
 8004a22:	68fb      	ldr	r3, [r7, #12]
 8004a24:	87da      	strh	r2, [r3, #62]	; 0x3e
 8004a26:	e012      	b.n	8004a4e <HAL_SPI_Transmit+0x292>
        }
      }
      else
      {
        /* Timeout management */
        if ((((HAL_GetTick() - tickstart) >=  Timeout) && (Timeout != HAL_MAX_DELAY)) || (Timeout == 0U))
 8004a28:	f7fe fea4 	bl	8003774 <HAL_GetTick>
 8004a2c:	0002      	movs	r2, r0
 8004a2e:	69bb      	ldr	r3, [r7, #24]
 8004a30:	1ad3      	subs	r3, r2, r3
 8004a32:	683a      	ldr	r2, [r7, #0]
 8004a34:	429a      	cmp	r2, r3
 8004a36:	d802      	bhi.n	8004a3e <HAL_SPI_Transmit+0x282>
 8004a38:	683b      	ldr	r3, [r7, #0]
 8004a3a:	3301      	adds	r3, #1
 8004a3c:	d102      	bne.n	8004a44 <HAL_SPI_Transmit+0x288>
 8004a3e:	683b      	ldr	r3, [r7, #0]
 8004a40:	2b00      	cmp	r3, #0
 8004a42:	d104      	bne.n	8004a4e <HAL_SPI_Transmit+0x292>
        {
          errorcode = HAL_TIMEOUT;
 8004a44:	231f      	movs	r3, #31
 8004a46:	18fb      	adds	r3, r7, r3
 8004a48:	2203      	movs	r2, #3
 8004a4a:	701a      	strb	r2, [r3, #0]
          goto error;
 8004a4c:	e028      	b.n	8004aa0 <HAL_SPI_Transmit+0x2e4>
    while (hspi->TxXferCount > 0U)
 8004a4e:	68fb      	ldr	r3, [r7, #12]
 8004a50:	8fdb      	ldrh	r3, [r3, #62]	; 0x3e
 8004a52:	b29b      	uxth	r3, r3
 8004a54:	2b00      	cmp	r3, #0
 8004a56:	d1b4      	bne.n	80049c2 <HAL_SPI_Transmit+0x206>
    SET_BIT(hspi->Instance->CR1, SPI_CR1_CRCNEXT);
  }
#endif /* USE_SPI_CRC */

  /* Check the end of the transaction */
  if (SPI_EndRxTxTransaction(hspi, Timeout, tickstart) != HAL_OK)
 8004a58:	69ba      	ldr	r2, [r7, #24]
 8004a5a:	6839      	ldr	r1, [r7, #0]
 8004a5c:	68fb      	ldr	r3, [r7, #12]
 8004a5e:	0018      	movs	r0, r3
 8004a60:	f001 fa64 	bl	8005f2c <SPI_EndRxTxTransaction>
 8004a64:	1e03      	subs	r3, r0, #0
 8004a66:	d002      	beq.n	8004a6e <HAL_SPI_Transmit+0x2b2>
  {
    hspi->ErrorCode = HAL_SPI_ERROR_FLAG;
 8004a68:	68fb      	ldr	r3, [r7, #12]
 8004a6a:	2220      	movs	r2, #32
 8004a6c:	661a      	str	r2, [r3, #96]	; 0x60
  }

  /* Clear overrun flag in 2 Lines communication mode because received is not read */
  if (hspi->Init.Direction == SPI_DIRECTION_2LINES)
 8004a6e:	68fb      	ldr	r3, [r7, #12]
 8004a70:	689b      	ldr	r3, [r3, #8]
 8004a72:	2b00      	cmp	r3, #0
 8004a74:	d10a      	bne.n	8004a8c <HAL_SPI_Transmit+0x2d0>
  {
    __HAL_SPI_CLEAR_OVRFLAG(hspi);
 8004a76:	2300      	movs	r3, #0
 8004a78:	613b      	str	r3, [r7, #16]
 8004a7a:	68fb      	ldr	r3, [r7, #12]
 8004a7c:	681b      	ldr	r3, [r3, #0]
 8004a7e:	68db      	ldr	r3, [r3, #12]
 8004a80:	613b      	str	r3, [r7, #16]
 8004a82:	68fb      	ldr	r3, [r7, #12]
 8004a84:	681b      	ldr	r3, [r3, #0]
 8004a86:	689b      	ldr	r3, [r3, #8]
 8004a88:	613b      	str	r3, [r7, #16]
 8004a8a:	693b      	ldr	r3, [r7, #16]
  }

  if (hspi->ErrorCode != HAL_SPI_ERROR_NONE)
 8004a8c:	68fb      	ldr	r3, [r7, #12]
 8004a8e:	6e1b      	ldr	r3, [r3, #96]	; 0x60
 8004a90:	2b00      	cmp	r3, #0
 8004a92:	d004      	beq.n	8004a9e <HAL_SPI_Transmit+0x2e2>
  {
    errorcode = HAL_ERROR;
 8004a94:	231f      	movs	r3, #31
 8004a96:	18fb      	adds	r3, r7, r3
 8004a98:	2201      	movs	r2, #1
 8004a9a:	701a      	strb	r2, [r3, #0]
 8004a9c:	e000      	b.n	8004aa0 <HAL_SPI_Transmit+0x2e4>
  }

error:
 8004a9e:	46c0      	nop			; (mov r8, r8)
  hspi->State = HAL_SPI_STATE_READY;
 8004aa0:	68fb      	ldr	r3, [r7, #12]
 8004aa2:	225d      	movs	r2, #93	; 0x5d
 8004aa4:	2101      	movs	r1, #1
 8004aa6:	5499      	strb	r1, [r3, r2]
  /* Process Unlocked */
  __HAL_UNLOCK(hspi);
 8004aa8:	68fb      	ldr	r3, [r7, #12]
 8004aaa:	225c      	movs	r2, #92	; 0x5c
 8004aac:	2100      	movs	r1, #0
 8004aae:	5499      	strb	r1, [r3, r2]
  return errorcode;
 8004ab0:	231f      	movs	r3, #31
 8004ab2:	18fb      	adds	r3, r7, r3
 8004ab4:	781b      	ldrb	r3, [r3, #0]
}
 8004ab6:	0018      	movs	r0, r3
 8004ab8:	46bd      	mov	sp, r7
 8004aba:	b008      	add	sp, #32
 8004abc:	bd80      	pop	{r7, pc}
	...

08004ac0 <HAL_SPI_Receive>:
  * @param  Size amount of data to be received
  * @param  Timeout Timeout duration
  * @retval HAL status
  */
HAL_StatusTypeDef HAL_SPI_Receive(SPI_HandleTypeDef *hspi, uint8_t *pData, uint16_t Size, uint32_t Timeout)
{
 8004ac0:	b590      	push	{r4, r7, lr}
 8004ac2:	b089      	sub	sp, #36	; 0x24
 8004ac4:	af02      	add	r7, sp, #8
 8004ac6:	60f8      	str	r0, [r7, #12]
 8004ac8:	60b9      	str	r1, [r7, #8]
 8004aca:	603b      	str	r3, [r7, #0]
 8004acc:	1dbb      	adds	r3, r7, #6
 8004ace:	801a      	strh	r2, [r3, #0]
  uint32_t tickstart;
  HAL_StatusTypeDef errorcode = HAL_OK;
 8004ad0:	2317      	movs	r3, #23
 8004ad2:	18fb      	adds	r3, r7, r3
 8004ad4:	2200      	movs	r2, #0
 8004ad6:	701a      	strb	r2, [r3, #0]
    /* in this case, 16-bit access is performed on Data
       So, check Data is 16-bit aligned address */
    assert_param(IS_SPI_16BIT_ALIGNED_ADDRESS(pData));
  }

  if ((hspi->Init.Mode == SPI_MODE_MASTER) && (hspi->Init.Direction == SPI_DIRECTION_2LINES))
 8004ad8:	68fb      	ldr	r3, [r7, #12]
 8004ada:	685a      	ldr	r2, [r3, #4]
 8004adc:	2382      	movs	r3, #130	; 0x82
 8004ade:	005b      	lsls	r3, r3, #1
 8004ae0:	429a      	cmp	r2, r3
 8004ae2:	d113      	bne.n	8004b0c <HAL_SPI_Receive+0x4c>
 8004ae4:	68fb      	ldr	r3, [r7, #12]
 8004ae6:	689b      	ldr	r3, [r3, #8]
 8004ae8:	2b00      	cmp	r3, #0
 8004aea:	d10f      	bne.n	8004b0c <HAL_SPI_Receive+0x4c>
  {
    hspi->State = HAL_SPI_STATE_BUSY_RX;
 8004aec:	68fb      	ldr	r3, [r7, #12]
 8004aee:	225d      	movs	r2, #93	; 0x5d
 8004af0:	2104      	movs	r1, #4
 8004af2:	5499      	strb	r1, [r3, r2]
    /* Call transmit-receive function to send Dummy data on Tx line and generate clock on CLK line */
    return HAL_SPI_TransmitReceive(hspi, pData, pData, Size, Timeout);
 8004af4:	1dbb      	adds	r3, r7, #6
 8004af6:	881c      	ldrh	r4, [r3, #0]
 8004af8:	68ba      	ldr	r2, [r7, #8]
 8004afa:	68b9      	ldr	r1, [r7, #8]
 8004afc:	68f8      	ldr	r0, [r7, #12]
 8004afe:	683b      	ldr	r3, [r7, #0]
 8004b00:	9300      	str	r3, [sp, #0]
 8004b02:	0023      	movs	r3, r4
 8004b04:	f000 f920 	bl	8004d48 <HAL_SPI_TransmitReceive>
 8004b08:	0003      	movs	r3, r0
 8004b0a:	e114      	b.n	8004d36 <HAL_SPI_Receive+0x276>
  }

  /* Process Locked */
  __HAL_LOCK(hspi);
 8004b0c:	68fb      	ldr	r3, [r7, #12]
 8004b0e:	225c      	movs	r2, #92	; 0x5c
 8004b10:	5c9b      	ldrb	r3, [r3, r2]
 8004b12:	2b01      	cmp	r3, #1
 8004b14:	d101      	bne.n	8004b1a <HAL_SPI_Receive+0x5a>
 8004b16:	2302      	movs	r3, #2
 8004b18:	e10d      	b.n	8004d36 <HAL_SPI_Receive+0x276>
 8004b1a:	68fb      	ldr	r3, [r7, #12]
 8004b1c:	225c      	movs	r2, #92	; 0x5c
 8004b1e:	2101      	movs	r1, #1
 8004b20:	5499      	strb	r1, [r3, r2]

  /* Init tickstart for timeout management*/
  tickstart = HAL_GetTick();
 8004b22:	f7fe fe27 	bl	8003774 <HAL_GetTick>
 8004b26:	0003      	movs	r3, r0
 8004b28:	613b      	str	r3, [r7, #16]

  if (hspi->State != HAL_SPI_STATE_READY)
 8004b2a:	68fb      	ldr	r3, [r7, #12]
 8004b2c:	225d      	movs	r2, #93	; 0x5d
 8004b2e:	5c9b      	ldrb	r3, [r3, r2]
 8004b30:	b2db      	uxtb	r3, r3
 8004b32:	2b01      	cmp	r3, #1
 8004b34:	d004      	beq.n	8004b40 <HAL_SPI_Receive+0x80>
  {
    errorcode = HAL_BUSY;
 8004b36:	2317      	movs	r3, #23
 8004b38:	18fb      	adds	r3, r7, r3
 8004b3a:	2202      	movs	r2, #2
 8004b3c:	701a      	strb	r2, [r3, #0]
    goto error;
 8004b3e:	e0ef      	b.n	8004d20 <HAL_SPI_Receive+0x260>
  }

  if ((pData == NULL) || (Size == 0U))
 8004b40:	68bb      	ldr	r3, [r7, #8]
 8004b42:	2b00      	cmp	r3, #0
 8004b44:	d003      	beq.n	8004b4e <HAL_SPI_Receive+0x8e>
 8004b46:	1dbb      	adds	r3, r7, #6
 8004b48:	881b      	ldrh	r3, [r3, #0]
 8004b4a:	2b00      	cmp	r3, #0
 8004b4c:	d104      	bne.n	8004b58 <HAL_SPI_Receive+0x98>
  {
    errorcode = HAL_ERROR;
 8004b4e:	2317      	movs	r3, #23
 8004b50:	18fb      	adds	r3, r7, r3
 8004b52:	2201      	movs	r2, #1
 8004b54:	701a      	strb	r2, [r3, #0]
    goto error;
 8004b56:	e0e3      	b.n	8004d20 <HAL_SPI_Receive+0x260>
  }

  /* Set the transaction information */
  hspi->State       = HAL_SPI_STATE_BUSY_RX;
 8004b58:	68fb      	ldr	r3, [r7, #12]
 8004b5a:	225d      	movs	r2, #93	; 0x5d
 8004b5c:	2104      	movs	r1, #4
 8004b5e:	5499      	strb	r1, [r3, r2]
  hspi->ErrorCode   = HAL_SPI_ERROR_NONE;
 8004b60:	68fb      	ldr	r3, [r7, #12]
 8004b62:	2200      	movs	r2, #0
 8004b64:	661a      	str	r2, [r3, #96]	; 0x60
  hspi->pRxBuffPtr  = (uint8_t *)pData;
 8004b66:	68fb      	ldr	r3, [r7, #12]
 8004b68:	68ba      	ldr	r2, [r7, #8]
 8004b6a:	641a      	str	r2, [r3, #64]	; 0x40
  hspi->RxXferSize  = Size;
 8004b6c:	68fb      	ldr	r3, [r7, #12]
 8004b6e:	1dba      	adds	r2, r7, #6
 8004b70:	2144      	movs	r1, #68	; 0x44
 8004b72:	8812      	ldrh	r2, [r2, #0]
 8004b74:	525a      	strh	r2, [r3, r1]
  hspi->RxXferCount = Size;
 8004b76:	68fb      	ldr	r3, [r7, #12]
 8004b78:	1dba      	adds	r2, r7, #6
 8004b7a:	2146      	movs	r1, #70	; 0x46
 8004b7c:	8812      	ldrh	r2, [r2, #0]
 8004b7e:	525a      	strh	r2, [r3, r1]

  /*Init field not used in handle to zero */
  hspi->pTxBuffPtr  = (uint8_t *)NULL;
 8004b80:	68fb      	ldr	r3, [r7, #12]
 8004b82:	2200      	movs	r2, #0
 8004b84:	639a      	str	r2, [r3, #56]	; 0x38
  hspi->TxXferSize  = 0U;
 8004b86:	68fb      	ldr	r3, [r7, #12]
 8004b88:	2200      	movs	r2, #0
 8004b8a:	879a      	strh	r2, [r3, #60]	; 0x3c
  hspi->TxXferCount = 0U;
 8004b8c:	68fb      	ldr	r3, [r7, #12]
 8004b8e:	2200      	movs	r2, #0
 8004b90:	87da      	strh	r2, [r3, #62]	; 0x3e
  hspi->RxISR       = NULL;
 8004b92:	68fb      	ldr	r3, [r7, #12]
 8004b94:	2200      	movs	r2, #0
 8004b96:	64da      	str	r2, [r3, #76]	; 0x4c
  hspi->TxISR       = NULL;
 8004b98:	68fb      	ldr	r3, [r7, #12]
 8004b9a:	2200      	movs	r2, #0
 8004b9c:	651a      	str	r2, [r3, #80]	; 0x50
    hspi->RxXferCount--;
  }
#endif /* USE_SPI_CRC */

  /* Set the Rx Fifo threshold */
  if (hspi->Init.DataSize > SPI_DATASIZE_8BIT)
 8004b9e:	68fb      	ldr	r3, [r7, #12]
 8004ba0:	68da      	ldr	r2, [r3, #12]
 8004ba2:	23e0      	movs	r3, #224	; 0xe0
 8004ba4:	00db      	lsls	r3, r3, #3
 8004ba6:	429a      	cmp	r2, r3
 8004ba8:	d908      	bls.n	8004bbc <HAL_SPI_Receive+0xfc>
  {
    /* Set RX Fifo threshold according the reception data length: 16bit */
    CLEAR_BIT(hspi->Instance->CR2, SPI_RXFIFO_THRESHOLD);
 8004baa:	68fb      	ldr	r3, [r7, #12]
 8004bac:	681b      	ldr	r3, [r3, #0]
 8004bae:	685a      	ldr	r2, [r3, #4]
 8004bb0:	68fb      	ldr	r3, [r7, #12]
 8004bb2:	681b      	ldr	r3, [r3, #0]
 8004bb4:	4962      	ldr	r1, [pc, #392]	; (8004d40 <HAL_SPI_Receive+0x280>)
 8004bb6:	400a      	ands	r2, r1
 8004bb8:	605a      	str	r2, [r3, #4]
 8004bba:	e008      	b.n	8004bce <HAL_SPI_Receive+0x10e>
  }
  else
  {
    /* Set RX Fifo threshold according the reception data length: 8bit */
    SET_BIT(hspi->Instance->CR2, SPI_RXFIFO_THRESHOLD);
 8004bbc:	68fb      	ldr	r3, [r7, #12]
 8004bbe:	681b      	ldr	r3, [r3, #0]
 8004bc0:	685a      	ldr	r2, [r3, #4]
 8004bc2:	68fb      	ldr	r3, [r7, #12]
 8004bc4:	681b      	ldr	r3, [r3, #0]
 8004bc6:	2180      	movs	r1, #128	; 0x80
 8004bc8:	0149      	lsls	r1, r1, #5
 8004bca:	430a      	orrs	r2, r1
 8004bcc:	605a      	str	r2, [r3, #4]
  }

  /* Configure communication direction: 1Line */
  if (hspi->Init.Direction == SPI_DIRECTION_1LINE)
 8004bce:	68fb      	ldr	r3, [r7, #12]
 8004bd0:	689a      	ldr	r2, [r3, #8]
 8004bd2:	2380      	movs	r3, #128	; 0x80
 8004bd4:	021b      	lsls	r3, r3, #8
 8004bd6:	429a      	cmp	r2, r3
 8004bd8:	d107      	bne.n	8004bea <HAL_SPI_Receive+0x12a>
  {
    SPI_1LINE_RX(hspi);
 8004bda:	68fb      	ldr	r3, [r7, #12]
 8004bdc:	681b      	ldr	r3, [r3, #0]
 8004bde:	681a      	ldr	r2, [r3, #0]
 8004be0:	68fb      	ldr	r3, [r7, #12]
 8004be2:	681b      	ldr	r3, [r3, #0]
 8004be4:	4957      	ldr	r1, [pc, #348]	; (8004d44 <HAL_SPI_Receive+0x284>)
 8004be6:	400a      	ands	r2, r1
 8004be8:	601a      	str	r2, [r3, #0]
  }

  /* Check if the SPI is already enabled */
  if ((hspi->Instance->CR1 & SPI_CR1_SPE) != SPI_CR1_SPE)
 8004bea:	68fb      	ldr	r3, [r7, #12]
 8004bec:	681b      	ldr	r3, [r3, #0]
 8004bee:	681b      	ldr	r3, [r3, #0]
 8004bf0:	2240      	movs	r2, #64	; 0x40
 8004bf2:	4013      	ands	r3, r2
 8004bf4:	2b40      	cmp	r3, #64	; 0x40
 8004bf6:	d007      	beq.n	8004c08 <HAL_SPI_Receive+0x148>
  {
    /* Enable SPI peripheral */
    __HAL_SPI_ENABLE(hspi);
 8004bf8:	68fb      	ldr	r3, [r7, #12]
 8004bfa:	681b      	ldr	r3, [r3, #0]
 8004bfc:	681a      	ldr	r2, [r3, #0]
 8004bfe:	68fb      	ldr	r3, [r7, #12]
 8004c00:	681b      	ldr	r3, [r3, #0]
 8004c02:	2140      	movs	r1, #64	; 0x40
 8004c04:	430a      	orrs	r2, r1
 8004c06:	601a      	str	r2, [r3, #0]
  }

  /* Receive data in 8 Bit mode */
  if (hspi->Init.DataSize <= SPI_DATASIZE_8BIT)
 8004c08:	68fb      	ldr	r3, [r7, #12]
 8004c0a:	68da      	ldr	r2, [r3, #12]
 8004c0c:	23e0      	movs	r3, #224	; 0xe0
 8004c0e:	00db      	lsls	r3, r3, #3
 8004c10:	429a      	cmp	r2, r3
 8004c12:	d900      	bls.n	8004c16 <HAL_SPI_Receive+0x156>
 8004c14:	e069      	b.n	8004cea <HAL_SPI_Receive+0x22a>
  {
    /* Transfer loop */
    while (hspi->RxXferCount > 0U)
 8004c16:	e031      	b.n	8004c7c <HAL_SPI_Receive+0x1bc>
    {
      /* Check the RXNE flag */
      if (__HAL_SPI_GET_FLAG(hspi, SPI_FLAG_RXNE))
 8004c18:	68fb      	ldr	r3, [r7, #12]
 8004c1a:	681b      	ldr	r3, [r3, #0]
 8004c1c:	689b      	ldr	r3, [r3, #8]
 8004c1e:	2201      	movs	r2, #1
 8004c20:	4013      	ands	r3, r2
 8004c22:	2b01      	cmp	r3, #1
 8004c24:	d117      	bne.n	8004c56 <HAL_SPI_Receive+0x196>
      {
        /* read the received data */
        (* (uint8_t *)hspi->pRxBuffPtr) = *(__IO uint8_t *)&hspi->Instance->DR;
 8004c26:	68fb      	ldr	r3, [r7, #12]
 8004c28:	681b      	ldr	r3, [r3, #0]
 8004c2a:	330c      	adds	r3, #12
 8004c2c:	001a      	movs	r2, r3
 8004c2e:	68fb      	ldr	r3, [r7, #12]
 8004c30:	6c1b      	ldr	r3, [r3, #64]	; 0x40
 8004c32:	7812      	ldrb	r2, [r2, #0]
 8004c34:	b2d2      	uxtb	r2, r2
 8004c36:	701a      	strb	r2, [r3, #0]
        hspi->pRxBuffPtr += sizeof(uint8_t);
 8004c38:	68fb      	ldr	r3, [r7, #12]
 8004c3a:	6c1b      	ldr	r3, [r3, #64]	; 0x40
 8004c3c:	1c5a      	adds	r2, r3, #1
 8004c3e:	68fb      	ldr	r3, [r7, #12]
 8004c40:	641a      	str	r2, [r3, #64]	; 0x40
        hspi->RxXferCount--;
 8004c42:	68fb      	ldr	r3, [r7, #12]
 8004c44:	2246      	movs	r2, #70	; 0x46
 8004c46:	5a9b      	ldrh	r3, [r3, r2]
 8004c48:	b29b      	uxth	r3, r3
 8004c4a:	3b01      	subs	r3, #1
 8004c4c:	b299      	uxth	r1, r3
 8004c4e:	68fb      	ldr	r3, [r7, #12]
 8004c50:	2246      	movs	r2, #70	; 0x46
 8004c52:	5299      	strh	r1, [r3, r2]
 8004c54:	e012      	b.n	8004c7c <HAL_SPI_Receive+0x1bc>
      }
      else
      {
        /* Timeout management */
        if ((((HAL_GetTick() - tickstart) >=  Timeout) && (Timeout != HAL_MAX_DELAY)) || (Timeout == 0U))
 8004c56:	f7fe fd8d 	bl	8003774 <HAL_GetTick>
 8004c5a:	0002      	movs	r2, r0
 8004c5c:	693b      	ldr	r3, [r7, #16]
 8004c5e:	1ad3      	subs	r3, r2, r3
 8004c60:	683a      	ldr	r2, [r7, #0]
 8004c62:	429a      	cmp	r2, r3
 8004c64:	d802      	bhi.n	8004c6c <HAL_SPI_Receive+0x1ac>
 8004c66:	683b      	ldr	r3, [r7, #0]
 8004c68:	3301      	adds	r3, #1
 8004c6a:	d102      	bne.n	8004c72 <HAL_SPI_Receive+0x1b2>
 8004c6c:	683b      	ldr	r3, [r7, #0]
 8004c6e:	2b00      	cmp	r3, #0
 8004c70:	d104      	bne.n	8004c7c <HAL_SPI_Receive+0x1bc>
        {
          errorcode = HAL_TIMEOUT;
 8004c72:	2317      	movs	r3, #23
 8004c74:	18fb      	adds	r3, r7, r3
 8004c76:	2203      	movs	r2, #3
 8004c78:	701a      	strb	r2, [r3, #0]
          goto error;
 8004c7a:	e051      	b.n	8004d20 <HAL_SPI_Receive+0x260>
    while (hspi->RxXferCount > 0U)
 8004c7c:	68fb      	ldr	r3, [r7, #12]
 8004c7e:	2246      	movs	r2, #70	; 0x46
 8004c80:	5a9b      	ldrh	r3, [r3, r2]
 8004c82:	b29b      	uxth	r3, r3
 8004c84:	2b00      	cmp	r3, #0
 8004c86:	d1c7      	bne.n	8004c18 <HAL_SPI_Receive+0x158>
 8004c88:	e035      	b.n	8004cf6 <HAL_SPI_Receive+0x236>
  {
    /* Transfer loop */
    while (hspi->RxXferCount > 0U)
    {
      /* Check the RXNE flag */
      if (__HAL_SPI_GET_FLAG(hspi, SPI_FLAG_RXNE))
 8004c8a:	68fb      	ldr	r3, [r7, #12]
 8004c8c:	681b      	ldr	r3, [r3, #0]
 8004c8e:	689b      	ldr	r3, [r3, #8]
 8004c90:	2201      	movs	r2, #1
 8004c92:	4013      	ands	r3, r2
 8004c94:	2b01      	cmp	r3, #1
 8004c96:	d115      	bne.n	8004cc4 <HAL_SPI_Receive+0x204>
      {
        *((uint16_t *)hspi->pRxBuffPtr) = (uint16_t)hspi->Instance->DR;
 8004c98:	68fb      	ldr	r3, [r7, #12]
 8004c9a:	681b      	ldr	r3, [r3, #0]
 8004c9c:	68da      	ldr	r2, [r3, #12]
 8004c9e:	68fb      	ldr	r3, [r7, #12]
 8004ca0:	6c1b      	ldr	r3, [r3, #64]	; 0x40
 8004ca2:	b292      	uxth	r2, r2
 8004ca4:	801a      	strh	r2, [r3, #0]
        hspi->pRxBuffPtr += sizeof(uint16_t);
 8004ca6:	68fb      	ldr	r3, [r7, #12]
 8004ca8:	6c1b      	ldr	r3, [r3, #64]	; 0x40
 8004caa:	1c9a      	adds	r2, r3, #2
 8004cac:	68fb      	ldr	r3, [r7, #12]
 8004cae:	641a      	str	r2, [r3, #64]	; 0x40
        hspi->RxXferCount--;
 8004cb0:	68fb      	ldr	r3, [r7, #12]
 8004cb2:	2246      	movs	r2, #70	; 0x46
 8004cb4:	5a9b      	ldrh	r3, [r3, r2]
 8004cb6:	b29b      	uxth	r3, r3
 8004cb8:	3b01      	subs	r3, #1
 8004cba:	b299      	uxth	r1, r3
 8004cbc:	68fb      	ldr	r3, [r7, #12]
 8004cbe:	2246      	movs	r2, #70	; 0x46
 8004cc0:	5299      	strh	r1, [r3, r2]
 8004cc2:	e012      	b.n	8004cea <HAL_SPI_Receive+0x22a>
      }
      else
      {
        /* Timeout management */
        if ((((HAL_GetTick() - tickstart) >=  Timeout) && (Timeout != HAL_MAX_DELAY)) || (Timeout == 0U))
 8004cc4:	f7fe fd56 	bl	8003774 <HAL_GetTick>
 8004cc8:	0002      	movs	r2, r0
 8004cca:	693b      	ldr	r3, [r7, #16]
 8004ccc:	1ad3      	subs	r3, r2, r3
 8004cce:	683a      	ldr	r2, [r7, #0]
 8004cd0:	429a      	cmp	r2, r3
 8004cd2:	d802      	bhi.n	8004cda <HAL_SPI_Receive+0x21a>
 8004cd4:	683b      	ldr	r3, [r7, #0]
 8004cd6:	3301      	adds	r3, #1
 8004cd8:	d102      	bne.n	8004ce0 <HAL_SPI_Receive+0x220>
 8004cda:	683b      	ldr	r3, [r7, #0]
 8004cdc:	2b00      	cmp	r3, #0
 8004cde:	d104      	bne.n	8004cea <HAL_SPI_Receive+0x22a>
        {
          errorcode = HAL_TIMEOUT;
 8004ce0:	2317      	movs	r3, #23
 8004ce2:	18fb      	adds	r3, r7, r3
 8004ce4:	2203      	movs	r2, #3
 8004ce6:	701a      	strb	r2, [r3, #0]
          goto error;
 8004ce8:	e01a      	b.n	8004d20 <HAL_SPI_Receive+0x260>
    while (hspi->RxXferCount > 0U)
 8004cea:	68fb      	ldr	r3, [r7, #12]
 8004cec:	2246      	movs	r2, #70	; 0x46
 8004cee:	5a9b      	ldrh	r3, [r3, r2]
 8004cf0:	b29b      	uxth	r3, r3
 8004cf2:	2b00      	cmp	r3, #0
 8004cf4:	d1c9      	bne.n	8004c8a <HAL_SPI_Receive+0x1ca>
    }
  }
#endif /* USE_SPI_CRC */

  /* Check the end of the transaction */
  if (SPI_EndRxTransaction(hspi, Timeout, tickstart) != HAL_OK)
 8004cf6:	693a      	ldr	r2, [r7, #16]
 8004cf8:	6839      	ldr	r1, [r7, #0]
 8004cfa:	68fb      	ldr	r3, [r7, #12]
 8004cfc:	0018      	movs	r0, r3
 8004cfe:	f001 f8b7 	bl	8005e70 <SPI_EndRxTransaction>
 8004d02:	1e03      	subs	r3, r0, #0
 8004d04:	d002      	beq.n	8004d0c <HAL_SPI_Receive+0x24c>
  {
    hspi->ErrorCode = HAL_SPI_ERROR_FLAG;
 8004d06:	68fb      	ldr	r3, [r7, #12]
 8004d08:	2220      	movs	r2, #32
 8004d0a:	661a      	str	r2, [r3, #96]	; 0x60
    SET_BIT(hspi->ErrorCode, HAL_SPI_ERROR_CRC);
    __HAL_SPI_CLEAR_CRCERRFLAG(hspi);
  }
#endif /* USE_SPI_CRC */

  if (hspi->ErrorCode != HAL_SPI_ERROR_NONE)
 8004d0c:	68fb      	ldr	r3, [r7, #12]
 8004d0e:	6e1b      	ldr	r3, [r3, #96]	; 0x60
 8004d10:	2b00      	cmp	r3, #0
 8004d12:	d004      	beq.n	8004d1e <HAL_SPI_Receive+0x25e>
  {
    errorcode = HAL_ERROR;
 8004d14:	2317      	movs	r3, #23
 8004d16:	18fb      	adds	r3, r7, r3
 8004d18:	2201      	movs	r2, #1
 8004d1a:	701a      	strb	r2, [r3, #0]
 8004d1c:	e000      	b.n	8004d20 <HAL_SPI_Receive+0x260>
  }

error :
 8004d1e:	46c0      	nop			; (mov r8, r8)
  hspi->State = HAL_SPI_STATE_READY;
 8004d20:	68fb      	ldr	r3, [r7, #12]
 8004d22:	225d      	movs	r2, #93	; 0x5d
 8004d24:	2101      	movs	r1, #1
 8004d26:	5499      	strb	r1, [r3, r2]
  __HAL_UNLOCK(hspi);
 8004d28:	68fb      	ldr	r3, [r7, #12]
 8004d2a:	225c      	movs	r2, #92	; 0x5c
 8004d2c:	2100      	movs	r1, #0
 8004d2e:	5499      	strb	r1, [r3, r2]
  return errorcode;
 8004d30:	2317      	movs	r3, #23
 8004d32:	18fb      	adds	r3, r7, r3
 8004d34:	781b      	ldrb	r3, [r3, #0]
}
 8004d36:	0018      	movs	r0, r3
 8004d38:	46bd      	mov	sp, r7
 8004d3a:	b007      	add	sp, #28
 8004d3c:	bd90      	pop	{r4, r7, pc}
 8004d3e:	46c0      	nop			; (mov r8, r8)
 8004d40:	ffffefff 	.word	0xffffefff
 8004d44:	ffffbfff 	.word	0xffffbfff

08004d48 <HAL_SPI_TransmitReceive>:
  * @param  Timeout Timeout duration
  * @retval HAL status
  */
HAL_StatusTypeDef HAL_SPI_TransmitReceive(SPI_HandleTypeDef *hspi, uint8_t *pTxData, uint8_t *pRxData, uint16_t Size,
                                          uint32_t Timeout)
{
 8004d48:	b580      	push	{r7, lr}
 8004d4a:	b08a      	sub	sp, #40	; 0x28
 8004d4c:	af00      	add	r7, sp, #0
 8004d4e:	60f8      	str	r0, [r7, #12]
 8004d50:	60b9      	str	r1, [r7, #8]
 8004d52:	607a      	str	r2, [r7, #4]
 8004d54:	001a      	movs	r2, r3
 8004d56:	1cbb      	adds	r3, r7, #2
 8004d58:	801a      	strh	r2, [r3, #0]
  uint32_t             spi_cr1;
  uint32_t             spi_cr2;
#endif /* USE_SPI_CRC */

  /* Variable used to alternate Rx and Tx during transfer */
  uint32_t             txallowed = 1U;
 8004d5a:	2301      	movs	r3, #1
 8004d5c:	627b      	str	r3, [r7, #36]	; 0x24
  HAL_StatusTypeDef    errorcode = HAL_OK;
 8004d5e:	2323      	movs	r3, #35	; 0x23
 8004d60:	18fb      	adds	r3, r7, r3
 8004d62:	2200      	movs	r2, #0
 8004d64:	701a      	strb	r2, [r3, #0]

  /* Check Direction parameter */
  assert_param(IS_SPI_DIRECTION_2LINES(hspi->Init.Direction));

  /* Process Locked */
  __HAL_LOCK(hspi);
 8004d66:	68fb      	ldr	r3, [r7, #12]
 8004d68:	225c      	movs	r2, #92	; 0x5c
 8004d6a:	5c9b      	ldrb	r3, [r3, r2]
 8004d6c:	2b01      	cmp	r3, #1
 8004d6e:	d101      	bne.n	8004d74 <HAL_SPI_TransmitReceive+0x2c>
 8004d70:	2302      	movs	r3, #2
 8004d72:	e21f      	b.n	80051b4 <HAL_SPI_TransmitReceive+0x46c>
 8004d74:	68fb      	ldr	r3, [r7, #12]
 8004d76:	225c      	movs	r2, #92	; 0x5c
 8004d78:	2101      	movs	r1, #1
 8004d7a:	5499      	strb	r1, [r3, r2]

  /* Init tickstart for timeout management*/
  tickstart = HAL_GetTick();
 8004d7c:	f7fe fcfa 	bl	8003774 <HAL_GetTick>
 8004d80:	0003      	movs	r3, r0
 8004d82:	61fb      	str	r3, [r7, #28]

  /* Init temporary variables */
  tmp_state           = hspi->State;
 8004d84:	201b      	movs	r0, #27
 8004d86:	183b      	adds	r3, r7, r0
 8004d88:	68fa      	ldr	r2, [r7, #12]
 8004d8a:	215d      	movs	r1, #93	; 0x5d
 8004d8c:	5c52      	ldrb	r2, [r2, r1]
 8004d8e:	701a      	strb	r2, [r3, #0]
  tmp_mode            = hspi->Init.Mode;
 8004d90:	68fb      	ldr	r3, [r7, #12]
 8004d92:	685b      	ldr	r3, [r3, #4]
 8004d94:	617b      	str	r3, [r7, #20]
  initial_TxXferCount = Size;
 8004d96:	2312      	movs	r3, #18
 8004d98:	18fb      	adds	r3, r7, r3
 8004d9a:	1cba      	adds	r2, r7, #2
 8004d9c:	8812      	ldrh	r2, [r2, #0]
 8004d9e:	801a      	strh	r2, [r3, #0]
  initial_RxXferCount = Size;
 8004da0:	2310      	movs	r3, #16
 8004da2:	18fb      	adds	r3, r7, r3
 8004da4:	1cba      	adds	r2, r7, #2
 8004da6:	8812      	ldrh	r2, [r2, #0]
 8004da8:	801a      	strh	r2, [r3, #0]
#if (USE_SPI_CRC != 0U)
  spi_cr1             = READ_REG(hspi->Instance->CR1);
  spi_cr2             = READ_REG(hspi->Instance->CR2);
#endif /* USE_SPI_CRC */

  if (!((tmp_state == HAL_SPI_STATE_READY) || \
 8004daa:	183b      	adds	r3, r7, r0
 8004dac:	781b      	ldrb	r3, [r3, #0]
 8004dae:	2b01      	cmp	r3, #1
 8004db0:	d012      	beq.n	8004dd8 <HAL_SPI_TransmitReceive+0x90>
 8004db2:	697a      	ldr	r2, [r7, #20]
 8004db4:	2382      	movs	r3, #130	; 0x82
 8004db6:	005b      	lsls	r3, r3, #1
 8004db8:	429a      	cmp	r2, r3
 8004dba:	d108      	bne.n	8004dce <HAL_SPI_TransmitReceive+0x86>
        ((tmp_mode == SPI_MODE_MASTER) && (hspi->Init.Direction == SPI_DIRECTION_2LINES) && (tmp_state == HAL_SPI_STATE_BUSY_RX))))
 8004dbc:	68fb      	ldr	r3, [r7, #12]
 8004dbe:	689b      	ldr	r3, [r3, #8]
 8004dc0:	2b00      	cmp	r3, #0
 8004dc2:	d104      	bne.n	8004dce <HAL_SPI_TransmitReceive+0x86>
 8004dc4:	231b      	movs	r3, #27
 8004dc6:	18fb      	adds	r3, r7, r3
 8004dc8:	781b      	ldrb	r3, [r3, #0]
 8004dca:	2b04      	cmp	r3, #4
 8004dcc:	d004      	beq.n	8004dd8 <HAL_SPI_TransmitReceive+0x90>
  {
    errorcode = HAL_BUSY;
 8004dce:	2323      	movs	r3, #35	; 0x23
 8004dd0:	18fb      	adds	r3, r7, r3
 8004dd2:	2202      	movs	r2, #2
 8004dd4:	701a      	strb	r2, [r3, #0]
    goto error;
 8004dd6:	e1e2      	b.n	800519e <HAL_SPI_TransmitReceive+0x456>
  }

  if ((pTxData == NULL) || (pRxData == NULL) || (Size == 0U))
 8004dd8:	68bb      	ldr	r3, [r7, #8]
 8004dda:	2b00      	cmp	r3, #0
 8004ddc:	d006      	beq.n	8004dec <HAL_SPI_TransmitReceive+0xa4>
 8004dde:	687b      	ldr	r3, [r7, #4]
 8004de0:	2b00      	cmp	r3, #0
 8004de2:	d003      	beq.n	8004dec <HAL_SPI_TransmitReceive+0xa4>
 8004de4:	1cbb      	adds	r3, r7, #2
 8004de6:	881b      	ldrh	r3, [r3, #0]
 8004de8:	2b00      	cmp	r3, #0
 8004dea:	d104      	bne.n	8004df6 <HAL_SPI_TransmitReceive+0xae>
  {
    errorcode = HAL_ERROR;
 8004dec:	2323      	movs	r3, #35	; 0x23
 8004dee:	18fb      	adds	r3, r7, r3
 8004df0:	2201      	movs	r2, #1
 8004df2:	701a      	strb	r2, [r3, #0]
    goto error;
 8004df4:	e1d3      	b.n	800519e <HAL_SPI_TransmitReceive+0x456>
  }

  /* Don't overwrite in case of HAL_SPI_STATE_BUSY_RX */
  if (hspi->State != HAL_SPI_STATE_BUSY_RX)
 8004df6:	68fb      	ldr	r3, [r7, #12]
 8004df8:	225d      	movs	r2, #93	; 0x5d
 8004dfa:	5c9b      	ldrb	r3, [r3, r2]
 8004dfc:	b2db      	uxtb	r3, r3
 8004dfe:	2b04      	cmp	r3, #4
 8004e00:	d003      	beq.n	8004e0a <HAL_SPI_TransmitReceive+0xc2>
  {
    hspi->State = HAL_SPI_STATE_BUSY_TX_RX;
 8004e02:	68fb      	ldr	r3, [r7, #12]
 8004e04:	225d      	movs	r2, #93	; 0x5d
 8004e06:	2105      	movs	r1, #5
 8004e08:	5499      	strb	r1, [r3, r2]
  }

  /* Set the transaction information */
  hspi->ErrorCode   = HAL_SPI_ERROR_NONE;
 8004e0a:	68fb      	ldr	r3, [r7, #12]
 8004e0c:	2200      	movs	r2, #0
 8004e0e:	661a      	str	r2, [r3, #96]	; 0x60
  hspi->pRxBuffPtr  = (uint8_t *)pRxData;
 8004e10:	68fb      	ldr	r3, [r7, #12]
 8004e12:	687a      	ldr	r2, [r7, #4]
 8004e14:	641a      	str	r2, [r3, #64]	; 0x40
  hspi->RxXferCount = Size;
 8004e16:	68fb      	ldr	r3, [r7, #12]
 8004e18:	1cba      	adds	r2, r7, #2
 8004e1a:	2146      	movs	r1, #70	; 0x46
 8004e1c:	8812      	ldrh	r2, [r2, #0]
 8004e1e:	525a      	strh	r2, [r3, r1]
  hspi->RxXferSize  = Size;
 8004e20:	68fb      	ldr	r3, [r7, #12]
 8004e22:	1cba      	adds	r2, r7, #2
 8004e24:	2144      	movs	r1, #68	; 0x44
 8004e26:	8812      	ldrh	r2, [r2, #0]
 8004e28:	525a      	strh	r2, [r3, r1]
  hspi->pTxBuffPtr  = (uint8_t *)pTxData;
 8004e2a:	68fb      	ldr	r3, [r7, #12]
 8004e2c:	68ba      	ldr	r2, [r7, #8]
 8004e2e:	639a      	str	r2, [r3, #56]	; 0x38
  hspi->TxXferCount = Size;
 8004e30:	68fb      	ldr	r3, [r7, #12]
 8004e32:	1cba      	adds	r2, r7, #2
 8004e34:	8812      	ldrh	r2, [r2, #0]
 8004e36:	87da      	strh	r2, [r3, #62]	; 0x3e
  hspi->TxXferSize  = Size;
 8004e38:	68fb      	ldr	r3, [r7, #12]
 8004e3a:	1cba      	adds	r2, r7, #2
 8004e3c:	8812      	ldrh	r2, [r2, #0]
 8004e3e:	879a      	strh	r2, [r3, #60]	; 0x3c

  /*Init field not used in handle to zero */
  hspi->RxISR       = NULL;
 8004e40:	68fb      	ldr	r3, [r7, #12]
 8004e42:	2200      	movs	r2, #0
 8004e44:	64da      	str	r2, [r3, #76]	; 0x4c
  hspi->TxISR       = NULL;
 8004e46:	68fb      	ldr	r3, [r7, #12]
 8004e48:	2200      	movs	r2, #0
 8004e4a:	651a      	str	r2, [r3, #80]	; 0x50
    SPI_RESET_CRC(hspi);
  }
#endif /* USE_SPI_CRC */

  /* Set the Rx Fifo threshold */
  if ((hspi->Init.DataSize > SPI_DATASIZE_8BIT) || (initial_RxXferCount > 1U))
 8004e4c:	68fb      	ldr	r3, [r7, #12]
 8004e4e:	68da      	ldr	r2, [r3, #12]
 8004e50:	23e0      	movs	r3, #224	; 0xe0
 8004e52:	00db      	lsls	r3, r3, #3
 8004e54:	429a      	cmp	r2, r3
 8004e56:	d804      	bhi.n	8004e62 <HAL_SPI_TransmitReceive+0x11a>
 8004e58:	2310      	movs	r3, #16
 8004e5a:	18fb      	adds	r3, r7, r3
 8004e5c:	881b      	ldrh	r3, [r3, #0]
 8004e5e:	2b01      	cmp	r3, #1
 8004e60:	d908      	bls.n	8004e74 <HAL_SPI_TransmitReceive+0x12c>
  {
    /* Set fiforxthreshold according the reception data length: 16bit */
    CLEAR_BIT(hspi->Instance->CR2, SPI_RXFIFO_THRESHOLD);
 8004e62:	68fb      	ldr	r3, [r7, #12]
 8004e64:	681b      	ldr	r3, [r3, #0]
 8004e66:	685a      	ldr	r2, [r3, #4]
 8004e68:	68fb      	ldr	r3, [r7, #12]
 8004e6a:	681b      	ldr	r3, [r3, #0]
 8004e6c:	49ca      	ldr	r1, [pc, #808]	; (8005198 <HAL_SPI_TransmitReceive+0x450>)
 8004e6e:	400a      	ands	r2, r1
 8004e70:	605a      	str	r2, [r3, #4]
 8004e72:	e008      	b.n	8004e86 <HAL_SPI_TransmitReceive+0x13e>
  }
  else
  {
    /* Set fiforxthreshold according the reception data length: 8bit */
    SET_BIT(hspi->Instance->CR2, SPI_RXFIFO_THRESHOLD);
 8004e74:	68fb      	ldr	r3, [r7, #12]
 8004e76:	681b      	ldr	r3, [r3, #0]
 8004e78:	685a      	ldr	r2, [r3, #4]
 8004e7a:	68fb      	ldr	r3, [r7, #12]
 8004e7c:	681b      	ldr	r3, [r3, #0]
 8004e7e:	2180      	movs	r1, #128	; 0x80
 8004e80:	0149      	lsls	r1, r1, #5
 8004e82:	430a      	orrs	r2, r1
 8004e84:	605a      	str	r2, [r3, #4]
  }

  /* Check if the SPI is already enabled */
  if ((hspi->Instance->CR1 & SPI_CR1_SPE) != SPI_CR1_SPE)
 8004e86:	68fb      	ldr	r3, [r7, #12]
 8004e88:	681b      	ldr	r3, [r3, #0]
 8004e8a:	681b      	ldr	r3, [r3, #0]
 8004e8c:	2240      	movs	r2, #64	; 0x40
 8004e8e:	4013      	ands	r3, r2
 8004e90:	2b40      	cmp	r3, #64	; 0x40
 8004e92:	d007      	beq.n	8004ea4 <HAL_SPI_TransmitReceive+0x15c>
  {
    /* Enable SPI peripheral */
    __HAL_SPI_ENABLE(hspi);
 8004e94:	68fb      	ldr	r3, [r7, #12]
 8004e96:	681b      	ldr	r3, [r3, #0]
 8004e98:	681a      	ldr	r2, [r3, #0]
 8004e9a:	68fb      	ldr	r3, [r7, #12]
 8004e9c:	681b      	ldr	r3, [r3, #0]
 8004e9e:	2140      	movs	r1, #64	; 0x40
 8004ea0:	430a      	orrs	r2, r1
 8004ea2:	601a      	str	r2, [r3, #0]
  }

  /* Transmit and Receive data in 16 Bit mode */
  if (hspi->Init.DataSize > SPI_DATASIZE_8BIT)
 8004ea4:	68fb      	ldr	r3, [r7, #12]
 8004ea6:	68da      	ldr	r2, [r3, #12]
 8004ea8:	23e0      	movs	r3, #224	; 0xe0
 8004eaa:	00db      	lsls	r3, r3, #3
 8004eac:	429a      	cmp	r2, r3
 8004eae:	d800      	bhi.n	8004eb2 <HAL_SPI_TransmitReceive+0x16a>
 8004eb0:	e07f      	b.n	8004fb2 <HAL_SPI_TransmitReceive+0x26a>
  {
    if ((hspi->Init.Mode == SPI_MODE_SLAVE) || (initial_TxXferCount == 0x01U))
 8004eb2:	68fb      	ldr	r3, [r7, #12]
 8004eb4:	685b      	ldr	r3, [r3, #4]
 8004eb6:	2b00      	cmp	r3, #0
 8004eb8:	d005      	beq.n	8004ec6 <HAL_SPI_TransmitReceive+0x17e>
 8004eba:	2312      	movs	r3, #18
 8004ebc:	18fb      	adds	r3, r7, r3
 8004ebe:	881b      	ldrh	r3, [r3, #0]
 8004ec0:	2b01      	cmp	r3, #1
 8004ec2:	d000      	beq.n	8004ec6 <HAL_SPI_TransmitReceive+0x17e>
 8004ec4:	e069      	b.n	8004f9a <HAL_SPI_TransmitReceive+0x252>
    {
      hspi->Instance->DR = *((uint16_t *)hspi->pTxBuffPtr);
 8004ec6:	68fb      	ldr	r3, [r7, #12]
 8004ec8:	6b9b      	ldr	r3, [r3, #56]	; 0x38
 8004eca:	881a      	ldrh	r2, [r3, #0]
 8004ecc:	68fb      	ldr	r3, [r7, #12]
 8004ece:	681b      	ldr	r3, [r3, #0]
 8004ed0:	60da      	str	r2, [r3, #12]
      hspi->pTxBuffPtr += sizeof(uint16_t);
 8004ed2:	68fb      	ldr	r3, [r7, #12]
 8004ed4:	6b9b      	ldr	r3, [r3, #56]	; 0x38
 8004ed6:	1c9a      	adds	r2, r3, #2
 8004ed8:	68fb      	ldr	r3, [r7, #12]
 8004eda:	639a      	str	r2, [r3, #56]	; 0x38
      hspi->TxXferCount--;
 8004edc:	68fb      	ldr	r3, [r7, #12]
 8004ede:	8fdb      	ldrh	r3, [r3, #62]	; 0x3e
 8004ee0:	b29b      	uxth	r3, r3
 8004ee2:	3b01      	subs	r3, #1
 8004ee4:	b29a      	uxth	r2, r3
 8004ee6:	68fb      	ldr	r3, [r7, #12]
 8004ee8:	87da      	strh	r2, [r3, #62]	; 0x3e
    }
    while ((hspi->TxXferCount > 0U) || (hspi->RxXferCount > 0U))
 8004eea:	e056      	b.n	8004f9a <HAL_SPI_TransmitReceive+0x252>
    {
      /* Check TXE flag */
      if ((__HAL_SPI_GET_FLAG(hspi, SPI_FLAG_TXE)) && (hspi->TxXferCount > 0U) && (txallowed == 1U))
 8004eec:	68fb      	ldr	r3, [r7, #12]
 8004eee:	681b      	ldr	r3, [r3, #0]
 8004ef0:	689b      	ldr	r3, [r3, #8]
 8004ef2:	2202      	movs	r2, #2
 8004ef4:	4013      	ands	r3, r2
 8004ef6:	2b02      	cmp	r3, #2
 8004ef8:	d11b      	bne.n	8004f32 <HAL_SPI_TransmitReceive+0x1ea>
 8004efa:	68fb      	ldr	r3, [r7, #12]
 8004efc:	8fdb      	ldrh	r3, [r3, #62]	; 0x3e
 8004efe:	b29b      	uxth	r3, r3
 8004f00:	2b00      	cmp	r3, #0
 8004f02:	d016      	beq.n	8004f32 <HAL_SPI_TransmitReceive+0x1ea>
 8004f04:	6a7b      	ldr	r3, [r7, #36]	; 0x24
 8004f06:	2b01      	cmp	r3, #1
 8004f08:	d113      	bne.n	8004f32 <HAL_SPI_TransmitReceive+0x1ea>
      {
        hspi->Instance->DR = *((uint16_t *)hspi->pTxBuffPtr);
 8004f0a:	68fb      	ldr	r3, [r7, #12]
 8004f0c:	6b9b      	ldr	r3, [r3, #56]	; 0x38
 8004f0e:	881a      	ldrh	r2, [r3, #0]
 8004f10:	68fb      	ldr	r3, [r7, #12]
 8004f12:	681b      	ldr	r3, [r3, #0]
 8004f14:	60da      	str	r2, [r3, #12]
        hspi->pTxBuffPtr += sizeof(uint16_t);
 8004f16:	68fb      	ldr	r3, [r7, #12]
 8004f18:	6b9b      	ldr	r3, [r3, #56]	; 0x38
 8004f1a:	1c9a      	adds	r2, r3, #2
 8004f1c:	68fb      	ldr	r3, [r7, #12]
 8004f1e:	639a      	str	r2, [r3, #56]	; 0x38
        hspi->TxXferCount--;
 8004f20:	68fb      	ldr	r3, [r7, #12]
 8004f22:	8fdb      	ldrh	r3, [r3, #62]	; 0x3e
 8004f24:	b29b      	uxth	r3, r3
 8004f26:	3b01      	subs	r3, #1
 8004f28:	b29a      	uxth	r2, r3
 8004f2a:	68fb      	ldr	r3, [r7, #12]
 8004f2c:	87da      	strh	r2, [r3, #62]	; 0x3e
        /* Next Data is a reception (Rx). Tx not allowed */
        txallowed = 0U;
 8004f2e:	2300      	movs	r3, #0
 8004f30:	627b      	str	r3, [r7, #36]	; 0x24
        }
#endif /* USE_SPI_CRC */
      }

      /* Check RXNE flag */
      if ((__HAL_SPI_GET_FLAG(hspi, SPI_FLAG_RXNE)) && (hspi->RxXferCount > 0U))
 8004f32:	68fb      	ldr	r3, [r7, #12]
 8004f34:	681b      	ldr	r3, [r3, #0]
 8004f36:	689b      	ldr	r3, [r3, #8]
 8004f38:	2201      	movs	r2, #1
 8004f3a:	4013      	ands	r3, r2
 8004f3c:	2b01      	cmp	r3, #1
 8004f3e:	d11c      	bne.n	8004f7a <HAL_SPI_TransmitReceive+0x232>
 8004f40:	68fb      	ldr	r3, [r7, #12]
 8004f42:	2246      	movs	r2, #70	; 0x46
 8004f44:	5a9b      	ldrh	r3, [r3, r2]
 8004f46:	b29b      	uxth	r3, r3
 8004f48:	2b00      	cmp	r3, #0
 8004f4a:	d016      	beq.n	8004f7a <HAL_SPI_TransmitReceive+0x232>
      {
        *((uint16_t *)hspi->pRxBuffPtr) = (uint16_t)hspi->Instance->DR;
 8004f4c:	68fb      	ldr	r3, [r7, #12]
 8004f4e:	681b      	ldr	r3, [r3, #0]
 8004f50:	68da      	ldr	r2, [r3, #12]
 8004f52:	68fb      	ldr	r3, [r7, #12]
 8004f54:	6c1b      	ldr	r3, [r3, #64]	; 0x40
 8004f56:	b292      	uxth	r2, r2
 8004f58:	801a      	strh	r2, [r3, #0]
        hspi->pRxBuffPtr += sizeof(uint16_t);
 8004f5a:	68fb      	ldr	r3, [r7, #12]
 8004f5c:	6c1b      	ldr	r3, [r3, #64]	; 0x40
 8004f5e:	1c9a      	adds	r2, r3, #2
 8004f60:	68fb      	ldr	r3, [r7, #12]
 8004f62:	641a      	str	r2, [r3, #64]	; 0x40
        hspi->RxXferCount--;
 8004f64:	68fb      	ldr	r3, [r7, #12]
 8004f66:	2246      	movs	r2, #70	; 0x46
 8004f68:	5a9b      	ldrh	r3, [r3, r2]
 8004f6a:	b29b      	uxth	r3, r3
 8004f6c:	3b01      	subs	r3, #1
 8004f6e:	b299      	uxth	r1, r3
 8004f70:	68fb      	ldr	r3, [r7, #12]
 8004f72:	2246      	movs	r2, #70	; 0x46
 8004f74:	5299      	strh	r1, [r3, r2]
        /* Next Data is a Transmission (Tx). Tx is allowed */
        txallowed = 1U;
 8004f76:	2301      	movs	r3, #1
 8004f78:	627b      	str	r3, [r7, #36]	; 0x24
      }
      if (((HAL_GetTick() - tickstart) >=  Timeout) && (Timeout != HAL_MAX_DELAY))
 8004f7a:	f7fe fbfb 	bl	8003774 <HAL_GetTick>
 8004f7e:	0002      	movs	r2, r0
 8004f80:	69fb      	ldr	r3, [r7, #28]
 8004f82:	1ad3      	subs	r3, r2, r3
 8004f84:	6b3a      	ldr	r2, [r7, #48]	; 0x30
 8004f86:	429a      	cmp	r2, r3
 8004f88:	d807      	bhi.n	8004f9a <HAL_SPI_TransmitReceive+0x252>
 8004f8a:	6b3b      	ldr	r3, [r7, #48]	; 0x30
 8004f8c:	3301      	adds	r3, #1
 8004f8e:	d004      	beq.n	8004f9a <HAL_SPI_TransmitReceive+0x252>
      {
        errorcode = HAL_TIMEOUT;
 8004f90:	2323      	movs	r3, #35	; 0x23
 8004f92:	18fb      	adds	r3, r7, r3
 8004f94:	2203      	movs	r2, #3
 8004f96:	701a      	strb	r2, [r3, #0]
        goto error;
 8004f98:	e101      	b.n	800519e <HAL_SPI_TransmitReceive+0x456>
    while ((hspi->TxXferCount > 0U) || (hspi->RxXferCount > 0U))
 8004f9a:	68fb      	ldr	r3, [r7, #12]
 8004f9c:	8fdb      	ldrh	r3, [r3, #62]	; 0x3e
 8004f9e:	b29b      	uxth	r3, r3
 8004fa0:	2b00      	cmp	r3, #0
 8004fa2:	d1a3      	bne.n	8004eec <HAL_SPI_TransmitReceive+0x1a4>
 8004fa4:	68fb      	ldr	r3, [r7, #12]
 8004fa6:	2246      	movs	r2, #70	; 0x46
 8004fa8:	5a9b      	ldrh	r3, [r3, r2]
 8004faa:	b29b      	uxth	r3, r3
 8004fac:	2b00      	cmp	r3, #0
 8004fae:	d19d      	bne.n	8004eec <HAL_SPI_TransmitReceive+0x1a4>
 8004fb0:	e0e2      	b.n	8005178 <HAL_SPI_TransmitReceive+0x430>
    }
  }
  /* Transmit and Receive data in 8 Bit mode */
  else
  {
    if ((hspi->Init.Mode == SPI_MODE_SLAVE) || (initial_TxXferCount == 0x01U))
 8004fb2:	68fb      	ldr	r3, [r7, #12]
 8004fb4:	685b      	ldr	r3, [r3, #4]
 8004fb6:	2b00      	cmp	r3, #0
 8004fb8:	d005      	beq.n	8004fc6 <HAL_SPI_TransmitReceive+0x27e>
 8004fba:	2312      	movs	r3, #18
 8004fbc:	18fb      	adds	r3, r7, r3
 8004fbe:	881b      	ldrh	r3, [r3, #0]
 8004fc0:	2b01      	cmp	r3, #1
 8004fc2:	d000      	beq.n	8004fc6 <HAL_SPI_TransmitReceive+0x27e>
 8004fc4:	e0cb      	b.n	800515e <HAL_SPI_TransmitReceive+0x416>
    {
      if (hspi->TxXferCount > 1U)
 8004fc6:	68fb      	ldr	r3, [r7, #12]
 8004fc8:	8fdb      	ldrh	r3, [r3, #62]	; 0x3e
 8004fca:	b29b      	uxth	r3, r3
 8004fcc:	2b01      	cmp	r3, #1
 8004fce:	d912      	bls.n	8004ff6 <HAL_SPI_TransmitReceive+0x2ae>
      {
        hspi->Instance->DR = *((uint16_t *)hspi->pTxBuffPtr);
 8004fd0:	68fb      	ldr	r3, [r7, #12]
 8004fd2:	6b9b      	ldr	r3, [r3, #56]	; 0x38
 8004fd4:	881a      	ldrh	r2, [r3, #0]
 8004fd6:	68fb      	ldr	r3, [r7, #12]
 8004fd8:	681b      	ldr	r3, [r3, #0]
 8004fda:	60da      	str	r2, [r3, #12]
        hspi->pTxBuffPtr += sizeof(uint16_t);
 8004fdc:	68fb      	ldr	r3, [r7, #12]
 8004fde:	6b9b      	ldr	r3, [r3, #56]	; 0x38
 8004fe0:	1c9a      	adds	r2, r3, #2
 8004fe2:	68fb      	ldr	r3, [r7, #12]
 8004fe4:	639a      	str	r2, [r3, #56]	; 0x38
        hspi->TxXferCount -= 2U;
 8004fe6:	68fb      	ldr	r3, [r7, #12]
 8004fe8:	8fdb      	ldrh	r3, [r3, #62]	; 0x3e
 8004fea:	b29b      	uxth	r3, r3
 8004fec:	3b02      	subs	r3, #2
 8004fee:	b29a      	uxth	r2, r3
 8004ff0:	68fb      	ldr	r3, [r7, #12]
 8004ff2:	87da      	strh	r2, [r3, #62]	; 0x3e
 8004ff4:	e0b3      	b.n	800515e <HAL_SPI_TransmitReceive+0x416>
      }
      else
      {
        *(__IO uint8_t *)&hspi->Instance->DR = (*hspi->pTxBuffPtr);
 8004ff6:	68fb      	ldr	r3, [r7, #12]
 8004ff8:	6b9a      	ldr	r2, [r3, #56]	; 0x38
 8004ffa:	68fb      	ldr	r3, [r7, #12]
 8004ffc:	681b      	ldr	r3, [r3, #0]
 8004ffe:	330c      	adds	r3, #12
 8005000:	7812      	ldrb	r2, [r2, #0]
 8005002:	701a      	strb	r2, [r3, #0]
        hspi->pTxBuffPtr++;
 8005004:	68fb      	ldr	r3, [r7, #12]
 8005006:	6b9b      	ldr	r3, [r3, #56]	; 0x38
 8005008:	1c5a      	adds	r2, r3, #1
 800500a:	68fb      	ldr	r3, [r7, #12]
 800500c:	639a      	str	r2, [r3, #56]	; 0x38
        hspi->TxXferCount--;
 800500e:	68fb      	ldr	r3, [r7, #12]
 8005010:	8fdb      	ldrh	r3, [r3, #62]	; 0x3e
 8005012:	b29b      	uxth	r3, r3
 8005014:	3b01      	subs	r3, #1
 8005016:	b29a      	uxth	r2, r3
 8005018:	68fb      	ldr	r3, [r7, #12]
 800501a:	87da      	strh	r2, [r3, #62]	; 0x3e
      }
    }
    while ((hspi->TxXferCount > 0U) || (hspi->RxXferCount > 0U))
 800501c:	e09f      	b.n	800515e <HAL_SPI_TransmitReceive+0x416>
    {
      /* Check TXE flag */
      if ((__HAL_SPI_GET_FLAG(hspi, SPI_FLAG_TXE)) && (hspi->TxXferCount > 0U) && (txallowed == 1U))
 800501e:	68fb      	ldr	r3, [r7, #12]
 8005020:	681b      	ldr	r3, [r3, #0]
 8005022:	689b      	ldr	r3, [r3, #8]
 8005024:	2202      	movs	r2, #2
 8005026:	4013      	ands	r3, r2
 8005028:	2b02      	cmp	r3, #2
 800502a:	d134      	bne.n	8005096 <HAL_SPI_TransmitReceive+0x34e>
 800502c:	68fb      	ldr	r3, [r7, #12]
 800502e:	8fdb      	ldrh	r3, [r3, #62]	; 0x3e
 8005030:	b29b      	uxth	r3, r3
 8005032:	2b00      	cmp	r3, #0
 8005034:	d02f      	beq.n	8005096 <HAL_SPI_TransmitReceive+0x34e>
 8005036:	6a7b      	ldr	r3, [r7, #36]	; 0x24
 8005038:	2b01      	cmp	r3, #1
 800503a:	d12c      	bne.n	8005096 <HAL_SPI_TransmitReceive+0x34e>
      {
        if (hspi->TxXferCount > 1U)
 800503c:	68fb      	ldr	r3, [r7, #12]
 800503e:	8fdb      	ldrh	r3, [r3, #62]	; 0x3e
 8005040:	b29b      	uxth	r3, r3
 8005042:	2b01      	cmp	r3, #1
 8005044:	d912      	bls.n	800506c <HAL_SPI_TransmitReceive+0x324>
        {
          hspi->Instance->DR = *((uint16_t *)hspi->pTxBuffPtr);
 8005046:	68fb      	ldr	r3, [r7, #12]
 8005048:	6b9b      	ldr	r3, [r3, #56]	; 0x38
 800504a:	881a      	ldrh	r2, [r3, #0]
 800504c:	68fb      	ldr	r3, [r7, #12]
 800504e:	681b      	ldr	r3, [r3, #0]
 8005050:	60da      	str	r2, [r3, #12]
          hspi->pTxBuffPtr += sizeof(uint16_t);
 8005052:	68fb      	ldr	r3, [r7, #12]
 8005054:	6b9b      	ldr	r3, [r3, #56]	; 0x38
 8005056:	1c9a      	adds	r2, r3, #2
 8005058:	68fb      	ldr	r3, [r7, #12]
 800505a:	639a      	str	r2, [r3, #56]	; 0x38
          hspi->TxXferCount -= 2U;
 800505c:	68fb      	ldr	r3, [r7, #12]
 800505e:	8fdb      	ldrh	r3, [r3, #62]	; 0x3e
 8005060:	b29b      	uxth	r3, r3
 8005062:	3b02      	subs	r3, #2
 8005064:	b29a      	uxth	r2, r3
 8005066:	68fb      	ldr	r3, [r7, #12]
 8005068:	87da      	strh	r2, [r3, #62]	; 0x3e
 800506a:	e012      	b.n	8005092 <HAL_SPI_TransmitReceive+0x34a>
        }
        else
        {
          *(__IO uint8_t *)&hspi->Instance->DR = (*hspi->pTxBuffPtr);
 800506c:	68fb      	ldr	r3, [r7, #12]
 800506e:	6b9a      	ldr	r2, [r3, #56]	; 0x38
 8005070:	68fb      	ldr	r3, [r7, #12]
 8005072:	681b      	ldr	r3, [r3, #0]
 8005074:	330c      	adds	r3, #12
 8005076:	7812      	ldrb	r2, [r2, #0]
 8005078:	701a      	strb	r2, [r3, #0]
          hspi->pTxBuffPtr++;
 800507a:	68fb      	ldr	r3, [r7, #12]
 800507c:	6b9b      	ldr	r3, [r3, #56]	; 0x38
 800507e:	1c5a      	adds	r2, r3, #1
 8005080:	68fb      	ldr	r3, [r7, #12]
 8005082:	639a      	str	r2, [r3, #56]	; 0x38
          hspi->TxXferCount--;
 8005084:	68fb      	ldr	r3, [r7, #12]
 8005086:	8fdb      	ldrh	r3, [r3, #62]	; 0x3e
 8005088:	b29b      	uxth	r3, r3
 800508a:	3b01      	subs	r3, #1
 800508c:	b29a      	uxth	r2, r3
 800508e:	68fb      	ldr	r3, [r7, #12]
 8005090:	87da      	strh	r2, [r3, #62]	; 0x3e
        }
        /* Next Data is a reception (Rx). Tx not allowed */
        txallowed = 0U;
 8005092:	2300      	movs	r3, #0
 8005094:	627b      	str	r3, [r7, #36]	; 0x24
        }
#endif /* USE_SPI_CRC */
      }

      /* Wait until RXNE flag is reset */
      if ((__HAL_SPI_GET_FLAG(hspi, SPI_FLAG_RXNE)) && (hspi->RxXferCount > 0U))
 8005096:	68fb      	ldr	r3, [r7, #12]
 8005098:	681b      	ldr	r3, [r3, #0]
 800509a:	689b      	ldr	r3, [r3, #8]
 800509c:	2201      	movs	r2, #1
 800509e:	4013      	ands	r3, r2
 80050a0:	2b01      	cmp	r3, #1
 80050a2:	d149      	bne.n	8005138 <HAL_SPI_TransmitReceive+0x3f0>
 80050a4:	68fb      	ldr	r3, [r7, #12]
 80050a6:	2246      	movs	r2, #70	; 0x46
 80050a8:	5a9b      	ldrh	r3, [r3, r2]
 80050aa:	b29b      	uxth	r3, r3
 80050ac:	2b00      	cmp	r3, #0
 80050ae:	d043      	beq.n	8005138 <HAL_SPI_TransmitReceive+0x3f0>
      {
        if (hspi->RxXferCount > 1U)
 80050b0:	68fb      	ldr	r3, [r7, #12]
 80050b2:	2246      	movs	r2, #70	; 0x46
 80050b4:	5a9b      	ldrh	r3, [r3, r2]
 80050b6:	b29b      	uxth	r3, r3
 80050b8:	2b01      	cmp	r3, #1
 80050ba:	d924      	bls.n	8005106 <HAL_SPI_TransmitReceive+0x3be>
        {
          *((uint16_t *)hspi->pRxBuffPtr) = (uint16_t)hspi->Instance->DR;
 80050bc:	68fb      	ldr	r3, [r7, #12]
 80050be:	681b      	ldr	r3, [r3, #0]
 80050c0:	68da      	ldr	r2, [r3, #12]
 80050c2:	68fb      	ldr	r3, [r7, #12]
 80050c4:	6c1b      	ldr	r3, [r3, #64]	; 0x40
 80050c6:	b292      	uxth	r2, r2
 80050c8:	801a      	strh	r2, [r3, #0]
          hspi->pRxBuffPtr += sizeof(uint16_t);
 80050ca:	68fb      	ldr	r3, [r7, #12]
 80050cc:	6c1b      	ldr	r3, [r3, #64]	; 0x40
 80050ce:	1c9a      	adds	r2, r3, #2
 80050d0:	68fb      	ldr	r3, [r7, #12]
 80050d2:	641a      	str	r2, [r3, #64]	; 0x40
          hspi->RxXferCount -= 2U;
 80050d4:	68fb      	ldr	r3, [r7, #12]
 80050d6:	2246      	movs	r2, #70	; 0x46
 80050d8:	5a9b      	ldrh	r3, [r3, r2]
 80050da:	b29b      	uxth	r3, r3
 80050dc:	3b02      	subs	r3, #2
 80050de:	b299      	uxth	r1, r3
 80050e0:	68fb      	ldr	r3, [r7, #12]
 80050e2:	2246      	movs	r2, #70	; 0x46
 80050e4:	5299      	strh	r1, [r3, r2]
          if (hspi->RxXferCount <= 1U)
 80050e6:	68fb      	ldr	r3, [r7, #12]
 80050e8:	2246      	movs	r2, #70	; 0x46
 80050ea:	5a9b      	ldrh	r3, [r3, r2]
 80050ec:	b29b      	uxth	r3, r3
 80050ee:	2b01      	cmp	r3, #1
 80050f0:	d820      	bhi.n	8005134 <HAL_SPI_TransmitReceive+0x3ec>
          {
            /* Set RX Fifo threshold before to switch on 8 bit data size */
            SET_BIT(hspi->Instance->CR2, SPI_RXFIFO_THRESHOLD);
 80050f2:	68fb      	ldr	r3, [r7, #12]
 80050f4:	681b      	ldr	r3, [r3, #0]
 80050f6:	685a      	ldr	r2, [r3, #4]
 80050f8:	68fb      	ldr	r3, [r7, #12]
 80050fa:	681b      	ldr	r3, [r3, #0]
 80050fc:	2180      	movs	r1, #128	; 0x80
 80050fe:	0149      	lsls	r1, r1, #5
 8005100:	430a      	orrs	r2, r1
 8005102:	605a      	str	r2, [r3, #4]
 8005104:	e016      	b.n	8005134 <HAL_SPI_TransmitReceive+0x3ec>
          }
        }
        else
        {
          (*(uint8_t *)hspi->pRxBuffPtr) = *(__IO uint8_t *)&hspi->Instance->DR;
 8005106:	68fb      	ldr	r3, [r7, #12]
 8005108:	681b      	ldr	r3, [r3, #0]
 800510a:	330c      	adds	r3, #12
 800510c:	001a      	movs	r2, r3
 800510e:	68fb      	ldr	r3, [r7, #12]
 8005110:	6c1b      	ldr	r3, [r3, #64]	; 0x40
 8005112:	7812      	ldrb	r2, [r2, #0]
 8005114:	b2d2      	uxtb	r2, r2
 8005116:	701a      	strb	r2, [r3, #0]
          hspi->pRxBuffPtr++;
 8005118:	68fb      	ldr	r3, [r7, #12]
 800511a:	6c1b      	ldr	r3, [r3, #64]	; 0x40
 800511c:	1c5a      	adds	r2, r3, #1
 800511e:	68fb      	ldr	r3, [r7, #12]
 8005120:	641a      	str	r2, [r3, #64]	; 0x40
          hspi->RxXferCount--;
 8005122:	68fb      	ldr	r3, [r7, #12]
 8005124:	2246      	movs	r2, #70	; 0x46
 8005126:	5a9b      	ldrh	r3, [r3, r2]
 8005128:	b29b      	uxth	r3, r3
 800512a:	3b01      	subs	r3, #1
 800512c:	b299      	uxth	r1, r3
 800512e:	68fb      	ldr	r3, [r7, #12]
 8005130:	2246      	movs	r2, #70	; 0x46
 8005132:	5299      	strh	r1, [r3, r2]
        }
        /* Next Data is a Transmission (Tx). Tx is allowed */
        txallowed = 1U;
 8005134:	2301      	movs	r3, #1
 8005136:	627b      	str	r3, [r7, #36]	; 0x24
      }
      if ((((HAL_GetTick() - tickstart) >=  Timeout) && ((Timeout != HAL_MAX_DELAY))) || (Timeout == 0U))
 8005138:	f7fe fb1c 	bl	8003774 <HAL_GetTick>
 800513c:	0002      	movs	r2, r0
 800513e:	69fb      	ldr	r3, [r7, #28]
 8005140:	1ad3      	subs	r3, r2, r3
 8005142:	6b3a      	ldr	r2, [r7, #48]	; 0x30
 8005144:	429a      	cmp	r2, r3
 8005146:	d802      	bhi.n	800514e <HAL_SPI_TransmitReceive+0x406>
 8005148:	6b3b      	ldr	r3, [r7, #48]	; 0x30
 800514a:	3301      	adds	r3, #1
 800514c:	d102      	bne.n	8005154 <HAL_SPI_TransmitReceive+0x40c>
 800514e:	6b3b      	ldr	r3, [r7, #48]	; 0x30
 8005150:	2b00      	cmp	r3, #0
 8005152:	d104      	bne.n	800515e <HAL_SPI_TransmitReceive+0x416>
      {
        errorcode = HAL_TIMEOUT;
 8005154:	2323      	movs	r3, #35	; 0x23
 8005156:	18fb      	adds	r3, r7, r3
 8005158:	2203      	movs	r2, #3
 800515a:	701a      	strb	r2, [r3, #0]
        goto error;
 800515c:	e01f      	b.n	800519e <HAL_SPI_TransmitReceive+0x456>
    while ((hspi->TxXferCount > 0U) || (hspi->RxXferCount > 0U))
 800515e:	68fb      	ldr	r3, [r7, #12]
 8005160:	8fdb      	ldrh	r3, [r3, #62]	; 0x3e
 8005162:	b29b      	uxth	r3, r3
 8005164:	2b00      	cmp	r3, #0
 8005166:	d000      	beq.n	800516a <HAL_SPI_TransmitReceive+0x422>
 8005168:	e759      	b.n	800501e <HAL_SPI_TransmitReceive+0x2d6>
 800516a:	68fb      	ldr	r3, [r7, #12]
 800516c:	2246      	movs	r2, #70	; 0x46
 800516e:	5a9b      	ldrh	r3, [r3, r2]
 8005170:	b29b      	uxth	r3, r3
 8005172:	2b00      	cmp	r3, #0
 8005174:	d000      	beq.n	8005178 <HAL_SPI_TransmitReceive+0x430>
 8005176:	e752      	b.n	800501e <HAL_SPI_TransmitReceive+0x2d6>
    errorcode = HAL_ERROR;
  }
#endif /* USE_SPI_CRC */

  /* Check the end of the transaction */
  if (SPI_EndRxTxTransaction(hspi, Timeout, tickstart) != HAL_OK)
 8005178:	69fa      	ldr	r2, [r7, #28]
 800517a:	6b39      	ldr	r1, [r7, #48]	; 0x30
 800517c:	68fb      	ldr	r3, [r7, #12]
 800517e:	0018      	movs	r0, r3
 8005180:	f000 fed4 	bl	8005f2c <SPI_EndRxTxTransaction>
 8005184:	1e03      	subs	r3, r0, #0
 8005186:	d009      	beq.n	800519c <HAL_SPI_TransmitReceive+0x454>
  {
    errorcode = HAL_ERROR;
 8005188:	2323      	movs	r3, #35	; 0x23
 800518a:	18fb      	adds	r3, r7, r3
 800518c:	2201      	movs	r2, #1
 800518e:	701a      	strb	r2, [r3, #0]
    hspi->ErrorCode = HAL_SPI_ERROR_FLAG;
 8005190:	68fb      	ldr	r3, [r7, #12]
 8005192:	2220      	movs	r2, #32
 8005194:	661a      	str	r2, [r3, #96]	; 0x60
 8005196:	e002      	b.n	800519e <HAL_SPI_TransmitReceive+0x456>
 8005198:	ffffefff 	.word	0xffffefff
  }

error :
 800519c:	46c0      	nop			; (mov r8, r8)
  hspi->State = HAL_SPI_STATE_READY;
 800519e:	68fb      	ldr	r3, [r7, #12]
 80051a0:	225d      	movs	r2, #93	; 0x5d
 80051a2:	2101      	movs	r1, #1
 80051a4:	5499      	strb	r1, [r3, r2]
  __HAL_UNLOCK(hspi);
 80051a6:	68fb      	ldr	r3, [r7, #12]
 80051a8:	225c      	movs	r2, #92	; 0x5c
 80051aa:	2100      	movs	r1, #0
 80051ac:	5499      	strb	r1, [r3, r2]
  return errorcode;
 80051ae:	2323      	movs	r3, #35	; 0x23
 80051b0:	18fb      	adds	r3, r7, r3
 80051b2:	781b      	ldrb	r3, [r3, #0]
}
 80051b4:	0018      	movs	r0, r3
 80051b6:	46bd      	mov	sp, r7
 80051b8:	b00a      	add	sp, #40	; 0x28
 80051ba:	bd80      	pop	{r7, pc}

080051bc <HAL_SPI_Transmit_DMA>:
  * @param  pData pointer to data buffer
  * @param  Size amount of data to be sent
  * @retval HAL status
  */
HAL_StatusTypeDef HAL_SPI_Transmit_DMA(SPI_HandleTypeDef *hspi, uint8_t *pData, uint16_t Size)
{
 80051bc:	b580      	push	{r7, lr}
 80051be:	b086      	sub	sp, #24
 80051c0:	af00      	add	r7, sp, #0
 80051c2:	60f8      	str	r0, [r7, #12]
 80051c4:	60b9      	str	r1, [r7, #8]
 80051c6:	1dbb      	adds	r3, r7, #6
 80051c8:	801a      	strh	r2, [r3, #0]
  HAL_StatusTypeDef errorcode = HAL_OK;
 80051ca:	2317      	movs	r3, #23
 80051cc:	18fb      	adds	r3, r7, r3
 80051ce:	2200      	movs	r2, #0
 80051d0:	701a      	strb	r2, [r3, #0]

  /* Check Direction parameter */
  assert_param(IS_SPI_DIRECTION_2LINES_OR_1LINE(hspi->Init.Direction));

  /* Process Locked */
  __HAL_LOCK(hspi);
 80051d2:	68fb      	ldr	r3, [r7, #12]
 80051d4:	225c      	movs	r2, #92	; 0x5c
 80051d6:	5c9b      	ldrb	r3, [r3, r2]
 80051d8:	2b01      	cmp	r3, #1
 80051da:	d101      	bne.n	80051e0 <HAL_SPI_Transmit_DMA+0x24>
 80051dc:	2302      	movs	r3, #2
 80051de:	e0df      	b.n	80053a0 <HAL_SPI_Transmit_DMA+0x1e4>
 80051e0:	68fb      	ldr	r3, [r7, #12]
 80051e2:	225c      	movs	r2, #92	; 0x5c
 80051e4:	2101      	movs	r1, #1
 80051e6:	5499      	strb	r1, [r3, r2]

  if (hspi->State != HAL_SPI_STATE_READY)
 80051e8:	68fb      	ldr	r3, [r7, #12]
 80051ea:	225d      	movs	r2, #93	; 0x5d
 80051ec:	5c9b      	ldrb	r3, [r3, r2]
 80051ee:	b2db      	uxtb	r3, r3
 80051f0:	2b01      	cmp	r3, #1
 80051f2:	d004      	beq.n	80051fe <HAL_SPI_Transmit_DMA+0x42>
  {
    errorcode = HAL_BUSY;
 80051f4:	2317      	movs	r3, #23
 80051f6:	18fb      	adds	r3, r7, r3
 80051f8:	2202      	movs	r2, #2
 80051fa:	701a      	strb	r2, [r3, #0]
    goto error;
 80051fc:	e0c9      	b.n	8005392 <HAL_SPI_Transmit_DMA+0x1d6>
  }

  if ((pData == NULL) || (Size == 0U))
 80051fe:	68bb      	ldr	r3, [r7, #8]
 8005200:	2b00      	cmp	r3, #0
 8005202:	d003      	beq.n	800520c <HAL_SPI_Transmit_DMA+0x50>
 8005204:	1dbb      	adds	r3, r7, #6
 8005206:	881b      	ldrh	r3, [r3, #0]
 8005208:	2b00      	cmp	r3, #0
 800520a:	d104      	bne.n	8005216 <HAL_SPI_Transmit_DMA+0x5a>
  {
    errorcode = HAL_ERROR;
 800520c:	2317      	movs	r3, #23
 800520e:	18fb      	adds	r3, r7, r3
 8005210:	2201      	movs	r2, #1
 8005212:	701a      	strb	r2, [r3, #0]
    goto error;
 8005214:	e0bd      	b.n	8005392 <HAL_SPI_Transmit_DMA+0x1d6>
  }

  /* Set the transaction information */
  hspi->State       = HAL_SPI_STATE_BUSY_TX;
 8005216:	68fb      	ldr	r3, [r7, #12]
 8005218:	225d      	movs	r2, #93	; 0x5d
 800521a:	2103      	movs	r1, #3
 800521c:	5499      	strb	r1, [r3, r2]
  hspi->ErrorCode   = HAL_SPI_ERROR_NONE;
 800521e:	68fb      	ldr	r3, [r7, #12]
 8005220:	2200      	movs	r2, #0
 8005222:	661a      	str	r2, [r3, #96]	; 0x60
  hspi->pTxBuffPtr  = (uint8_t *)pData;
 8005224:	68fb      	ldr	r3, [r7, #12]
 8005226:	68ba      	ldr	r2, [r7, #8]
 8005228:	639a      	str	r2, [r3, #56]	; 0x38
  hspi->TxXferSize  = Size;
 800522a:	68fb      	ldr	r3, [r7, #12]
 800522c:	1dba      	adds	r2, r7, #6
 800522e:	8812      	ldrh	r2, [r2, #0]
 8005230:	879a      	strh	r2, [r3, #60]	; 0x3c
  hspi->TxXferCount = Size;
 8005232:	68fb      	ldr	r3, [r7, #12]
 8005234:	1dba      	adds	r2, r7, #6
 8005236:	8812      	ldrh	r2, [r2, #0]
 8005238:	87da      	strh	r2, [r3, #62]	; 0x3e

  /* Init field not used in handle to zero */
  hspi->pRxBuffPtr  = (uint8_t *)NULL;
 800523a:	68fb      	ldr	r3, [r7, #12]
 800523c:	2200      	movs	r2, #0
 800523e:	641a      	str	r2, [r3, #64]	; 0x40
  hspi->TxISR       = NULL;
 8005240:	68fb      	ldr	r3, [r7, #12]
 8005242:	2200      	movs	r2, #0
 8005244:	651a      	str	r2, [r3, #80]	; 0x50
  hspi->RxISR       = NULL;
 8005246:	68fb      	ldr	r3, [r7, #12]
 8005248:	2200      	movs	r2, #0
 800524a:	64da      	str	r2, [r3, #76]	; 0x4c
  hspi->RxXferSize  = 0U;
 800524c:	68fb      	ldr	r3, [r7, #12]
 800524e:	2244      	movs	r2, #68	; 0x44
 8005250:	2100      	movs	r1, #0
 8005252:	5299      	strh	r1, [r3, r2]
  hspi->RxXferCount = 0U;
 8005254:	68fb      	ldr	r3, [r7, #12]
 8005256:	2246      	movs	r2, #70	; 0x46
 8005258:	2100      	movs	r1, #0
 800525a:	5299      	strh	r1, [r3, r2]

  /* Configure communication direction : 1Line */
  if (hspi->Init.Direction == SPI_DIRECTION_1LINE)
 800525c:	68fb      	ldr	r3, [r7, #12]
 800525e:	689a      	ldr	r2, [r3, #8]
 8005260:	2380      	movs	r3, #128	; 0x80
 8005262:	021b      	lsls	r3, r3, #8
 8005264:	429a      	cmp	r2, r3
 8005266:	d108      	bne.n	800527a <HAL_SPI_Transmit_DMA+0xbe>
  {
    SPI_1LINE_TX(hspi);
 8005268:	68fb      	ldr	r3, [r7, #12]
 800526a:	681b      	ldr	r3, [r3, #0]
 800526c:	681a      	ldr	r2, [r3, #0]
 800526e:	68fb      	ldr	r3, [r7, #12]
 8005270:	681b      	ldr	r3, [r3, #0]
 8005272:	2180      	movs	r1, #128	; 0x80
 8005274:	01c9      	lsls	r1, r1, #7
 8005276:	430a      	orrs	r2, r1
 8005278:	601a      	str	r2, [r3, #0]
    SPI_RESET_CRC(hspi);
  }
#endif /* USE_SPI_CRC */

  /* Set the SPI TxDMA Half transfer complete callback */
  hspi->hdmatx->XferHalfCpltCallback = SPI_DMAHalfTransmitCplt;
 800527a:	68fb      	ldr	r3, [r7, #12]
 800527c:	6d5b      	ldr	r3, [r3, #84]	; 0x54
 800527e:	4a4a      	ldr	r2, [pc, #296]	; (80053a8 <HAL_SPI_Transmit_DMA+0x1ec>)
 8005280:	62da      	str	r2, [r3, #44]	; 0x2c

  /* Set the SPI TxDMA transfer complete callback */
  hspi->hdmatx->XferCpltCallback = SPI_DMATransmitCplt;
 8005282:	68fb      	ldr	r3, [r7, #12]
 8005284:	6d5b      	ldr	r3, [r3, #84]	; 0x54
 8005286:	4a49      	ldr	r2, [pc, #292]	; (80053ac <HAL_SPI_Transmit_DMA+0x1f0>)
 8005288:	629a      	str	r2, [r3, #40]	; 0x28

  /* Set the DMA error callback */
  hspi->hdmatx->XferErrorCallback = SPI_DMAError;
 800528a:	68fb      	ldr	r3, [r7, #12]
 800528c:	6d5b      	ldr	r3, [r3, #84]	; 0x54
 800528e:	4a48      	ldr	r2, [pc, #288]	; (80053b0 <HAL_SPI_Transmit_DMA+0x1f4>)
 8005290:	631a      	str	r2, [r3, #48]	; 0x30

  /* Set the DMA AbortCpltCallback */
  hspi->hdmatx->XferAbortCallback = NULL;
 8005292:	68fb      	ldr	r3, [r7, #12]
 8005294:	6d5b      	ldr	r3, [r3, #84]	; 0x54
 8005296:	2200      	movs	r2, #0
 8005298:	635a      	str	r2, [r3, #52]	; 0x34

  CLEAR_BIT(hspi->Instance->CR2, SPI_CR2_LDMATX);
 800529a:	68fb      	ldr	r3, [r7, #12]
 800529c:	681b      	ldr	r3, [r3, #0]
 800529e:	685a      	ldr	r2, [r3, #4]
 80052a0:	68fb      	ldr	r3, [r7, #12]
 80052a2:	681b      	ldr	r3, [r3, #0]
 80052a4:	4943      	ldr	r1, [pc, #268]	; (80053b4 <HAL_SPI_Transmit_DMA+0x1f8>)
 80052a6:	400a      	ands	r2, r1
 80052a8:	605a      	str	r2, [r3, #4]
  /* Packing mode is enabled only if the DMA setting is HALWORD */
  if ((hspi->Init.DataSize <= SPI_DATASIZE_8BIT) && (hspi->hdmatx->Init.MemDataAlignment == DMA_MDATAALIGN_HALFWORD))
 80052aa:	68fb      	ldr	r3, [r7, #12]
 80052ac:	68da      	ldr	r2, [r3, #12]
 80052ae:	23e0      	movs	r3, #224	; 0xe0
 80052b0:	00db      	lsls	r3, r3, #3
 80052b2:	429a      	cmp	r2, r3
 80052b4:	d82f      	bhi.n	8005316 <HAL_SPI_Transmit_DMA+0x15a>
 80052b6:	68fb      	ldr	r3, [r7, #12]
 80052b8:	6d5b      	ldr	r3, [r3, #84]	; 0x54
 80052ba:	695a      	ldr	r2, [r3, #20]
 80052bc:	2380      	movs	r3, #128	; 0x80
 80052be:	00db      	lsls	r3, r3, #3
 80052c0:	429a      	cmp	r2, r3
 80052c2:	d128      	bne.n	8005316 <HAL_SPI_Transmit_DMA+0x15a>
  {
    /* Check the even/odd of the data size + crc if enabled */
    if ((hspi->TxXferCount & 0x1U) == 0U)
 80052c4:	68fb      	ldr	r3, [r7, #12]
 80052c6:	8fdb      	ldrh	r3, [r3, #62]	; 0x3e
 80052c8:	b29b      	uxth	r3, r3
 80052ca:	001a      	movs	r2, r3
 80052cc:	2301      	movs	r3, #1
 80052ce:	4013      	ands	r3, r2
 80052d0:	d10f      	bne.n	80052f2 <HAL_SPI_Transmit_DMA+0x136>
    {
      CLEAR_BIT(hspi->Instance->CR2, SPI_CR2_LDMATX);
 80052d2:	68fb      	ldr	r3, [r7, #12]
 80052d4:	681b      	ldr	r3, [r3, #0]
 80052d6:	685a      	ldr	r2, [r3, #4]
 80052d8:	68fb      	ldr	r3, [r7, #12]
 80052da:	681b      	ldr	r3, [r3, #0]
 80052dc:	4935      	ldr	r1, [pc, #212]	; (80053b4 <HAL_SPI_Transmit_DMA+0x1f8>)
 80052de:	400a      	ands	r2, r1
 80052e0:	605a      	str	r2, [r3, #4]
      hspi->TxXferCount = (hspi->TxXferCount >> 1U);
 80052e2:	68fb      	ldr	r3, [r7, #12]
 80052e4:	8fdb      	ldrh	r3, [r3, #62]	; 0x3e
 80052e6:	b29b      	uxth	r3, r3
 80052e8:	085b      	lsrs	r3, r3, #1
 80052ea:	b29a      	uxth	r2, r3
 80052ec:	68fb      	ldr	r3, [r7, #12]
 80052ee:	87da      	strh	r2, [r3, #62]	; 0x3e
 80052f0:	e011      	b.n	8005316 <HAL_SPI_Transmit_DMA+0x15a>
    }
    else
    {
      SET_BIT(hspi->Instance->CR2, SPI_CR2_LDMATX);
 80052f2:	68fb      	ldr	r3, [r7, #12]
 80052f4:	681b      	ldr	r3, [r3, #0]
 80052f6:	685a      	ldr	r2, [r3, #4]
 80052f8:	68fb      	ldr	r3, [r7, #12]
 80052fa:	681b      	ldr	r3, [r3, #0]
 80052fc:	2180      	movs	r1, #128	; 0x80
 80052fe:	01c9      	lsls	r1, r1, #7
 8005300:	430a      	orrs	r2, r1
 8005302:	605a      	str	r2, [r3, #4]
      hspi->TxXferCount = (hspi->TxXferCount >> 1U) + 1U;
 8005304:	68fb      	ldr	r3, [r7, #12]
 8005306:	8fdb      	ldrh	r3, [r3, #62]	; 0x3e
 8005308:	b29b      	uxth	r3, r3
 800530a:	085b      	lsrs	r3, r3, #1
 800530c:	b29b      	uxth	r3, r3
 800530e:	3301      	adds	r3, #1
 8005310:	b29a      	uxth	r2, r3
 8005312:	68fb      	ldr	r3, [r7, #12]
 8005314:	87da      	strh	r2, [r3, #62]	; 0x3e
    }
  }

  /* Enable the Tx DMA Stream/Channel */
  if (HAL_OK != HAL_DMA_Start_IT(hspi->hdmatx, (uint32_t)hspi->pTxBuffPtr, (uint32_t)&hspi->Instance->DR,
 8005316:	68fb      	ldr	r3, [r7, #12]
 8005318:	6d58      	ldr	r0, [r3, #84]	; 0x54
 800531a:	68fb      	ldr	r3, [r7, #12]
 800531c:	6b9b      	ldr	r3, [r3, #56]	; 0x38
 800531e:	0019      	movs	r1, r3
 8005320:	68fb      	ldr	r3, [r7, #12]
 8005322:	681b      	ldr	r3, [r3, #0]
 8005324:	330c      	adds	r3, #12
 8005326:	001a      	movs	r2, r3
                                 hspi->TxXferCount))
 8005328:	68fb      	ldr	r3, [r7, #12]
 800532a:	8fdb      	ldrh	r3, [r3, #62]	; 0x3e
 800532c:	b29b      	uxth	r3, r3
  if (HAL_OK != HAL_DMA_Start_IT(hspi->hdmatx, (uint32_t)hspi->pTxBuffPtr, (uint32_t)&hspi->Instance->DR,
 800532e:	f7fe fb01 	bl	8003934 <HAL_DMA_Start_IT>
 8005332:	1e03      	subs	r3, r0, #0
 8005334:	d00e      	beq.n	8005354 <HAL_SPI_Transmit_DMA+0x198>
  {
    /* Update SPI error code */
    SET_BIT(hspi->ErrorCode, HAL_SPI_ERROR_DMA);
 8005336:	68fb      	ldr	r3, [r7, #12]
 8005338:	6e1b      	ldr	r3, [r3, #96]	; 0x60
 800533a:	2210      	movs	r2, #16
 800533c:	431a      	orrs	r2, r3
 800533e:	68fb      	ldr	r3, [r7, #12]
 8005340:	661a      	str	r2, [r3, #96]	; 0x60
    errorcode = HAL_ERROR;
 8005342:	2317      	movs	r3, #23
 8005344:	18fb      	adds	r3, r7, r3
 8005346:	2201      	movs	r2, #1
 8005348:	701a      	strb	r2, [r3, #0]

    hspi->State = HAL_SPI_STATE_READY;
 800534a:	68fb      	ldr	r3, [r7, #12]
 800534c:	225d      	movs	r2, #93	; 0x5d
 800534e:	2101      	movs	r1, #1
 8005350:	5499      	strb	r1, [r3, r2]
    goto error;
 8005352:	e01e      	b.n	8005392 <HAL_SPI_Transmit_DMA+0x1d6>
  }

  /* Check if the SPI is already enabled */
  if ((hspi->Instance->CR1 & SPI_CR1_SPE) != SPI_CR1_SPE)
 8005354:	68fb      	ldr	r3, [r7, #12]
 8005356:	681b      	ldr	r3, [r3, #0]
 8005358:	681b      	ldr	r3, [r3, #0]
 800535a:	2240      	movs	r2, #64	; 0x40
 800535c:	4013      	ands	r3, r2
 800535e:	2b40      	cmp	r3, #64	; 0x40
 8005360:	d007      	beq.n	8005372 <HAL_SPI_Transmit_DMA+0x1b6>
  {
    /* Enable SPI peripheral */
    __HAL_SPI_ENABLE(hspi);
 8005362:	68fb      	ldr	r3, [r7, #12]
 8005364:	681b      	ldr	r3, [r3, #0]
 8005366:	681a      	ldr	r2, [r3, #0]
 8005368:	68fb      	ldr	r3, [r7, #12]
 800536a:	681b      	ldr	r3, [r3, #0]
 800536c:	2140      	movs	r1, #64	; 0x40
 800536e:	430a      	orrs	r2, r1
 8005370:	601a      	str	r2, [r3, #0]
  }

  /* Enable the SPI Error Interrupt Bit */
  __HAL_SPI_ENABLE_IT(hspi, (SPI_IT_ERR));
 8005372:	68fb      	ldr	r3, [r7, #12]
 8005374:	681b      	ldr	r3, [r3, #0]
 8005376:	685a      	ldr	r2, [r3, #4]
 8005378:	68fb      	ldr	r3, [r7, #12]
 800537a:	681b      	ldr	r3, [r3, #0]
 800537c:	2120      	movs	r1, #32
 800537e:	430a      	orrs	r2, r1
 8005380:	605a      	str	r2, [r3, #4]

  /* Enable Tx DMA Request */
  SET_BIT(hspi->Instance->CR2, SPI_CR2_TXDMAEN);
 8005382:	68fb      	ldr	r3, [r7, #12]
 8005384:	681b      	ldr	r3, [r3, #0]
 8005386:	685a      	ldr	r2, [r3, #4]
 8005388:	68fb      	ldr	r3, [r7, #12]
 800538a:	681b      	ldr	r3, [r3, #0]
 800538c:	2102      	movs	r1, #2
 800538e:	430a      	orrs	r2, r1
 8005390:	605a      	str	r2, [r3, #4]

error :
  /* Process Unlocked */
  __HAL_UNLOCK(hspi);
 8005392:	68fb      	ldr	r3, [r7, #12]
 8005394:	225c      	movs	r2, #92	; 0x5c
 8005396:	2100      	movs	r1, #0
 8005398:	5499      	strb	r1, [r3, r2]
  return errorcode;
 800539a:	2317      	movs	r3, #23
 800539c:	18fb      	adds	r3, r7, r3
 800539e:	781b      	ldrb	r3, [r3, #0]
}
 80053a0:	0018      	movs	r0, r3
 80053a2:	46bd      	mov	sp, r7
 80053a4:	b006      	add	sp, #24
 80053a6:	bd80      	pop	{r7, pc}
 80053a8:	08005c0d 	.word	0x08005c0d
 80053ac:	08005a41 	.word	0x08005a41
 80053b0:	08005c67 	.word	0x08005c67
 80053b4:	ffffbfff 	.word	0xffffbfff

080053b8 <HAL_SPI_Receive_DMA>:
  * @note   When the CRC feature is enabled the pData Length must be Size + 1.
  * @param  Size amount of data to be sent
  * @retval HAL status
  */
HAL_StatusTypeDef HAL_SPI_Receive_DMA(SPI_HandleTypeDef *hspi, uint8_t *pData, uint16_t Size)
{
 80053b8:	b590      	push	{r4, r7, lr}
 80053ba:	b087      	sub	sp, #28
 80053bc:	af00      	add	r7, sp, #0
 80053be:	60f8      	str	r0, [r7, #12]
 80053c0:	60b9      	str	r1, [r7, #8]
 80053c2:	1dbb      	adds	r3, r7, #6
 80053c4:	801a      	strh	r2, [r3, #0]
  HAL_StatusTypeDef errorcode = HAL_OK;
 80053c6:	2317      	movs	r3, #23
 80053c8:	18fb      	adds	r3, r7, r3
 80053ca:	2200      	movs	r2, #0
 80053cc:	701a      	strb	r2, [r3, #0]

  /* Check rx dma handle */
  assert_param(IS_SPI_DMA_HANDLE(hspi->hdmarx));

  if ((hspi->Init.Direction == SPI_DIRECTION_2LINES) && (hspi->Init.Mode == SPI_MODE_MASTER))
 80053ce:	68fb      	ldr	r3, [r7, #12]
 80053d0:	689b      	ldr	r3, [r3, #8]
 80053d2:	2b00      	cmp	r3, #0
 80053d4:	d112      	bne.n	80053fc <HAL_SPI_Receive_DMA+0x44>
 80053d6:	68fb      	ldr	r3, [r7, #12]
 80053d8:	685a      	ldr	r2, [r3, #4]
 80053da:	2382      	movs	r3, #130	; 0x82
 80053dc:	005b      	lsls	r3, r3, #1
 80053de:	429a      	cmp	r2, r3
 80053e0:	d10c      	bne.n	80053fc <HAL_SPI_Receive_DMA+0x44>
  {
    hspi->State = HAL_SPI_STATE_BUSY_RX;
 80053e2:	68fb      	ldr	r3, [r7, #12]
 80053e4:	225d      	movs	r2, #93	; 0x5d
 80053e6:	2104      	movs	r1, #4
 80053e8:	5499      	strb	r1, [r3, r2]

    /* Check tx dma handle */
    assert_param(IS_SPI_DMA_HANDLE(hspi->hdmatx));

    /* Call transmit-receive function to send Dummy data on Tx line and generate clock on CLK line */
    return HAL_SPI_TransmitReceive_DMA(hspi, pData, pData, Size);
 80053ea:	1dbb      	adds	r3, r7, #6
 80053ec:	881b      	ldrh	r3, [r3, #0]
 80053ee:	68ba      	ldr	r2, [r7, #8]
 80053f0:	68b9      	ldr	r1, [r7, #8]
 80053f2:	68f8      	ldr	r0, [r7, #12]
 80053f4:	f000 f928 	bl	8005648 <HAL_SPI_TransmitReceive_DMA>
 80053f8:	0003      	movs	r3, r0
 80053fa:	e115      	b.n	8005628 <HAL_SPI_Receive_DMA+0x270>
  }

  /* Process Locked */
  __HAL_LOCK(hspi);
 80053fc:	68fb      	ldr	r3, [r7, #12]
 80053fe:	225c      	movs	r2, #92	; 0x5c
 8005400:	5c9b      	ldrb	r3, [r3, r2]
 8005402:	2b01      	cmp	r3, #1
 8005404:	d101      	bne.n	800540a <HAL_SPI_Receive_DMA+0x52>
 8005406:	2302      	movs	r3, #2
 8005408:	e10e      	b.n	8005628 <HAL_SPI_Receive_DMA+0x270>
 800540a:	68fb      	ldr	r3, [r7, #12]
 800540c:	225c      	movs	r2, #92	; 0x5c
 800540e:	2101      	movs	r1, #1
 8005410:	5499      	strb	r1, [r3, r2]

  if (hspi->State != HAL_SPI_STATE_READY)
 8005412:	68fb      	ldr	r3, [r7, #12]
 8005414:	225d      	movs	r2, #93	; 0x5d
 8005416:	5c9b      	ldrb	r3, [r3, r2]
 8005418:	b2db      	uxtb	r3, r3
 800541a:	2b01      	cmp	r3, #1
 800541c:	d004      	beq.n	8005428 <HAL_SPI_Receive_DMA+0x70>
  {
    errorcode = HAL_BUSY;
 800541e:	2317      	movs	r3, #23
 8005420:	18fb      	adds	r3, r7, r3
 8005422:	2202      	movs	r2, #2
 8005424:	701a      	strb	r2, [r3, #0]
    goto error;
 8005426:	e0f8      	b.n	800561a <HAL_SPI_Receive_DMA+0x262>
  }

  if ((pData == NULL) || (Size == 0U))
 8005428:	68bb      	ldr	r3, [r7, #8]
 800542a:	2b00      	cmp	r3, #0
 800542c:	d003      	beq.n	8005436 <HAL_SPI_Receive_DMA+0x7e>
 800542e:	1dbb      	adds	r3, r7, #6
 8005430:	881b      	ldrh	r3, [r3, #0]
 8005432:	2b00      	cmp	r3, #0
 8005434:	d104      	bne.n	8005440 <HAL_SPI_Receive_DMA+0x88>
  {
    errorcode = HAL_ERROR;
 8005436:	2317      	movs	r3, #23
 8005438:	18fb      	adds	r3, r7, r3
 800543a:	2201      	movs	r2, #1
 800543c:	701a      	strb	r2, [r3, #0]
    goto error;
 800543e:	e0ec      	b.n	800561a <HAL_SPI_Receive_DMA+0x262>
  }

  /* Set the transaction information */
  hspi->State       = HAL_SPI_STATE_BUSY_RX;
 8005440:	68fb      	ldr	r3, [r7, #12]
 8005442:	225d      	movs	r2, #93	; 0x5d
 8005444:	2104      	movs	r1, #4
 8005446:	5499      	strb	r1, [r3, r2]
  hspi->ErrorCode   = HAL_SPI_ERROR_NONE;
 8005448:	68fb      	ldr	r3, [r7, #12]
 800544a:	2200      	movs	r2, #0
 800544c:	661a      	str	r2, [r3, #96]	; 0x60
  hspi->pRxBuffPtr  = (uint8_t *)pData;
 800544e:	68fb      	ldr	r3, [r7, #12]
 8005450:	68ba      	ldr	r2, [r7, #8]
 8005452:	641a      	str	r2, [r3, #64]	; 0x40
  hspi->RxXferSize  = Size;
 8005454:	68fb      	ldr	r3, [r7, #12]
 8005456:	1dba      	adds	r2, r7, #6
 8005458:	2144      	movs	r1, #68	; 0x44
 800545a:	8812      	ldrh	r2, [r2, #0]
 800545c:	525a      	strh	r2, [r3, r1]
  hspi->RxXferCount = Size;
 800545e:	68fb      	ldr	r3, [r7, #12]
 8005460:	1dba      	adds	r2, r7, #6
 8005462:	2146      	movs	r1, #70	; 0x46
 8005464:	8812      	ldrh	r2, [r2, #0]
 8005466:	525a      	strh	r2, [r3, r1]

  /*Init field not used in handle to zero */
  hspi->RxISR       = NULL;
 8005468:	68fb      	ldr	r3, [r7, #12]
 800546a:	2200      	movs	r2, #0
 800546c:	64da      	str	r2, [r3, #76]	; 0x4c
  hspi->TxISR       = NULL;
 800546e:	68fb      	ldr	r3, [r7, #12]
 8005470:	2200      	movs	r2, #0
 8005472:	651a      	str	r2, [r3, #80]	; 0x50
  hspi->TxXferSize  = 0U;
 8005474:	68fb      	ldr	r3, [r7, #12]
 8005476:	2200      	movs	r2, #0
 8005478:	879a      	strh	r2, [r3, #60]	; 0x3c
  hspi->TxXferCount = 0U;
 800547a:	68fb      	ldr	r3, [r7, #12]
 800547c:	2200      	movs	r2, #0
 800547e:	87da      	strh	r2, [r3, #62]	; 0x3e

  /* Configure communication direction : 1Line */
  if (hspi->Init.Direction == SPI_DIRECTION_1LINE)
 8005480:	68fb      	ldr	r3, [r7, #12]
 8005482:	689a      	ldr	r2, [r3, #8]
 8005484:	2380      	movs	r3, #128	; 0x80
 8005486:	021b      	lsls	r3, r3, #8
 8005488:	429a      	cmp	r2, r3
 800548a:	d107      	bne.n	800549c <HAL_SPI_Receive_DMA+0xe4>
  {
    SPI_1LINE_RX(hspi);
 800548c:	68fb      	ldr	r3, [r7, #12]
 800548e:	681b      	ldr	r3, [r3, #0]
 8005490:	681a      	ldr	r2, [r3, #0]
 8005492:	68fb      	ldr	r3, [r7, #12]
 8005494:	681b      	ldr	r3, [r3, #0]
 8005496:	4966      	ldr	r1, [pc, #408]	; (8005630 <HAL_SPI_Receive_DMA+0x278>)
 8005498:	400a      	ands	r2, r1
 800549a:	601a      	str	r2, [r3, #0]
  }
#endif /* USE_SPI_CRC */

#if defined (STM32F030x6) || defined (STM32F030x8) || defined (STM32F031x6)|| defined (STM32F038xx) || defined (STM32F051x8) || defined (STM32F058xx)
  /* Packing mode management is enabled by the DMA settings */
  if ((hspi->Init.DataSize <= SPI_DATASIZE_8BIT) && (hspi->hdmarx->Init.MemDataAlignment == DMA_MDATAALIGN_HALFWORD))
 800549c:	68fb      	ldr	r3, [r7, #12]
 800549e:	68da      	ldr	r2, [r3, #12]
 80054a0:	23e0      	movs	r3, #224	; 0xe0
 80054a2:	00db      	lsls	r3, r3, #3
 80054a4:	429a      	cmp	r2, r3
 80054a6:	d80b      	bhi.n	80054c0 <HAL_SPI_Receive_DMA+0x108>
 80054a8:	68fb      	ldr	r3, [r7, #12]
 80054aa:	6d9b      	ldr	r3, [r3, #88]	; 0x58
 80054ac:	695a      	ldr	r2, [r3, #20]
 80054ae:	2380      	movs	r3, #128	; 0x80
 80054b0:	00db      	lsls	r3, r3, #3
 80054b2:	429a      	cmp	r2, r3
 80054b4:	d104      	bne.n	80054c0 <HAL_SPI_Receive_DMA+0x108>
  {
    /* Restriction the DMA data received is not allowed in this mode */
    errorcode = HAL_ERROR;
 80054b6:	2317      	movs	r3, #23
 80054b8:	18fb      	adds	r3, r7, r3
 80054ba:	2201      	movs	r2, #1
 80054bc:	701a      	strb	r2, [r3, #0]
    goto error;
 80054be:	e0ac      	b.n	800561a <HAL_SPI_Receive_DMA+0x262>
  }
#endif

  CLEAR_BIT(hspi->Instance->CR2, SPI_CR2_LDMARX);
 80054c0:	68fb      	ldr	r3, [r7, #12]
 80054c2:	681b      	ldr	r3, [r3, #0]
 80054c4:	685a      	ldr	r2, [r3, #4]
 80054c6:	68fb      	ldr	r3, [r7, #12]
 80054c8:	681b      	ldr	r3, [r3, #0]
 80054ca:	495a      	ldr	r1, [pc, #360]	; (8005634 <HAL_SPI_Receive_DMA+0x27c>)
 80054cc:	400a      	ands	r2, r1
 80054ce:	605a      	str	r2, [r3, #4]
  if (hspi->Init.DataSize > SPI_DATASIZE_8BIT)
 80054d0:	68fb      	ldr	r3, [r7, #12]
 80054d2:	68da      	ldr	r2, [r3, #12]
 80054d4:	23e0      	movs	r3, #224	; 0xe0
 80054d6:	00db      	lsls	r3, r3, #3
 80054d8:	429a      	cmp	r2, r3
 80054da:	d908      	bls.n	80054ee <HAL_SPI_Receive_DMA+0x136>
  {
    /* Set RX Fifo threshold according the reception data length: 16bit */
    CLEAR_BIT(hspi->Instance->CR2, SPI_RXFIFO_THRESHOLD);
 80054dc:	68fb      	ldr	r3, [r7, #12]
 80054de:	681b      	ldr	r3, [r3, #0]
 80054e0:	685a      	ldr	r2, [r3, #4]
 80054e2:	68fb      	ldr	r3, [r7, #12]
 80054e4:	681b      	ldr	r3, [r3, #0]
 80054e6:	4954      	ldr	r1, [pc, #336]	; (8005638 <HAL_SPI_Receive_DMA+0x280>)
 80054e8:	400a      	ands	r2, r1
 80054ea:	605a      	str	r2, [r3, #4]
 80054ec:	e045      	b.n	800557a <HAL_SPI_Receive_DMA+0x1c2>
  }
  else
  {
    /* Set RX Fifo threshold according the reception data length: 8bit */
    SET_BIT(hspi->Instance->CR2, SPI_RXFIFO_THRESHOLD);
 80054ee:	68fb      	ldr	r3, [r7, #12]
 80054f0:	681b      	ldr	r3, [r3, #0]
 80054f2:	685a      	ldr	r2, [r3, #4]
 80054f4:	68fb      	ldr	r3, [r7, #12]
 80054f6:	681b      	ldr	r3, [r3, #0]
 80054f8:	2180      	movs	r1, #128	; 0x80
 80054fa:	0149      	lsls	r1, r1, #5
 80054fc:	430a      	orrs	r2, r1
 80054fe:	605a      	str	r2, [r3, #4]

    if (hspi->hdmarx->Init.MemDataAlignment == DMA_MDATAALIGN_HALFWORD)
 8005500:	68fb      	ldr	r3, [r7, #12]
 8005502:	6d9b      	ldr	r3, [r3, #88]	; 0x58
 8005504:	695a      	ldr	r2, [r3, #20]
 8005506:	2380      	movs	r3, #128	; 0x80
 8005508:	00db      	lsls	r3, r3, #3
 800550a:	429a      	cmp	r2, r3
 800550c:	d135      	bne.n	800557a <HAL_SPI_Receive_DMA+0x1c2>
    {
      /* Set RX Fifo threshold according the reception data length: 16bit */
      CLEAR_BIT(hspi->Instance->CR2, SPI_RXFIFO_THRESHOLD);
 800550e:	68fb      	ldr	r3, [r7, #12]
 8005510:	681b      	ldr	r3, [r3, #0]
 8005512:	685a      	ldr	r2, [r3, #4]
 8005514:	68fb      	ldr	r3, [r7, #12]
 8005516:	681b      	ldr	r3, [r3, #0]
 8005518:	4947      	ldr	r1, [pc, #284]	; (8005638 <HAL_SPI_Receive_DMA+0x280>)
 800551a:	400a      	ands	r2, r1
 800551c:	605a      	str	r2, [r3, #4]

      if ((hspi->RxXferCount & 0x1U) == 0x0U)
 800551e:	68fb      	ldr	r3, [r7, #12]
 8005520:	2246      	movs	r2, #70	; 0x46
 8005522:	5a9b      	ldrh	r3, [r3, r2]
 8005524:	b29b      	uxth	r3, r3
 8005526:	001a      	movs	r2, r3
 8005528:	2301      	movs	r3, #1
 800552a:	4013      	ands	r3, r2
 800552c:	d111      	bne.n	8005552 <HAL_SPI_Receive_DMA+0x19a>
      {
        CLEAR_BIT(hspi->Instance->CR2, SPI_CR2_LDMARX);
 800552e:	68fb      	ldr	r3, [r7, #12]
 8005530:	681b      	ldr	r3, [r3, #0]
 8005532:	685a      	ldr	r2, [r3, #4]
 8005534:	68fb      	ldr	r3, [r7, #12]
 8005536:	681b      	ldr	r3, [r3, #0]
 8005538:	493e      	ldr	r1, [pc, #248]	; (8005634 <HAL_SPI_Receive_DMA+0x27c>)
 800553a:	400a      	ands	r2, r1
 800553c:	605a      	str	r2, [r3, #4]
        hspi->RxXferCount = hspi->RxXferCount >> 1U;
 800553e:	68fb      	ldr	r3, [r7, #12]
 8005540:	2246      	movs	r2, #70	; 0x46
 8005542:	5a9b      	ldrh	r3, [r3, r2]
 8005544:	b29b      	uxth	r3, r3
 8005546:	085b      	lsrs	r3, r3, #1
 8005548:	b299      	uxth	r1, r3
 800554a:	68fb      	ldr	r3, [r7, #12]
 800554c:	2246      	movs	r2, #70	; 0x46
 800554e:	5299      	strh	r1, [r3, r2]
 8005550:	e013      	b.n	800557a <HAL_SPI_Receive_DMA+0x1c2>
      }
      else
      {
        SET_BIT(hspi->Instance->CR2, SPI_CR2_LDMARX);
 8005552:	68fb      	ldr	r3, [r7, #12]
 8005554:	681b      	ldr	r3, [r3, #0]
 8005556:	685a      	ldr	r2, [r3, #4]
 8005558:	68fb      	ldr	r3, [r7, #12]
 800555a:	681b      	ldr	r3, [r3, #0]
 800555c:	2180      	movs	r1, #128	; 0x80
 800555e:	0189      	lsls	r1, r1, #6
 8005560:	430a      	orrs	r2, r1
 8005562:	605a      	str	r2, [r3, #4]
        hspi->RxXferCount = (hspi->RxXferCount >> 1U) + 1U;
 8005564:	68fb      	ldr	r3, [r7, #12]
 8005566:	2246      	movs	r2, #70	; 0x46
 8005568:	5a9b      	ldrh	r3, [r3, r2]
 800556a:	b29b      	uxth	r3, r3
 800556c:	085b      	lsrs	r3, r3, #1
 800556e:	b29b      	uxth	r3, r3
 8005570:	3301      	adds	r3, #1
 8005572:	b299      	uxth	r1, r3
 8005574:	68fb      	ldr	r3, [r7, #12]
 8005576:	2246      	movs	r2, #70	; 0x46
 8005578:	5299      	strh	r1, [r3, r2]
      }
    }
  }

  /* Set the SPI RxDMA Half transfer complete callback */
  hspi->hdmarx->XferHalfCpltCallback = SPI_DMAHalfReceiveCplt;
 800557a:	68fb      	ldr	r3, [r7, #12]
 800557c:	6d9b      	ldr	r3, [r3, #88]	; 0x58
 800557e:	4a2f      	ldr	r2, [pc, #188]	; (800563c <HAL_SPI_Receive_DMA+0x284>)
 8005580:	62da      	str	r2, [r3, #44]	; 0x2c

  /* Set the SPI Rx DMA transfer complete callback */
  hspi->hdmarx->XferCpltCallback = SPI_DMAReceiveCplt;
 8005582:	68fb      	ldr	r3, [r7, #12]
 8005584:	6d9b      	ldr	r3, [r3, #88]	; 0x58
 8005586:	4a2e      	ldr	r2, [pc, #184]	; (8005640 <HAL_SPI_Receive_DMA+0x288>)
 8005588:	629a      	str	r2, [r3, #40]	; 0x28

  /* Set the DMA error callback */
  hspi->hdmarx->XferErrorCallback = SPI_DMAError;
 800558a:	68fb      	ldr	r3, [r7, #12]
 800558c:	6d9b      	ldr	r3, [r3, #88]	; 0x58
 800558e:	4a2d      	ldr	r2, [pc, #180]	; (8005644 <HAL_SPI_Receive_DMA+0x28c>)
 8005590:	631a      	str	r2, [r3, #48]	; 0x30

  /* Set the DMA AbortCpltCallback */
  hspi->hdmarx->XferAbortCallback = NULL;
 8005592:	68fb      	ldr	r3, [r7, #12]
 8005594:	6d9b      	ldr	r3, [r3, #88]	; 0x58
 8005596:	2200      	movs	r2, #0
 8005598:	635a      	str	r2, [r3, #52]	; 0x34

  /* Enable the Rx DMA Stream/Channel  */
  if (HAL_OK != HAL_DMA_Start_IT(hspi->hdmarx, (uint32_t)&hspi->Instance->DR, (uint32_t)hspi->pRxBuffPtr,
 800559a:	68fb      	ldr	r3, [r7, #12]
 800559c:	6d98      	ldr	r0, [r3, #88]	; 0x58
 800559e:	68fb      	ldr	r3, [r7, #12]
 80055a0:	681b      	ldr	r3, [r3, #0]
 80055a2:	330c      	adds	r3, #12
 80055a4:	0019      	movs	r1, r3
 80055a6:	68fb      	ldr	r3, [r7, #12]
 80055a8:	6c1b      	ldr	r3, [r3, #64]	; 0x40
 80055aa:	001c      	movs	r4, r3
                                 hspi->RxXferCount))
 80055ac:	68fb      	ldr	r3, [r7, #12]
 80055ae:	2246      	movs	r2, #70	; 0x46
 80055b0:	5a9b      	ldrh	r3, [r3, r2]
 80055b2:	b29b      	uxth	r3, r3
  if (HAL_OK != HAL_DMA_Start_IT(hspi->hdmarx, (uint32_t)&hspi->Instance->DR, (uint32_t)hspi->pRxBuffPtr,
 80055b4:	0022      	movs	r2, r4
 80055b6:	f7fe f9bd 	bl	8003934 <HAL_DMA_Start_IT>
 80055ba:	1e03      	subs	r3, r0, #0
 80055bc:	d00e      	beq.n	80055dc <HAL_SPI_Receive_DMA+0x224>
  {
    /* Update SPI error code */
    SET_BIT(hspi->ErrorCode, HAL_SPI_ERROR_DMA);
 80055be:	68fb      	ldr	r3, [r7, #12]
 80055c0:	6e1b      	ldr	r3, [r3, #96]	; 0x60
 80055c2:	2210      	movs	r2, #16
 80055c4:	431a      	orrs	r2, r3
 80055c6:	68fb      	ldr	r3, [r7, #12]
 80055c8:	661a      	str	r2, [r3, #96]	; 0x60
    errorcode = HAL_ERROR;
 80055ca:	2317      	movs	r3, #23
 80055cc:	18fb      	adds	r3, r7, r3
 80055ce:	2201      	movs	r2, #1
 80055d0:	701a      	strb	r2, [r3, #0]

    hspi->State = HAL_SPI_STATE_READY;
 80055d2:	68fb      	ldr	r3, [r7, #12]
 80055d4:	225d      	movs	r2, #93	; 0x5d
 80055d6:	2101      	movs	r1, #1
 80055d8:	5499      	strb	r1, [r3, r2]
    goto error;
 80055da:	e01e      	b.n	800561a <HAL_SPI_Receive_DMA+0x262>
  }

  /* Check if the SPI is already enabled */
  if ((hspi->Instance->CR1 & SPI_CR1_SPE) != SPI_CR1_SPE)
 80055dc:	68fb      	ldr	r3, [r7, #12]
 80055de:	681b      	ldr	r3, [r3, #0]
 80055e0:	681b      	ldr	r3, [r3, #0]
 80055e2:	2240      	movs	r2, #64	; 0x40
 80055e4:	4013      	ands	r3, r2
 80055e6:	2b40      	cmp	r3, #64	; 0x40
 80055e8:	d007      	beq.n	80055fa <HAL_SPI_Receive_DMA+0x242>
  {
    /* Enable SPI peripheral */
    __HAL_SPI_ENABLE(hspi);
 80055ea:	68fb      	ldr	r3, [r7, #12]
 80055ec:	681b      	ldr	r3, [r3, #0]
 80055ee:	681a      	ldr	r2, [r3, #0]
 80055f0:	68fb      	ldr	r3, [r7, #12]
 80055f2:	681b      	ldr	r3, [r3, #0]
 80055f4:	2140      	movs	r1, #64	; 0x40
 80055f6:	430a      	orrs	r2, r1
 80055f8:	601a      	str	r2, [r3, #0]
  }

  /* Enable the SPI Error Interrupt Bit */
  __HAL_SPI_ENABLE_IT(hspi, (SPI_IT_ERR));
 80055fa:	68fb      	ldr	r3, [r7, #12]
 80055fc:	681b      	ldr	r3, [r3, #0]
 80055fe:	685a      	ldr	r2, [r3, #4]
 8005600:	68fb      	ldr	r3, [r7, #12]
 8005602:	681b      	ldr	r3, [r3, #0]
 8005604:	2120      	movs	r1, #32
 8005606:	430a      	orrs	r2, r1
 8005608:	605a      	str	r2, [r3, #4]

  /* Enable Rx DMA Request */
  SET_BIT(hspi->Instance->CR2, SPI_CR2_RXDMAEN);
 800560a:	68fb      	ldr	r3, [r7, #12]
 800560c:	681b      	ldr	r3, [r3, #0]
 800560e:	685a      	ldr	r2, [r3, #4]
 8005610:	68fb      	ldr	r3, [r7, #12]
 8005612:	681b      	ldr	r3, [r3, #0]
 8005614:	2101      	movs	r1, #1
 8005616:	430a      	orrs	r2, r1
 8005618:	605a      	str	r2, [r3, #4]

error:
  /* Process Unlocked */
  __HAL_UNLOCK(hspi);
 800561a:	68fb      	ldr	r3, [r7, #12]
 800561c:	225c      	movs	r2, #92	; 0x5c
 800561e:	2100      	movs	r1, #0
 8005620:	5499      	strb	r1, [r3, r2]
  return errorcode;
 8005622:	2317      	movs	r3, #23
 8005624:	18fb      	adds	r3, r7, r3
 8005626:	781b      	ldrb	r3, [r3, #0]
}
 8005628:	0018      	movs	r0, r3
 800562a:	46bd      	mov	sp, r7
 800562c:	b007      	add	sp, #28
 800562e:	bd90      	pop	{r4, r7, pc}
 8005630:	ffffbfff 	.word	0xffffbfff
 8005634:	ffffdfff 	.word	0xffffdfff
 8005638:	ffffefff 	.word	0xffffefff
 800563c:	08005c2b 	.word	0x08005c2b
 8005640:	08005aed 	.word	0x08005aed
 8005644:	08005c67 	.word	0x08005c67

08005648 <HAL_SPI_TransmitReceive_DMA>:
  * @param  Size amount of data to be sent
  * @retval HAL status
  */
HAL_StatusTypeDef HAL_SPI_TransmitReceive_DMA(SPI_HandleTypeDef *hspi, uint8_t *pTxData, uint8_t *pRxData,
                                              uint16_t Size)
{
 8005648:	b590      	push	{r4, r7, lr}
 800564a:	b087      	sub	sp, #28
 800564c:	af00      	add	r7, sp, #0
 800564e:	60f8      	str	r0, [r7, #12]
 8005650:	60b9      	str	r1, [r7, #8]
 8005652:	607a      	str	r2, [r7, #4]
 8005654:	001a      	movs	r2, r3
 8005656:	1cbb      	adds	r3, r7, #2
 8005658:	801a      	strh	r2, [r3, #0]
  uint32_t             tmp_mode;
  HAL_SPI_StateTypeDef tmp_state;
  HAL_StatusTypeDef errorcode = HAL_OK;
 800565a:	2317      	movs	r3, #23
 800565c:	18fb      	adds	r3, r7, r3
 800565e:	2200      	movs	r2, #0
 8005660:	701a      	strb	r2, [r3, #0]

  /* Check Direction parameter */
  assert_param(IS_SPI_DIRECTION_2LINES(hspi->Init.Direction));

  /* Process locked */
  __HAL_LOCK(hspi);
 8005662:	68fb      	ldr	r3, [r7, #12]
 8005664:	225c      	movs	r2, #92	; 0x5c
 8005666:	5c9b      	ldrb	r3, [r3, r2]
 8005668:	2b01      	cmp	r3, #1
 800566a:	d101      	bne.n	8005670 <HAL_SPI_TransmitReceive_DMA+0x28>
 800566c:	2302      	movs	r3, #2
 800566e:	e198      	b.n	80059a2 <HAL_SPI_TransmitReceive_DMA+0x35a>
 8005670:	68fb      	ldr	r3, [r7, #12]
 8005672:	225c      	movs	r2, #92	; 0x5c
 8005674:	2101      	movs	r1, #1
 8005676:	5499      	strb	r1, [r3, r2]

  /* Init temporary variables */
  tmp_state           = hspi->State;
 8005678:	2016      	movs	r0, #22
 800567a:	183b      	adds	r3, r7, r0
 800567c:	68fa      	ldr	r2, [r7, #12]
 800567e:	215d      	movs	r1, #93	; 0x5d
 8005680:	5c52      	ldrb	r2, [r2, r1]
 8005682:	701a      	strb	r2, [r3, #0]
  tmp_mode            = hspi->Init.Mode;
 8005684:	68fb      	ldr	r3, [r7, #12]
 8005686:	685b      	ldr	r3, [r3, #4]
 8005688:	613b      	str	r3, [r7, #16]

  if (!((tmp_state == HAL_SPI_STATE_READY) ||
 800568a:	183b      	adds	r3, r7, r0
 800568c:	781b      	ldrb	r3, [r3, #0]
 800568e:	2b01      	cmp	r3, #1
 8005690:	d012      	beq.n	80056b8 <HAL_SPI_TransmitReceive_DMA+0x70>
 8005692:	693a      	ldr	r2, [r7, #16]
 8005694:	2382      	movs	r3, #130	; 0x82
 8005696:	005b      	lsls	r3, r3, #1
 8005698:	429a      	cmp	r2, r3
 800569a:	d108      	bne.n	80056ae <HAL_SPI_TransmitReceive_DMA+0x66>
        ((tmp_mode == SPI_MODE_MASTER) && (hspi->Init.Direction == SPI_DIRECTION_2LINES) && (tmp_state == HAL_SPI_STATE_BUSY_RX))))
 800569c:	68fb      	ldr	r3, [r7, #12]
 800569e:	689b      	ldr	r3, [r3, #8]
 80056a0:	2b00      	cmp	r3, #0
 80056a2:	d104      	bne.n	80056ae <HAL_SPI_TransmitReceive_DMA+0x66>
 80056a4:	2316      	movs	r3, #22
 80056a6:	18fb      	adds	r3, r7, r3
 80056a8:	781b      	ldrb	r3, [r3, #0]
 80056aa:	2b04      	cmp	r3, #4
 80056ac:	d004      	beq.n	80056b8 <HAL_SPI_TransmitReceive_DMA+0x70>
  {
    errorcode = HAL_BUSY;
 80056ae:	2317      	movs	r3, #23
 80056b0:	18fb      	adds	r3, r7, r3
 80056b2:	2202      	movs	r2, #2
 80056b4:	701a      	strb	r2, [r3, #0]
    goto error;
 80056b6:	e16d      	b.n	8005994 <HAL_SPI_TransmitReceive_DMA+0x34c>
  }

  if ((pTxData == NULL) || (pRxData == NULL) || (Size == 0U))
 80056b8:	68bb      	ldr	r3, [r7, #8]
 80056ba:	2b00      	cmp	r3, #0
 80056bc:	d006      	beq.n	80056cc <HAL_SPI_TransmitReceive_DMA+0x84>
 80056be:	687b      	ldr	r3, [r7, #4]
 80056c0:	2b00      	cmp	r3, #0
 80056c2:	d003      	beq.n	80056cc <HAL_SPI_TransmitReceive_DMA+0x84>
 80056c4:	1cbb      	adds	r3, r7, #2
 80056c6:	881b      	ldrh	r3, [r3, #0]
 80056c8:	2b00      	cmp	r3, #0
 80056ca:	d104      	bne.n	80056d6 <HAL_SPI_TransmitReceive_DMA+0x8e>
  {
    errorcode = HAL_ERROR;
 80056cc:	2317      	movs	r3, #23
 80056ce:	18fb      	adds	r3, r7, r3
 80056d0:	2201      	movs	r2, #1
 80056d2:	701a      	strb	r2, [r3, #0]
    goto error;
 80056d4:	e15e      	b.n	8005994 <HAL_SPI_TransmitReceive_DMA+0x34c>
  }

  /* Don't overwrite in case of HAL_SPI_STATE_BUSY_RX */
  if (hspi->State != HAL_SPI_STATE_BUSY_RX)
 80056d6:	68fb      	ldr	r3, [r7, #12]
 80056d8:	225d      	movs	r2, #93	; 0x5d
 80056da:	5c9b      	ldrb	r3, [r3, r2]
 80056dc:	b2db      	uxtb	r3, r3
 80056de:	2b04      	cmp	r3, #4
 80056e0:	d003      	beq.n	80056ea <HAL_SPI_TransmitReceive_DMA+0xa2>
  {
    hspi->State = HAL_SPI_STATE_BUSY_TX_RX;
 80056e2:	68fb      	ldr	r3, [r7, #12]
 80056e4:	225d      	movs	r2, #93	; 0x5d
 80056e6:	2105      	movs	r1, #5
 80056e8:	5499      	strb	r1, [r3, r2]
  }

  /* Set the transaction information */
  hspi->ErrorCode   = HAL_SPI_ERROR_NONE;
 80056ea:	68fb      	ldr	r3, [r7, #12]
 80056ec:	2200      	movs	r2, #0
 80056ee:	661a      	str	r2, [r3, #96]	; 0x60
  hspi->pTxBuffPtr  = (uint8_t *)pTxData;
 80056f0:	68fb      	ldr	r3, [r7, #12]
 80056f2:	68ba      	ldr	r2, [r7, #8]
 80056f4:	639a      	str	r2, [r3, #56]	; 0x38
  hspi->TxXferSize  = Size;
 80056f6:	68fb      	ldr	r3, [r7, #12]
 80056f8:	1cba      	adds	r2, r7, #2
 80056fa:	8812      	ldrh	r2, [r2, #0]
 80056fc:	879a      	strh	r2, [r3, #60]	; 0x3c
  hspi->TxXferCount = Size;
 80056fe:	68fb      	ldr	r3, [r7, #12]
 8005700:	1cba      	adds	r2, r7, #2
 8005702:	8812      	ldrh	r2, [r2, #0]
 8005704:	87da      	strh	r2, [r3, #62]	; 0x3e
  hspi->pRxBuffPtr  = (uint8_t *)pRxData;
 8005706:	68fb      	ldr	r3, [r7, #12]
 8005708:	687a      	ldr	r2, [r7, #4]
 800570a:	641a      	str	r2, [r3, #64]	; 0x40
  hspi->RxXferSize  = Size;
 800570c:	68fb      	ldr	r3, [r7, #12]
 800570e:	1cba      	adds	r2, r7, #2
 8005710:	2144      	movs	r1, #68	; 0x44
 8005712:	8812      	ldrh	r2, [r2, #0]
 8005714:	525a      	strh	r2, [r3, r1]
  hspi->RxXferCount = Size;
 8005716:	68fb      	ldr	r3, [r7, #12]
 8005718:	1cba      	adds	r2, r7, #2
 800571a:	2146      	movs	r1, #70	; 0x46
 800571c:	8812      	ldrh	r2, [r2, #0]
 800571e:	525a      	strh	r2, [r3, r1]

  /* Init field not used in handle to zero */
  hspi->RxISR       = NULL;
 8005720:	68fb      	ldr	r3, [r7, #12]
 8005722:	2200      	movs	r2, #0
 8005724:	64da      	str	r2, [r3, #76]	; 0x4c
  hspi->TxISR       = NULL;
 8005726:	68fb      	ldr	r3, [r7, #12]
 8005728:	2200      	movs	r2, #0
 800572a:	651a      	str	r2, [r3, #80]	; 0x50
  }
#endif /* USE_SPI_CRC */

#if defined (STM32F030x6) || defined (STM32F030x8) || defined (STM32F031x6) || defined (STM32F038xx) || defined (STM32F051x8) || defined (STM32F058xx)
  /* Packing mode management is enabled by the DMA settings */
  if ((hspi->Init.DataSize <= SPI_DATASIZE_8BIT) && (hspi->hdmarx->Init.MemDataAlignment == DMA_MDATAALIGN_HALFWORD))
 800572c:	68fb      	ldr	r3, [r7, #12]
 800572e:	68da      	ldr	r2, [r3, #12]
 8005730:	23e0      	movs	r3, #224	; 0xe0
 8005732:	00db      	lsls	r3, r3, #3
 8005734:	429a      	cmp	r2, r3
 8005736:	d80b      	bhi.n	8005750 <HAL_SPI_TransmitReceive_DMA+0x108>
 8005738:	68fb      	ldr	r3, [r7, #12]
 800573a:	6d9b      	ldr	r3, [r3, #88]	; 0x58
 800573c:	695a      	ldr	r2, [r3, #20]
 800573e:	2380      	movs	r3, #128	; 0x80
 8005740:	00db      	lsls	r3, r3, #3
 8005742:	429a      	cmp	r2, r3
 8005744:	d104      	bne.n	8005750 <HAL_SPI_TransmitReceive_DMA+0x108>
  {
    /* Restriction the DMA data received is not allowed in this mode */
    errorcode = HAL_ERROR;
 8005746:	2317      	movs	r3, #23
 8005748:	18fb      	adds	r3, r7, r3
 800574a:	2201      	movs	r2, #1
 800574c:	701a      	strb	r2, [r3, #0]
    goto error;
 800574e:	e121      	b.n	8005994 <HAL_SPI_TransmitReceive_DMA+0x34c>
  }
#endif

  /* Reset the threshold bit */
  CLEAR_BIT(hspi->Instance->CR2, SPI_CR2_LDMATX | SPI_CR2_LDMARX);
 8005750:	68fb      	ldr	r3, [r7, #12]
 8005752:	681b      	ldr	r3, [r3, #0]
 8005754:	685a      	ldr	r2, [r3, #4]
 8005756:	68fb      	ldr	r3, [r7, #12]
 8005758:	681b      	ldr	r3, [r3, #0]
 800575a:	4994      	ldr	r1, [pc, #592]	; (80059ac <HAL_SPI_TransmitReceive_DMA+0x364>)
 800575c:	400a      	ands	r2, r1
 800575e:	605a      	str	r2, [r3, #4]

  /* The packing mode management is enabled by the DMA settings according the spi data size */
  if (hspi->Init.DataSize > SPI_DATASIZE_8BIT)
 8005760:	68fb      	ldr	r3, [r7, #12]
 8005762:	68da      	ldr	r2, [r3, #12]
 8005764:	23e0      	movs	r3, #224	; 0xe0
 8005766:	00db      	lsls	r3, r3, #3
 8005768:	429a      	cmp	r2, r3
 800576a:	d908      	bls.n	800577e <HAL_SPI_TransmitReceive_DMA+0x136>
  {
    /* Set fiforxthreshold according the reception data length: 16bit */
    CLEAR_BIT(hspi->Instance->CR2, SPI_RXFIFO_THRESHOLD);
 800576c:	68fb      	ldr	r3, [r7, #12]
 800576e:	681b      	ldr	r3, [r3, #0]
 8005770:	685a      	ldr	r2, [r3, #4]
 8005772:	68fb      	ldr	r3, [r7, #12]
 8005774:	681b      	ldr	r3, [r3, #0]
 8005776:	498e      	ldr	r1, [pc, #568]	; (80059b0 <HAL_SPI_TransmitReceive_DMA+0x368>)
 8005778:	400a      	ands	r2, r1
 800577a:	605a      	str	r2, [r3, #4]
 800577c:	e074      	b.n	8005868 <HAL_SPI_TransmitReceive_DMA+0x220>
  }
  else
  {
    /* Set RX Fifo threshold according the reception data length: 8bit */
    SET_BIT(hspi->Instance->CR2, SPI_RXFIFO_THRESHOLD);
 800577e:	68fb      	ldr	r3, [r7, #12]
 8005780:	681b      	ldr	r3, [r3, #0]
 8005782:	685a      	ldr	r2, [r3, #4]
 8005784:	68fb      	ldr	r3, [r7, #12]
 8005786:	681b      	ldr	r3, [r3, #0]
 8005788:	2180      	movs	r1, #128	; 0x80
 800578a:	0149      	lsls	r1, r1, #5
 800578c:	430a      	orrs	r2, r1
 800578e:	605a      	str	r2, [r3, #4]

    if (hspi->hdmatx->Init.MemDataAlignment == DMA_MDATAALIGN_HALFWORD)
 8005790:	68fb      	ldr	r3, [r7, #12]
 8005792:	6d5b      	ldr	r3, [r3, #84]	; 0x54
 8005794:	695a      	ldr	r2, [r3, #20]
 8005796:	2380      	movs	r3, #128	; 0x80
 8005798:	00db      	lsls	r3, r3, #3
 800579a:	429a      	cmp	r2, r3
 800579c:	d127      	bne.n	80057ee <HAL_SPI_TransmitReceive_DMA+0x1a6>
    {
      if ((hspi->TxXferSize & 0x1U) == 0x0U)
 800579e:	68fb      	ldr	r3, [r7, #12]
 80057a0:	8f9b      	ldrh	r3, [r3, #60]	; 0x3c
 80057a2:	001a      	movs	r2, r3
 80057a4:	2301      	movs	r3, #1
 80057a6:	4013      	ands	r3, r2
 80057a8:	d10f      	bne.n	80057ca <HAL_SPI_TransmitReceive_DMA+0x182>
      {
        CLEAR_BIT(hspi->Instance->CR2, SPI_CR2_LDMATX);
 80057aa:	68fb      	ldr	r3, [r7, #12]
 80057ac:	681b      	ldr	r3, [r3, #0]
 80057ae:	685a      	ldr	r2, [r3, #4]
 80057b0:	68fb      	ldr	r3, [r7, #12]
 80057b2:	681b      	ldr	r3, [r3, #0]
 80057b4:	497f      	ldr	r1, [pc, #508]	; (80059b4 <HAL_SPI_TransmitReceive_DMA+0x36c>)
 80057b6:	400a      	ands	r2, r1
 80057b8:	605a      	str	r2, [r3, #4]
        hspi->TxXferCount = hspi->TxXferCount >> 1U;
 80057ba:	68fb      	ldr	r3, [r7, #12]
 80057bc:	8fdb      	ldrh	r3, [r3, #62]	; 0x3e
 80057be:	b29b      	uxth	r3, r3
 80057c0:	085b      	lsrs	r3, r3, #1
 80057c2:	b29a      	uxth	r2, r3
 80057c4:	68fb      	ldr	r3, [r7, #12]
 80057c6:	87da      	strh	r2, [r3, #62]	; 0x3e
 80057c8:	e011      	b.n	80057ee <HAL_SPI_TransmitReceive_DMA+0x1a6>
      }
      else
      {
        SET_BIT(hspi->Instance->CR2, SPI_CR2_LDMATX);
 80057ca:	68fb      	ldr	r3, [r7, #12]
 80057cc:	681b      	ldr	r3, [r3, #0]
 80057ce:	685a      	ldr	r2, [r3, #4]
 80057d0:	68fb      	ldr	r3, [r7, #12]
 80057d2:	681b      	ldr	r3, [r3, #0]
 80057d4:	2180      	movs	r1, #128	; 0x80
 80057d6:	01c9      	lsls	r1, r1, #7
 80057d8:	430a      	orrs	r2, r1
 80057da:	605a      	str	r2, [r3, #4]
        hspi->TxXferCount = (hspi->TxXferCount >> 1U) + 1U;
 80057dc:	68fb      	ldr	r3, [r7, #12]
 80057de:	8fdb      	ldrh	r3, [r3, #62]	; 0x3e
 80057e0:	b29b      	uxth	r3, r3
 80057e2:	085b      	lsrs	r3, r3, #1
 80057e4:	b29b      	uxth	r3, r3
 80057e6:	3301      	adds	r3, #1
 80057e8:	b29a      	uxth	r2, r3
 80057ea:	68fb      	ldr	r3, [r7, #12]
 80057ec:	87da      	strh	r2, [r3, #62]	; 0x3e
      }
    }

    if (hspi->hdmarx->Init.MemDataAlignment == DMA_MDATAALIGN_HALFWORD)
 80057ee:	68fb      	ldr	r3, [r7, #12]
 80057f0:	6d9b      	ldr	r3, [r3, #88]	; 0x58
 80057f2:	695a      	ldr	r2, [r3, #20]
 80057f4:	2380      	movs	r3, #128	; 0x80
 80057f6:	00db      	lsls	r3, r3, #3
 80057f8:	429a      	cmp	r2, r3
 80057fa:	d135      	bne.n	8005868 <HAL_SPI_TransmitReceive_DMA+0x220>
    {
      /* Set RX Fifo threshold according the reception data length: 16bit */
      CLEAR_BIT(hspi->Instance->CR2, SPI_RXFIFO_THRESHOLD);
 80057fc:	68fb      	ldr	r3, [r7, #12]
 80057fe:	681b      	ldr	r3, [r3, #0]
 8005800:	685a      	ldr	r2, [r3, #4]
 8005802:	68fb      	ldr	r3, [r7, #12]
 8005804:	681b      	ldr	r3, [r3, #0]
 8005806:	496a      	ldr	r1, [pc, #424]	; (80059b0 <HAL_SPI_TransmitReceive_DMA+0x368>)
 8005808:	400a      	ands	r2, r1
 800580a:	605a      	str	r2, [r3, #4]

      if ((hspi->RxXferCount & 0x1U) == 0x0U)
 800580c:	68fb      	ldr	r3, [r7, #12]
 800580e:	2246      	movs	r2, #70	; 0x46
 8005810:	5a9b      	ldrh	r3, [r3, r2]
 8005812:	b29b      	uxth	r3, r3
 8005814:	001a      	movs	r2, r3
 8005816:	2301      	movs	r3, #1
 8005818:	4013      	ands	r3, r2
 800581a:	d111      	bne.n	8005840 <HAL_SPI_TransmitReceive_DMA+0x1f8>
      {
        CLEAR_BIT(hspi->Instance->CR2, SPI_CR2_LDMARX);
 800581c:	68fb      	ldr	r3, [r7, #12]
 800581e:	681b      	ldr	r3, [r3, #0]
 8005820:	685a      	ldr	r2, [r3, #4]
 8005822:	68fb      	ldr	r3, [r7, #12]
 8005824:	681b      	ldr	r3, [r3, #0]
 8005826:	4964      	ldr	r1, [pc, #400]	; (80059b8 <HAL_SPI_TransmitReceive_DMA+0x370>)
 8005828:	400a      	ands	r2, r1
 800582a:	605a      	str	r2, [r3, #4]
        hspi->RxXferCount = hspi->RxXferCount >> 1U;
 800582c:	68fb      	ldr	r3, [r7, #12]
 800582e:	2246      	movs	r2, #70	; 0x46
 8005830:	5a9b      	ldrh	r3, [r3, r2]
 8005832:	b29b      	uxth	r3, r3
 8005834:	085b      	lsrs	r3, r3, #1
 8005836:	b299      	uxth	r1, r3
 8005838:	68fb      	ldr	r3, [r7, #12]
 800583a:	2246      	movs	r2, #70	; 0x46
 800583c:	5299      	strh	r1, [r3, r2]
 800583e:	e013      	b.n	8005868 <HAL_SPI_TransmitReceive_DMA+0x220>
      }
      else
      {
        SET_BIT(hspi->Instance->CR2, SPI_CR2_LDMARX);
 8005840:	68fb      	ldr	r3, [r7, #12]
 8005842:	681b      	ldr	r3, [r3, #0]
 8005844:	685a      	ldr	r2, [r3, #4]
 8005846:	68fb      	ldr	r3, [r7, #12]
 8005848:	681b      	ldr	r3, [r3, #0]
 800584a:	2180      	movs	r1, #128	; 0x80
 800584c:	0189      	lsls	r1, r1, #6
 800584e:	430a      	orrs	r2, r1
 8005850:	605a      	str	r2, [r3, #4]
        hspi->RxXferCount = (hspi->RxXferCount >> 1U) + 1U;
 8005852:	68fb      	ldr	r3, [r7, #12]
 8005854:	2246      	movs	r2, #70	; 0x46
 8005856:	5a9b      	ldrh	r3, [r3, r2]
 8005858:	b29b      	uxth	r3, r3
 800585a:	085b      	lsrs	r3, r3, #1
 800585c:	b29b      	uxth	r3, r3
 800585e:	3301      	adds	r3, #1
 8005860:	b299      	uxth	r1, r3
 8005862:	68fb      	ldr	r3, [r7, #12]
 8005864:	2246      	movs	r2, #70	; 0x46
 8005866:	5299      	strh	r1, [r3, r2]
      }
    }
  }

  /* Check if we are in Rx only or in Rx/Tx Mode and configure the DMA transfer complete callback */
  if (hspi->State == HAL_SPI_STATE_BUSY_RX)
 8005868:	68fb      	ldr	r3, [r7, #12]
 800586a:	225d      	movs	r2, #93	; 0x5d
 800586c:	5c9b      	ldrb	r3, [r3, r2]
 800586e:	b2db      	uxtb	r3, r3
 8005870:	2b04      	cmp	r3, #4
 8005872:	d108      	bne.n	8005886 <HAL_SPI_TransmitReceive_DMA+0x23e>
  {
    /* Set the SPI Rx DMA Half transfer complete callback */
    hspi->hdmarx->XferHalfCpltCallback = SPI_DMAHalfReceiveCplt;
 8005874:	68fb      	ldr	r3, [r7, #12]
 8005876:	6d9b      	ldr	r3, [r3, #88]	; 0x58
 8005878:	4a50      	ldr	r2, [pc, #320]	; (80059bc <HAL_SPI_TransmitReceive_DMA+0x374>)
 800587a:	62da      	str	r2, [r3, #44]	; 0x2c
    hspi->hdmarx->XferCpltCallback     = SPI_DMAReceiveCplt;
 800587c:	68fb      	ldr	r3, [r7, #12]
 800587e:	6d9b      	ldr	r3, [r3, #88]	; 0x58
 8005880:	4a4f      	ldr	r2, [pc, #316]	; (80059c0 <HAL_SPI_TransmitReceive_DMA+0x378>)
 8005882:	629a      	str	r2, [r3, #40]	; 0x28
 8005884:	e007      	b.n	8005896 <HAL_SPI_TransmitReceive_DMA+0x24e>
  }
  else
  {
    /* Set the SPI Tx/Rx DMA Half transfer complete callback */
    hspi->hdmarx->XferHalfCpltCallback = SPI_DMAHalfTransmitReceiveCplt;
 8005886:	68fb      	ldr	r3, [r7, #12]
 8005888:	6d9b      	ldr	r3, [r3, #88]	; 0x58
 800588a:	4a4e      	ldr	r2, [pc, #312]	; (80059c4 <HAL_SPI_TransmitReceive_DMA+0x37c>)
 800588c:	62da      	str	r2, [r3, #44]	; 0x2c
    hspi->hdmarx->XferCpltCallback     = SPI_DMATransmitReceiveCplt;
 800588e:	68fb      	ldr	r3, [r7, #12]
 8005890:	6d9b      	ldr	r3, [r3, #88]	; 0x58
 8005892:	4a4d      	ldr	r2, [pc, #308]	; (80059c8 <HAL_SPI_TransmitReceive_DMA+0x380>)
 8005894:	629a      	str	r2, [r3, #40]	; 0x28
  }

  /* Set the DMA error callback */
  hspi->hdmarx->XferErrorCallback = SPI_DMAError;
 8005896:	68fb      	ldr	r3, [r7, #12]
 8005898:	6d9b      	ldr	r3, [r3, #88]	; 0x58
 800589a:	4a4c      	ldr	r2, [pc, #304]	; (80059cc <HAL_SPI_TransmitReceive_DMA+0x384>)
 800589c:	631a      	str	r2, [r3, #48]	; 0x30

  /* Set the DMA AbortCpltCallback */
  hspi->hdmarx->XferAbortCallback = NULL;
 800589e:	68fb      	ldr	r3, [r7, #12]
 80058a0:	6d9b      	ldr	r3, [r3, #88]	; 0x58
 80058a2:	2200      	movs	r2, #0
 80058a4:	635a      	str	r2, [r3, #52]	; 0x34

  /* Enable the Rx DMA Stream/Channel  */
  if (HAL_OK != HAL_DMA_Start_IT(hspi->hdmarx, (uint32_t)&hspi->Instance->DR, (uint32_t)hspi->pRxBuffPtr,
 80058a6:	68fb      	ldr	r3, [r7, #12]
 80058a8:	6d98      	ldr	r0, [r3, #88]	; 0x58
 80058aa:	68fb      	ldr	r3, [r7, #12]
 80058ac:	681b      	ldr	r3, [r3, #0]
 80058ae:	330c      	adds	r3, #12
 80058b0:	0019      	movs	r1, r3
 80058b2:	68fb      	ldr	r3, [r7, #12]
 80058b4:	6c1b      	ldr	r3, [r3, #64]	; 0x40
 80058b6:	001c      	movs	r4, r3
                                 hspi->RxXferCount))
 80058b8:	68fb      	ldr	r3, [r7, #12]
 80058ba:	2246      	movs	r2, #70	; 0x46
 80058bc:	5a9b      	ldrh	r3, [r3, r2]
 80058be:	b29b      	uxth	r3, r3
  if (HAL_OK != HAL_DMA_Start_IT(hspi->hdmarx, (uint32_t)&hspi->Instance->DR, (uint32_t)hspi->pRxBuffPtr,
 80058c0:	0022      	movs	r2, r4
 80058c2:	f7fe f837 	bl	8003934 <HAL_DMA_Start_IT>
 80058c6:	1e03      	subs	r3, r0, #0
 80058c8:	d00e      	beq.n	80058e8 <HAL_SPI_TransmitReceive_DMA+0x2a0>
  {
    /* Update SPI error code */
    SET_BIT(hspi->ErrorCode, HAL_SPI_ERROR_DMA);
 80058ca:	68fb      	ldr	r3, [r7, #12]
 80058cc:	6e1b      	ldr	r3, [r3, #96]	; 0x60
 80058ce:	2210      	movs	r2, #16
 80058d0:	431a      	orrs	r2, r3
 80058d2:	68fb      	ldr	r3, [r7, #12]
 80058d4:	661a      	str	r2, [r3, #96]	; 0x60
    errorcode = HAL_ERROR;
 80058d6:	2317      	movs	r3, #23
 80058d8:	18fb      	adds	r3, r7, r3
 80058da:	2201      	movs	r2, #1
 80058dc:	701a      	strb	r2, [r3, #0]

    hspi->State = HAL_SPI_STATE_READY;
 80058de:	68fb      	ldr	r3, [r7, #12]
 80058e0:	225d      	movs	r2, #93	; 0x5d
 80058e2:	2101      	movs	r1, #1
 80058e4:	5499      	strb	r1, [r3, r2]
    goto error;
 80058e6:	e055      	b.n	8005994 <HAL_SPI_TransmitReceive_DMA+0x34c>
  }

  /* Enable Rx DMA Request */
  SET_BIT(hspi->Instance->CR2, SPI_CR2_RXDMAEN);
 80058e8:	68fb      	ldr	r3, [r7, #12]
 80058ea:	681b      	ldr	r3, [r3, #0]
 80058ec:	685a      	ldr	r2, [r3, #4]
 80058ee:	68fb      	ldr	r3, [r7, #12]
 80058f0:	681b      	ldr	r3, [r3, #0]
 80058f2:	2101      	movs	r1, #1
 80058f4:	430a      	orrs	r2, r1
 80058f6:	605a      	str	r2, [r3, #4]

  /* Set the SPI Tx DMA transfer complete callback as NULL because the communication closing
  is performed in DMA reception complete callback  */
  hspi->hdmatx->XferHalfCpltCallback = NULL;
 80058f8:	68fb      	ldr	r3, [r7, #12]
 80058fa:	6d5b      	ldr	r3, [r3, #84]	; 0x54
 80058fc:	2200      	movs	r2, #0
 80058fe:	62da      	str	r2, [r3, #44]	; 0x2c
  hspi->hdmatx->XferCpltCallback     = NULL;
 8005900:	68fb      	ldr	r3, [r7, #12]
 8005902:	6d5b      	ldr	r3, [r3, #84]	; 0x54
 8005904:	2200      	movs	r2, #0
 8005906:	629a      	str	r2, [r3, #40]	; 0x28
  hspi->hdmatx->XferErrorCallback    = NULL;
 8005908:	68fb      	ldr	r3, [r7, #12]
 800590a:	6d5b      	ldr	r3, [r3, #84]	; 0x54
 800590c:	2200      	movs	r2, #0
 800590e:	631a      	str	r2, [r3, #48]	; 0x30
  hspi->hdmatx->XferAbortCallback    = NULL;
 8005910:	68fb      	ldr	r3, [r7, #12]
 8005912:	6d5b      	ldr	r3, [r3, #84]	; 0x54
 8005914:	2200      	movs	r2, #0
 8005916:	635a      	str	r2, [r3, #52]	; 0x34

  /* Enable the Tx DMA Stream/Channel  */
  if (HAL_OK != HAL_DMA_Start_IT(hspi->hdmatx, (uint32_t)hspi->pTxBuffPtr, (uint32_t)&hspi->Instance->DR,
 8005918:	68fb      	ldr	r3, [r7, #12]
 800591a:	6d58      	ldr	r0, [r3, #84]	; 0x54
 800591c:	68fb      	ldr	r3, [r7, #12]
 800591e:	6b9b      	ldr	r3, [r3, #56]	; 0x38
 8005920:	0019      	movs	r1, r3
 8005922:	68fb      	ldr	r3, [r7, #12]
 8005924:	681b      	ldr	r3, [r3, #0]
 8005926:	330c      	adds	r3, #12
 8005928:	001a      	movs	r2, r3
                                 hspi->TxXferCount))
 800592a:	68fb      	ldr	r3, [r7, #12]
 800592c:	8fdb      	ldrh	r3, [r3, #62]	; 0x3e
 800592e:	b29b      	uxth	r3, r3
  if (HAL_OK != HAL_DMA_Start_IT(hspi->hdmatx, (uint32_t)hspi->pTxBuffPtr, (uint32_t)&hspi->Instance->DR,
 8005930:	f7fe f800 	bl	8003934 <HAL_DMA_Start_IT>
 8005934:	1e03      	subs	r3, r0, #0
 8005936:	d00e      	beq.n	8005956 <HAL_SPI_TransmitReceive_DMA+0x30e>
  {
    /* Update SPI error code */
    SET_BIT(hspi->ErrorCode, HAL_SPI_ERROR_DMA);
 8005938:	68fb      	ldr	r3, [r7, #12]
 800593a:	6e1b      	ldr	r3, [r3, #96]	; 0x60
 800593c:	2210      	movs	r2, #16
 800593e:	431a      	orrs	r2, r3
 8005940:	68fb      	ldr	r3, [r7, #12]
 8005942:	661a      	str	r2, [r3, #96]	; 0x60
    errorcode = HAL_ERROR;
 8005944:	2317      	movs	r3, #23
 8005946:	18fb      	adds	r3, r7, r3
 8005948:	2201      	movs	r2, #1
 800594a:	701a      	strb	r2, [r3, #0]

    hspi->State = HAL_SPI_STATE_READY;
 800594c:	68fb      	ldr	r3, [r7, #12]
 800594e:	225d      	movs	r2, #93	; 0x5d
 8005950:	2101      	movs	r1, #1
 8005952:	5499      	strb	r1, [r3, r2]
    goto error;
 8005954:	e01e      	b.n	8005994 <HAL_SPI_TransmitReceive_DMA+0x34c>
  }

  /* Check if the SPI is already enabled */
  if ((hspi->Instance->CR1 & SPI_CR1_SPE) != SPI_CR1_SPE)
 8005956:	68fb      	ldr	r3, [r7, #12]
 8005958:	681b      	ldr	r3, [r3, #0]
 800595a:	681b      	ldr	r3, [r3, #0]
 800595c:	2240      	movs	r2, #64	; 0x40
 800595e:	4013      	ands	r3, r2
 8005960:	2b40      	cmp	r3, #64	; 0x40
 8005962:	d007      	beq.n	8005974 <HAL_SPI_TransmitReceive_DMA+0x32c>
  {
    /* Enable SPI peripheral */
    __HAL_SPI_ENABLE(hspi);
 8005964:	68fb      	ldr	r3, [r7, #12]
 8005966:	681b      	ldr	r3, [r3, #0]
 8005968:	681a      	ldr	r2, [r3, #0]
 800596a:	68fb      	ldr	r3, [r7, #12]
 800596c:	681b      	ldr	r3, [r3, #0]
 800596e:	2140      	movs	r1, #64	; 0x40
 8005970:	430a      	orrs	r2, r1
 8005972:	601a      	str	r2, [r3, #0]
  }
  /* Enable the SPI Error Interrupt Bit */
  __HAL_SPI_ENABLE_IT(hspi, (SPI_IT_ERR));
 8005974:	68fb      	ldr	r3, [r7, #12]
 8005976:	681b      	ldr	r3, [r3, #0]
 8005978:	685a      	ldr	r2, [r3, #4]
 800597a:	68fb      	ldr	r3, [r7, #12]
 800597c:	681b      	ldr	r3, [r3, #0]
 800597e:	2120      	movs	r1, #32
 8005980:	430a      	orrs	r2, r1
 8005982:	605a      	str	r2, [r3, #4]

  /* Enable Tx DMA Request */
  SET_BIT(hspi->Instance->CR2, SPI_CR2_TXDMAEN);
 8005984:	68fb      	ldr	r3, [r7, #12]
 8005986:	681b      	ldr	r3, [r3, #0]
 8005988:	685a      	ldr	r2, [r3, #4]
 800598a:	68fb      	ldr	r3, [r7, #12]
 800598c:	681b      	ldr	r3, [r3, #0]
 800598e:	2102      	movs	r1, #2
 8005990:	430a      	orrs	r2, r1
 8005992:	605a      	str	r2, [r3, #4]

error :
  /* Process Unlocked */
  __HAL_UNLOCK(hspi);
 8005994:	68fb      	ldr	r3, [r7, #12]
 8005996:	225c      	movs	r2, #92	; 0x5c
 8005998:	2100      	movs	r1, #0
 800599a:	5499      	strb	r1, [r3, r2]
  return errorcode;
 800599c:	2317      	movs	r3, #23
 800599e:	18fb      	adds	r3, r7, r3
 80059a0:	781b      	ldrb	r3, [r3, #0]
}
 80059a2:	0018      	movs	r0, r3
 80059a4:	46bd      	mov	sp, r7
 80059a6:	b007      	add	sp, #28
 80059a8:	bd90      	pop	{r4, r7, pc}
 80059aa:	46c0      	nop			; (mov r8, r8)
 80059ac:	ffff9fff 	.word	0xffff9fff
 80059b0:	ffffefff 	.word	0xffffefff
 80059b4:	ffffbfff 	.word	0xffffbfff
 80059b8:	ffffdfff 	.word	0xffffdfff
 80059bc:	08005c2b 	.word	0x08005c2b
 80059c0:	08005aed 	.word	0x08005aed
 80059c4:	08005c49 	.word	0x08005c49
 80059c8:	08005b77 	.word	0x08005b77
 80059cc:	08005c67 	.word	0x08005c67

080059d0 <HAL_SPI_TxCpltCallback>:
  * @param  hspi pointer to a SPI_HandleTypeDef structure that contains
  *               the configuration information for SPI module.
  * @retval None
  */
__weak void HAL_SPI_TxCpltCallback(SPI_HandleTypeDef *hspi)
{
 80059d0:	b580      	push	{r7, lr}
 80059d2:	b082      	sub	sp, #8
 80059d4:	af00      	add	r7, sp, #0
 80059d6:	6078      	str	r0, [r7, #4]
  UNUSED(hspi);

  /* NOTE : This function should not be modified, when the callback is needed,
            the HAL_SPI_TxCpltCallback should be implemented in the user file
   */
}
 80059d8:	46c0      	nop			; (mov r8, r8)
 80059da:	46bd      	mov	sp, r7
 80059dc:	b002      	add	sp, #8
 80059de:	bd80      	pop	{r7, pc}

080059e0 <HAL_SPI_RxCpltCallback>:
  * @param  hspi pointer to a SPI_HandleTypeDef structure that contains
  *               the configuration information for SPI module.
  * @retval None
  */
__weak void HAL_SPI_RxCpltCallback(SPI_HandleTypeDef *hspi)
{
 80059e0:	b580      	push	{r7, lr}
 80059e2:	b082      	sub	sp, #8
 80059e4:	af00      	add	r7, sp, #0
 80059e6:	6078      	str	r0, [r7, #4]
  UNUSED(hspi);

  /* NOTE : This function should not be modified, when the callback is needed,
            the HAL_SPI_RxCpltCallback should be implemented in the user file
   */
}
 80059e8:	46c0      	nop			; (mov r8, r8)
 80059ea:	46bd      	mov	sp, r7
 80059ec:	b002      	add	sp, #8
 80059ee:	bd80      	pop	{r7, pc}

080059f0 <HAL_SPI_TxRxCpltCallback>:
  * @param  hspi pointer to a SPI_HandleTypeDef structure that contains
  *               the configuration information for SPI module.
  * @retval None
  */
__weak void HAL_SPI_TxRxCpltCallback(SPI_HandleTypeDef *hspi)
{
 80059f0:	b580      	push	{r7, lr}
 80059f2:	b082      	sub	sp, #8
 80059f4:	af00      	add	r7, sp, #0
 80059f6:	6078      	str	r0, [r7, #4]
  UNUSED(hspi);

  /* NOTE : This function should not be modified, when the callback is needed,
            the HAL_SPI_TxRxCpltCallback should be implemented in the user file
   */
}
 80059f8:	46c0      	nop			; (mov r8, r8)
 80059fa:	46bd      	mov	sp, r7
 80059fc:	b002      	add	sp, #8
 80059fe:	bd80      	pop	{r7, pc}

08005a00 <HAL_SPI_TxHalfCpltCallback>:
  * @param  hspi pointer to a SPI_HandleTypeDef structure that contains
  *               the configuration information for SPI module.
  * @retval None
  */
__weak void HAL_SPI_TxHalfCpltCallback(SPI_HandleTypeDef *hspi)
{
 8005a00:	b580      	push	{r7, lr}
 8005a02:	b082      	sub	sp, #8
 8005a04:	af00      	add	r7, sp, #0
 8005a06:	6078      	str	r0, [r7, #4]
  UNUSED(hspi);

  /* NOTE : This function should not be modified, when the callback is needed,
            the HAL_SPI_TxHalfCpltCallback should be implemented in the user file
   */
}
 8005a08:	46c0      	nop			; (mov r8, r8)
 8005a0a:	46bd      	mov	sp, r7
 8005a0c:	b002      	add	sp, #8
 8005a0e:	bd80      	pop	{r7, pc}

08005a10 <HAL_SPI_RxHalfCpltCallback>:
  * @param  hspi pointer to a SPI_HandleTypeDef structure that contains
  *               the configuration information for SPI module.
  * @retval None
  */
__weak void HAL_SPI_RxHalfCpltCallback(SPI_HandleTypeDef *hspi)
{
 8005a10:	b580      	push	{r7, lr}
 8005a12:	b082      	sub	sp, #8
 8005a14:	af00      	add	r7, sp, #0
 8005a16:	6078      	str	r0, [r7, #4]
  UNUSED(hspi);

  /* NOTE : This function should not be modified, when the callback is needed,
            the HAL_SPI_RxHalfCpltCallback() should be implemented in the user file
   */
}
 8005a18:	46c0      	nop			; (mov r8, r8)
 8005a1a:	46bd      	mov	sp, r7
 8005a1c:	b002      	add	sp, #8
 8005a1e:	bd80      	pop	{r7, pc}

08005a20 <HAL_SPI_TxRxHalfCpltCallback>:
  * @param  hspi pointer to a SPI_HandleTypeDef structure that contains
  *               the configuration information for SPI module.
  * @retval None
  */
__weak void HAL_SPI_TxRxHalfCpltCallback(SPI_HandleTypeDef *hspi)
{
 8005a20:	b580      	push	{r7, lr}
 8005a22:	b082      	sub	sp, #8
 8005a24:	af00      	add	r7, sp, #0
 8005a26:	6078      	str	r0, [r7, #4]
  UNUSED(hspi);

  /* NOTE : This function should not be modified, when the callback is needed,
            the HAL_SPI_TxRxHalfCpltCallback() should be implemented in the user file
   */
}
 8005a28:	46c0      	nop			; (mov r8, r8)
 8005a2a:	46bd      	mov	sp, r7
 8005a2c:	b002      	add	sp, #8
 8005a2e:	bd80      	pop	{r7, pc}

08005a30 <HAL_SPI_ErrorCallback>:
  * @param  hspi pointer to a SPI_HandleTypeDef structure that contains
  *               the configuration information for SPI module.
  * @retval None
  */
__weak void HAL_SPI_ErrorCallback(SPI_HandleTypeDef *hspi)
{
 8005a30:	b580      	push	{r7, lr}
 8005a32:	b082      	sub	sp, #8
 8005a34:	af00      	add	r7, sp, #0
 8005a36:	6078      	str	r0, [r7, #4]
            the HAL_SPI_ErrorCallback should be implemented in the user file
   */
  /* NOTE : The ErrorCode parameter in the hspi handle is updated by the SPI processes
            and user can use HAL_SPI_GetError() API to check the latest error occurred
   */
}
 8005a38:	46c0      	nop			; (mov r8, r8)
 8005a3a:	46bd      	mov	sp, r7
 8005a3c:	b002      	add	sp, #8
 8005a3e:	bd80      	pop	{r7, pc}

08005a40 <SPI_DMATransmitCplt>:
  * @param  hdma pointer to a DMA_HandleTypeDef structure that contains
  *               the configuration information for the specified DMA module.
  * @retval None
  */
static void SPI_DMATransmitCplt(DMA_HandleTypeDef *hdma)
{
 8005a40:	b580      	push	{r7, lr}
 8005a42:	b086      	sub	sp, #24
 8005a44:	af00      	add	r7, sp, #0
 8005a46:	6078      	str	r0, [r7, #4]
  SPI_HandleTypeDef *hspi = (SPI_HandleTypeDef *)(((DMA_HandleTypeDef *)hdma)->Parent); /* Derogation MISRAC2012-Rule-11.5 */
 8005a48:	687b      	ldr	r3, [r7, #4]
 8005a4a:	6a5b      	ldr	r3, [r3, #36]	; 0x24
 8005a4c:	617b      	str	r3, [r7, #20]
  uint32_t tickstart;

  /* Init tickstart for timeout management*/
  tickstart = HAL_GetTick();
 8005a4e:	f7fd fe91 	bl	8003774 <HAL_GetTick>
 8005a52:	0003      	movs	r3, r0
 8005a54:	613b      	str	r3, [r7, #16]

  /* DMA Normal Mode */
  if ((hdma->Instance->CCR & DMA_CCR_CIRC) != DMA_CCR_CIRC)
 8005a56:	687b      	ldr	r3, [r7, #4]
 8005a58:	681b      	ldr	r3, [r3, #0]
 8005a5a:	681b      	ldr	r3, [r3, #0]
 8005a5c:	2220      	movs	r2, #32
 8005a5e:	4013      	ands	r3, r2
 8005a60:	2b20      	cmp	r3, #32
 8005a62:	d03c      	beq.n	8005ade <SPI_DMATransmitCplt+0x9e>
  {
    /* Disable ERR interrupt */
    __HAL_SPI_DISABLE_IT(hspi, SPI_IT_ERR);
 8005a64:	697b      	ldr	r3, [r7, #20]
 8005a66:	681b      	ldr	r3, [r3, #0]
 8005a68:	685a      	ldr	r2, [r3, #4]
 8005a6a:	697b      	ldr	r3, [r7, #20]
 8005a6c:	681b      	ldr	r3, [r3, #0]
 8005a6e:	2120      	movs	r1, #32
 8005a70:	438a      	bics	r2, r1
 8005a72:	605a      	str	r2, [r3, #4]

    /* Disable Tx DMA Request */
    CLEAR_BIT(hspi->Instance->CR2, SPI_CR2_TXDMAEN);
 8005a74:	697b      	ldr	r3, [r7, #20]
 8005a76:	681b      	ldr	r3, [r3, #0]
 8005a78:	685a      	ldr	r2, [r3, #4]
 8005a7a:	697b      	ldr	r3, [r7, #20]
 8005a7c:	681b      	ldr	r3, [r3, #0]
 8005a7e:	2102      	movs	r1, #2
 8005a80:	438a      	bics	r2, r1
 8005a82:	605a      	str	r2, [r3, #4]

    /* Check the end of the transaction */
    if (SPI_EndRxTxTransaction(hspi, SPI_DEFAULT_TIMEOUT, tickstart) != HAL_OK)
 8005a84:	693a      	ldr	r2, [r7, #16]
 8005a86:	697b      	ldr	r3, [r7, #20]
 8005a88:	2164      	movs	r1, #100	; 0x64
 8005a8a:	0018      	movs	r0, r3
 8005a8c:	f000 fa4e 	bl	8005f2c <SPI_EndRxTxTransaction>
 8005a90:	1e03      	subs	r3, r0, #0
 8005a92:	d005      	beq.n	8005aa0 <SPI_DMATransmitCplt+0x60>
    {
      SET_BIT(hspi->ErrorCode, HAL_SPI_ERROR_FLAG);
 8005a94:	697b      	ldr	r3, [r7, #20]
 8005a96:	6e1b      	ldr	r3, [r3, #96]	; 0x60
 8005a98:	2220      	movs	r2, #32
 8005a9a:	431a      	orrs	r2, r3
 8005a9c:	697b      	ldr	r3, [r7, #20]
 8005a9e:	661a      	str	r2, [r3, #96]	; 0x60
    }

    /* Clear overrun flag in 2 Lines communication mode because received data is not read */
    if (hspi->Init.Direction == SPI_DIRECTION_2LINES)
 8005aa0:	697b      	ldr	r3, [r7, #20]
 8005aa2:	689b      	ldr	r3, [r3, #8]
 8005aa4:	2b00      	cmp	r3, #0
 8005aa6:	d10a      	bne.n	8005abe <SPI_DMATransmitCplt+0x7e>
    {
      __HAL_SPI_CLEAR_OVRFLAG(hspi);
 8005aa8:	2300      	movs	r3, #0
 8005aaa:	60fb      	str	r3, [r7, #12]
 8005aac:	697b      	ldr	r3, [r7, #20]
 8005aae:	681b      	ldr	r3, [r3, #0]
 8005ab0:	68db      	ldr	r3, [r3, #12]
 8005ab2:	60fb      	str	r3, [r7, #12]
 8005ab4:	697b      	ldr	r3, [r7, #20]
 8005ab6:	681b      	ldr	r3, [r3, #0]
 8005ab8:	689b      	ldr	r3, [r3, #8]
 8005aba:	60fb      	str	r3, [r7, #12]
 8005abc:	68fb      	ldr	r3, [r7, #12]
    }

    hspi->TxXferCount = 0U;
 8005abe:	697b      	ldr	r3, [r7, #20]
 8005ac0:	2200      	movs	r2, #0
 8005ac2:	87da      	strh	r2, [r3, #62]	; 0x3e
    hspi->State = HAL_SPI_STATE_READY;
 8005ac4:	697b      	ldr	r3, [r7, #20]
 8005ac6:	225d      	movs	r2, #93	; 0x5d
 8005ac8:	2101      	movs	r1, #1
 8005aca:	5499      	strb	r1, [r3, r2]

    if (hspi->ErrorCode != HAL_SPI_ERROR_NONE)
 8005acc:	697b      	ldr	r3, [r7, #20]
 8005ace:	6e1b      	ldr	r3, [r3, #96]	; 0x60
 8005ad0:	2b00      	cmp	r3, #0
 8005ad2:	d004      	beq.n	8005ade <SPI_DMATransmitCplt+0x9e>
    {
      /* Call user error callback */
#if (USE_HAL_SPI_REGISTER_CALLBACKS == 1U)
      hspi->ErrorCallback(hspi);
#else
      HAL_SPI_ErrorCallback(hspi);
 8005ad4:	697b      	ldr	r3, [r7, #20]
 8005ad6:	0018      	movs	r0, r3
 8005ad8:	f7ff ffaa 	bl	8005a30 <HAL_SPI_ErrorCallback>
#endif /* USE_HAL_SPI_REGISTER_CALLBACKS */
      return;
 8005adc:	e003      	b.n	8005ae6 <SPI_DMATransmitCplt+0xa6>
  }
  /* Call user Tx complete callback */
#if (USE_HAL_SPI_REGISTER_CALLBACKS == 1U)
  hspi->TxCpltCallback(hspi);
#else
  HAL_SPI_TxCpltCallback(hspi);
 8005ade:	697b      	ldr	r3, [r7, #20]
 8005ae0:	0018      	movs	r0, r3
 8005ae2:	f7ff ff75 	bl	80059d0 <HAL_SPI_TxCpltCallback>
#endif /* USE_HAL_SPI_REGISTER_CALLBACKS */
}
 8005ae6:	46bd      	mov	sp, r7
 8005ae8:	b006      	add	sp, #24
 8005aea:	bd80      	pop	{r7, pc}

08005aec <SPI_DMAReceiveCplt>:
  * @param  hdma pointer to a DMA_HandleTypeDef structure that contains
  *               the configuration information for the specified DMA module.
  * @retval None
  */
static void SPI_DMAReceiveCplt(DMA_HandleTypeDef *hdma)
{
 8005aec:	b580      	push	{r7, lr}
 8005aee:	b084      	sub	sp, #16
 8005af0:	af00      	add	r7, sp, #0
 8005af2:	6078      	str	r0, [r7, #4]
  SPI_HandleTypeDef *hspi = (SPI_HandleTypeDef *)(((DMA_HandleTypeDef *)hdma)->Parent); /* Derogation MISRAC2012-Rule-11.5 */
 8005af4:	687b      	ldr	r3, [r7, #4]
 8005af6:	6a5b      	ldr	r3, [r3, #36]	; 0x24
 8005af8:	60fb      	str	r3, [r7, #12]
  uint32_t tickstart;

  /* Init tickstart for timeout management*/
  tickstart = HAL_GetTick();
 8005afa:	f7fd fe3b 	bl	8003774 <HAL_GetTick>
 8005afe:	0003      	movs	r3, r0
 8005b00:	60bb      	str	r3, [r7, #8]

  /* DMA Normal Mode */
  if ((hdma->Instance->CCR & DMA_CCR_CIRC) != DMA_CCR_CIRC)
 8005b02:	687b      	ldr	r3, [r7, #4]
 8005b04:	681b      	ldr	r3, [r3, #0]
 8005b06:	681b      	ldr	r3, [r3, #0]
 8005b08:	2220      	movs	r2, #32
 8005b0a:	4013      	ands	r3, r2
 8005b0c:	2b20      	cmp	r3, #32
 8005b0e:	d02b      	beq.n	8005b68 <SPI_DMAReceiveCplt+0x7c>
  {
    /* Disable ERR interrupt */
    __HAL_SPI_DISABLE_IT(hspi, SPI_IT_ERR);
 8005b10:	68fb      	ldr	r3, [r7, #12]
 8005b12:	681b      	ldr	r3, [r3, #0]
 8005b14:	685a      	ldr	r2, [r3, #4]
 8005b16:	68fb      	ldr	r3, [r7, #12]
 8005b18:	681b      	ldr	r3, [r3, #0]
 8005b1a:	2120      	movs	r1, #32
 8005b1c:	438a      	bics	r2, r1
 8005b1e:	605a      	str	r2, [r3, #4]
      }
    }
#endif /* USE_SPI_CRC */

    /* Disable Rx/Tx DMA Request (done by default to handle the case master rx direction 2 lines) */
    CLEAR_BIT(hspi->Instance->CR2, SPI_CR2_TXDMAEN | SPI_CR2_RXDMAEN);
 8005b20:	68fb      	ldr	r3, [r7, #12]
 8005b22:	681b      	ldr	r3, [r3, #0]
 8005b24:	685a      	ldr	r2, [r3, #4]
 8005b26:	68fb      	ldr	r3, [r7, #12]
 8005b28:	681b      	ldr	r3, [r3, #0]
 8005b2a:	2103      	movs	r1, #3
 8005b2c:	438a      	bics	r2, r1
 8005b2e:	605a      	str	r2, [r3, #4]

    /* Check the end of the transaction */
    if (SPI_EndRxTransaction(hspi, SPI_DEFAULT_TIMEOUT, tickstart) != HAL_OK)
 8005b30:	68ba      	ldr	r2, [r7, #8]
 8005b32:	68fb      	ldr	r3, [r7, #12]
 8005b34:	2164      	movs	r1, #100	; 0x64
 8005b36:	0018      	movs	r0, r3
 8005b38:	f000 f99a 	bl	8005e70 <SPI_EndRxTransaction>
 8005b3c:	1e03      	subs	r3, r0, #0
 8005b3e:	d002      	beq.n	8005b46 <SPI_DMAReceiveCplt+0x5a>
    {
      hspi->ErrorCode = HAL_SPI_ERROR_FLAG;
 8005b40:	68fb      	ldr	r3, [r7, #12]
 8005b42:	2220      	movs	r2, #32
 8005b44:	661a      	str	r2, [r3, #96]	; 0x60
    }

    hspi->RxXferCount = 0U;
 8005b46:	68fb      	ldr	r3, [r7, #12]
 8005b48:	2246      	movs	r2, #70	; 0x46
 8005b4a:	2100      	movs	r1, #0
 8005b4c:	5299      	strh	r1, [r3, r2]
    hspi->State = HAL_SPI_STATE_READY;
 8005b4e:	68fb      	ldr	r3, [r7, #12]
 8005b50:	225d      	movs	r2, #93	; 0x5d
 8005b52:	2101      	movs	r1, #1
 8005b54:	5499      	strb	r1, [r3, r2]
      SET_BIT(hspi->ErrorCode, HAL_SPI_ERROR_CRC);
      __HAL_SPI_CLEAR_CRCERRFLAG(hspi);
    }
#endif /* USE_SPI_CRC */

    if (hspi->ErrorCode != HAL_SPI_ERROR_NONE)
 8005b56:	68fb      	ldr	r3, [r7, #12]
 8005b58:	6e1b      	ldr	r3, [r3, #96]	; 0x60
 8005b5a:	2b00      	cmp	r3, #0
 8005b5c:	d004      	beq.n	8005b68 <SPI_DMAReceiveCplt+0x7c>
    {
      /* Call user error callback */
#if (USE_HAL_SPI_REGISTER_CALLBACKS == 1U)
      hspi->ErrorCallback(hspi);
#else
      HAL_SPI_ErrorCallback(hspi);
 8005b5e:	68fb      	ldr	r3, [r7, #12]
 8005b60:	0018      	movs	r0, r3
 8005b62:	f7ff ff65 	bl	8005a30 <HAL_SPI_ErrorCallback>
#endif /* USE_HAL_SPI_REGISTER_CALLBACKS */
      return;
 8005b66:	e003      	b.n	8005b70 <SPI_DMAReceiveCplt+0x84>
  }
  /* Call user Rx complete callback */
#if (USE_HAL_SPI_REGISTER_CALLBACKS == 1U)
  hspi->RxCpltCallback(hspi);
#else
  HAL_SPI_RxCpltCallback(hspi);
 8005b68:	68fb      	ldr	r3, [r7, #12]
 8005b6a:	0018      	movs	r0, r3
 8005b6c:	f7ff ff38 	bl	80059e0 <HAL_SPI_RxCpltCallback>
#endif /* USE_HAL_SPI_REGISTER_CALLBACKS */
}
 8005b70:	46bd      	mov	sp, r7
 8005b72:	b004      	add	sp, #16
 8005b74:	bd80      	pop	{r7, pc}

08005b76 <SPI_DMATransmitReceiveCplt>:
  * @param  hdma pointer to a DMA_HandleTypeDef structure that contains
  *               the configuration information for the specified DMA module.
  * @retval None
  */
static void SPI_DMATransmitReceiveCplt(DMA_HandleTypeDef *hdma)
{
 8005b76:	b580      	push	{r7, lr}
 8005b78:	b084      	sub	sp, #16
 8005b7a:	af00      	add	r7, sp, #0
 8005b7c:	6078      	str	r0, [r7, #4]
  SPI_HandleTypeDef *hspi = (SPI_HandleTypeDef *)(((DMA_HandleTypeDef *)hdma)->Parent); /* Derogation MISRAC2012-Rule-11.5 */
 8005b7e:	687b      	ldr	r3, [r7, #4]
 8005b80:	6a5b      	ldr	r3, [r3, #36]	; 0x24
 8005b82:	60fb      	str	r3, [r7, #12]
  uint32_t tickstart;

  /* Init tickstart for timeout management*/
  tickstart = HAL_GetTick();
 8005b84:	f7fd fdf6 	bl	8003774 <HAL_GetTick>
 8005b88:	0003      	movs	r3, r0
 8005b8a:	60bb      	str	r3, [r7, #8]

  /* DMA Normal Mode */
  if ((hdma->Instance->CCR & DMA_CCR_CIRC) != DMA_CCR_CIRC)
 8005b8c:	687b      	ldr	r3, [r7, #4]
 8005b8e:	681b      	ldr	r3, [r3, #0]
 8005b90:	681b      	ldr	r3, [r3, #0]
 8005b92:	2220      	movs	r2, #32
 8005b94:	4013      	ands	r3, r2
 8005b96:	2b20      	cmp	r3, #32
 8005b98:	d031      	beq.n	8005bfe <SPI_DMATransmitReceiveCplt+0x88>
  {
    /* Disable ERR interrupt */
    __HAL_SPI_DISABLE_IT(hspi, SPI_IT_ERR);
 8005b9a:	68fb      	ldr	r3, [r7, #12]
 8005b9c:	681b      	ldr	r3, [r3, #0]
 8005b9e:	685a      	ldr	r2, [r3, #4]
 8005ba0:	68fb      	ldr	r3, [r7, #12]
 8005ba2:	681b      	ldr	r3, [r3, #0]
 8005ba4:	2120      	movs	r1, #32
 8005ba6:	438a      	bics	r2, r1
 8005ba8:	605a      	str	r2, [r3, #4]
      }
    }
#endif /* USE_SPI_CRC */

    /* Check the end of the transaction */
    if (SPI_EndRxTxTransaction(hspi, SPI_DEFAULT_TIMEOUT, tickstart) != HAL_OK)
 8005baa:	68ba      	ldr	r2, [r7, #8]
 8005bac:	68fb      	ldr	r3, [r7, #12]
 8005bae:	2164      	movs	r1, #100	; 0x64
 8005bb0:	0018      	movs	r0, r3
 8005bb2:	f000 f9bb 	bl	8005f2c <SPI_EndRxTxTransaction>
 8005bb6:	1e03      	subs	r3, r0, #0
 8005bb8:	d005      	beq.n	8005bc6 <SPI_DMATransmitReceiveCplt+0x50>
    {
      SET_BIT(hspi->ErrorCode, HAL_SPI_ERROR_FLAG);
 8005bba:	68fb      	ldr	r3, [r7, #12]
 8005bbc:	6e1b      	ldr	r3, [r3, #96]	; 0x60
 8005bbe:	2220      	movs	r2, #32
 8005bc0:	431a      	orrs	r2, r3
 8005bc2:	68fb      	ldr	r3, [r7, #12]
 8005bc4:	661a      	str	r2, [r3, #96]	; 0x60
    }

    /* Disable Rx/Tx DMA Request */
    CLEAR_BIT(hspi->Instance->CR2, SPI_CR2_TXDMAEN | SPI_CR2_RXDMAEN);
 8005bc6:	68fb      	ldr	r3, [r7, #12]
 8005bc8:	681b      	ldr	r3, [r3, #0]
 8005bca:	685a      	ldr	r2, [r3, #4]
 8005bcc:	68fb      	ldr	r3, [r7, #12]
 8005bce:	681b      	ldr	r3, [r3, #0]
 8005bd0:	2103      	movs	r1, #3
 8005bd2:	438a      	bics	r2, r1
 8005bd4:	605a      	str	r2, [r3, #4]

    hspi->TxXferCount = 0U;
 8005bd6:	68fb      	ldr	r3, [r7, #12]
 8005bd8:	2200      	movs	r2, #0
 8005bda:	87da      	strh	r2, [r3, #62]	; 0x3e
    hspi->RxXferCount = 0U;
 8005bdc:	68fb      	ldr	r3, [r7, #12]
 8005bde:	2246      	movs	r2, #70	; 0x46
 8005be0:	2100      	movs	r1, #0
 8005be2:	5299      	strh	r1, [r3, r2]
    hspi->State = HAL_SPI_STATE_READY;
 8005be4:	68fb      	ldr	r3, [r7, #12]
 8005be6:	225d      	movs	r2, #93	; 0x5d
 8005be8:	2101      	movs	r1, #1
 8005bea:	5499      	strb	r1, [r3, r2]
      SET_BIT(hspi->ErrorCode, HAL_SPI_ERROR_CRC);
      __HAL_SPI_CLEAR_CRCERRFLAG(hspi);
    }
#endif /* USE_SPI_CRC */

    if (hspi->ErrorCode != HAL_SPI_ERROR_NONE)
 8005bec:	68fb      	ldr	r3, [r7, #12]
 8005bee:	6e1b      	ldr	r3, [r3, #96]	; 0x60
 8005bf0:	2b00      	cmp	r3, #0
 8005bf2:	d004      	beq.n	8005bfe <SPI_DMATransmitReceiveCplt+0x88>
    {
      /* Call user error callback */
#if (USE_HAL_SPI_REGISTER_CALLBACKS == 1U)
      hspi->ErrorCallback(hspi);
#else
      HAL_SPI_ErrorCallback(hspi);
 8005bf4:	68fb      	ldr	r3, [r7, #12]
 8005bf6:	0018      	movs	r0, r3
 8005bf8:	f7ff ff1a 	bl	8005a30 <HAL_SPI_ErrorCallback>
#endif /* USE_HAL_SPI_REGISTER_CALLBACKS */
      return;
 8005bfc:	e003      	b.n	8005c06 <SPI_DMATransmitReceiveCplt+0x90>
  }
  /* Call user TxRx complete callback */
#if (USE_HAL_SPI_REGISTER_CALLBACKS == 1U)
  hspi->TxRxCpltCallback(hspi);
#else
  HAL_SPI_TxRxCpltCallback(hspi);
 8005bfe:	68fb      	ldr	r3, [r7, #12]
 8005c00:	0018      	movs	r0, r3
 8005c02:	f7ff fef5 	bl	80059f0 <HAL_SPI_TxRxCpltCallback>
#endif /* USE_HAL_SPI_REGISTER_CALLBACKS */
}
 8005c06:	46bd      	mov	sp, r7
 8005c08:	b004      	add	sp, #16
 8005c0a:	bd80      	pop	{r7, pc}

08005c0c <SPI_DMAHalfTransmitCplt>:
  * @param  hdma pointer to a DMA_HandleTypeDef structure that contains
  *               the configuration information for the specified DMA module.
  * @retval None
  */
static void SPI_DMAHalfTransmitCplt(DMA_HandleTypeDef *hdma)
{
 8005c0c:	b580      	push	{r7, lr}
 8005c0e:	b084      	sub	sp, #16
 8005c10:	af00      	add	r7, sp, #0
 8005c12:	6078      	str	r0, [r7, #4]
  SPI_HandleTypeDef *hspi = (SPI_HandleTypeDef *)(((DMA_HandleTypeDef *)hdma)->Parent); /* Derogation MISRAC2012-Rule-11.5 */
 8005c14:	687b      	ldr	r3, [r7, #4]
 8005c16:	6a5b      	ldr	r3, [r3, #36]	; 0x24
 8005c18:	60fb      	str	r3, [r7, #12]

  /* Call user Tx half complete callback */
#if (USE_HAL_SPI_REGISTER_CALLBACKS == 1U)
  hspi->TxHalfCpltCallback(hspi);
#else
  HAL_SPI_TxHalfCpltCallback(hspi);
 8005c1a:	68fb      	ldr	r3, [r7, #12]
 8005c1c:	0018      	movs	r0, r3
 8005c1e:	f7ff feef 	bl	8005a00 <HAL_SPI_TxHalfCpltCallback>
#endif /* USE_HAL_SPI_REGISTER_CALLBACKS */
}
 8005c22:	46c0      	nop			; (mov r8, r8)
 8005c24:	46bd      	mov	sp, r7
 8005c26:	b004      	add	sp, #16
 8005c28:	bd80      	pop	{r7, pc}

08005c2a <SPI_DMAHalfReceiveCplt>:
  * @param  hdma pointer to a DMA_HandleTypeDef structure that contains
  *               the configuration information for the specified DMA module.
  * @retval None
  */
static void SPI_DMAHalfReceiveCplt(DMA_HandleTypeDef *hdma)
{
 8005c2a:	b580      	push	{r7, lr}
 8005c2c:	b084      	sub	sp, #16
 8005c2e:	af00      	add	r7, sp, #0
 8005c30:	6078      	str	r0, [r7, #4]
  SPI_HandleTypeDef *hspi = (SPI_HandleTypeDef *)(((DMA_HandleTypeDef *)hdma)->Parent); /* Derogation MISRAC2012-Rule-11.5 */
 8005c32:	687b      	ldr	r3, [r7, #4]
 8005c34:	6a5b      	ldr	r3, [r3, #36]	; 0x24
 8005c36:	60fb      	str	r3, [r7, #12]

  /* Call user Rx half complete callback */
#if (USE_HAL_SPI_REGISTER_CALLBACKS == 1U)
  hspi->RxHalfCpltCallback(hspi);
#else
  HAL_SPI_RxHalfCpltCallback(hspi);
 8005c38:	68fb      	ldr	r3, [r7, #12]
 8005c3a:	0018      	movs	r0, r3
 8005c3c:	f7ff fee8 	bl	8005a10 <HAL_SPI_RxHalfCpltCallback>
#endif /* USE_HAL_SPI_REGISTER_CALLBACKS */
}
 8005c40:	46c0      	nop			; (mov r8, r8)
 8005c42:	46bd      	mov	sp, r7
 8005c44:	b004      	add	sp, #16
 8005c46:	bd80      	pop	{r7, pc}

08005c48 <SPI_DMAHalfTransmitReceiveCplt>:
  * @param  hdma pointer to a DMA_HandleTypeDef structure that contains
  *               the configuration information for the specified DMA module.
  * @retval None
  */
static void SPI_DMAHalfTransmitReceiveCplt(DMA_HandleTypeDef *hdma)
{
 8005c48:	b580      	push	{r7, lr}
 8005c4a:	b084      	sub	sp, #16
 8005c4c:	af00      	add	r7, sp, #0
 8005c4e:	6078      	str	r0, [r7, #4]
  SPI_HandleTypeDef *hspi = (SPI_HandleTypeDef *)(((DMA_HandleTypeDef *)hdma)->Parent); /* Derogation MISRAC2012-Rule-11.5 */
 8005c50:	687b      	ldr	r3, [r7, #4]
 8005c52:	6a5b      	ldr	r3, [r3, #36]	; 0x24
 8005c54:	60fb      	str	r3, [r7, #12]

  /* Call user TxRx half complete callback */
#if (USE_HAL_SPI_REGISTER_CALLBACKS == 1U)
  hspi->TxRxHalfCpltCallback(hspi);
#else
  HAL_SPI_TxRxHalfCpltCallback(hspi);
 8005c56:	68fb      	ldr	r3, [r7, #12]
 8005c58:	0018      	movs	r0, r3
 8005c5a:	f7ff fee1 	bl	8005a20 <HAL_SPI_TxRxHalfCpltCallback>
#endif /* USE_HAL_SPI_REGISTER_CALLBACKS */
}
 8005c5e:	46c0      	nop			; (mov r8, r8)
 8005c60:	46bd      	mov	sp, r7
 8005c62:	b004      	add	sp, #16
 8005c64:	bd80      	pop	{r7, pc}

08005c66 <SPI_DMAError>:
  * @param  hdma pointer to a DMA_HandleTypeDef structure that contains
  *               the configuration information for the specified DMA module.
  * @retval None
  */
static void SPI_DMAError(DMA_HandleTypeDef *hdma)
{
 8005c66:	b580      	push	{r7, lr}
 8005c68:	b084      	sub	sp, #16
 8005c6a:	af00      	add	r7, sp, #0
 8005c6c:	6078      	str	r0, [r7, #4]
  SPI_HandleTypeDef *hspi = (SPI_HandleTypeDef *)(((DMA_HandleTypeDef *)hdma)->Parent); /* Derogation MISRAC2012-Rule-11.5 */
 8005c6e:	687b      	ldr	r3, [r7, #4]
 8005c70:	6a5b      	ldr	r3, [r3, #36]	; 0x24
 8005c72:	60fb      	str	r3, [r7, #12]

  /* Stop the disable DMA transfer on SPI side */
  CLEAR_BIT(hspi->Instance->CR2, SPI_CR2_TXDMAEN | SPI_CR2_RXDMAEN);
 8005c74:	68fb      	ldr	r3, [r7, #12]
 8005c76:	681b      	ldr	r3, [r3, #0]
 8005c78:	685a      	ldr	r2, [r3, #4]
 8005c7a:	68fb      	ldr	r3, [r7, #12]
 8005c7c:	681b      	ldr	r3, [r3, #0]
 8005c7e:	2103      	movs	r1, #3
 8005c80:	438a      	bics	r2, r1
 8005c82:	605a      	str	r2, [r3, #4]

  SET_BIT(hspi->ErrorCode, HAL_SPI_ERROR_DMA);
 8005c84:	68fb      	ldr	r3, [r7, #12]
 8005c86:	6e1b      	ldr	r3, [r3, #96]	; 0x60
 8005c88:	2210      	movs	r2, #16
 8005c8a:	431a      	orrs	r2, r3
 8005c8c:	68fb      	ldr	r3, [r7, #12]
 8005c8e:	661a      	str	r2, [r3, #96]	; 0x60
  hspi->State = HAL_SPI_STATE_READY;
 8005c90:	68fb      	ldr	r3, [r7, #12]
 8005c92:	225d      	movs	r2, #93	; 0x5d
 8005c94:	2101      	movs	r1, #1
 8005c96:	5499      	strb	r1, [r3, r2]
  /* Call user error callback */
#if (USE_HAL_SPI_REGISTER_CALLBACKS == 1U)
  hspi->ErrorCallback(hspi);
#else
  HAL_SPI_ErrorCallback(hspi);
 8005c98:	68fb      	ldr	r3, [r7, #12]
 8005c9a:	0018      	movs	r0, r3
 8005c9c:	f7ff fec8 	bl	8005a30 <HAL_SPI_ErrorCallback>
#endif /* USE_HAL_SPI_REGISTER_CALLBACKS */
}
 8005ca0:	46c0      	nop			; (mov r8, r8)
 8005ca2:	46bd      	mov	sp, r7
 8005ca4:	b004      	add	sp, #16
 8005ca6:	bd80      	pop	{r7, pc}

08005ca8 <SPI_WaitFlagStateUntilTimeout>:
  * @param  Tickstart tick start value
  * @retval HAL status
  */
static HAL_StatusTypeDef SPI_WaitFlagStateUntilTimeout(SPI_HandleTypeDef *hspi, uint32_t Flag, FlagStatus State,
                                                       uint32_t Timeout, uint32_t Tickstart)
{
 8005ca8:	b580      	push	{r7, lr}
 8005caa:	b084      	sub	sp, #16
 8005cac:	af00      	add	r7, sp, #0
 8005cae:	60f8      	str	r0, [r7, #12]
 8005cb0:	60b9      	str	r1, [r7, #8]
 8005cb2:	603b      	str	r3, [r7, #0]
 8005cb4:	1dfb      	adds	r3, r7, #7
 8005cb6:	701a      	strb	r2, [r3, #0]
  while ((__HAL_SPI_GET_FLAG(hspi, Flag) ? SET : RESET) != State)
 8005cb8:	e050      	b.n	8005d5c <SPI_WaitFlagStateUntilTimeout+0xb4>
  {
    if (Timeout != HAL_MAX_DELAY)
 8005cba:	683b      	ldr	r3, [r7, #0]
 8005cbc:	3301      	adds	r3, #1
 8005cbe:	d04d      	beq.n	8005d5c <SPI_WaitFlagStateUntilTimeout+0xb4>
    {
      if (((HAL_GetTick() - Tickstart) >= Timeout) || (Timeout == 0U))
 8005cc0:	f7fd fd58 	bl	8003774 <HAL_GetTick>
 8005cc4:	0002      	movs	r2, r0
 8005cc6:	69bb      	ldr	r3, [r7, #24]
 8005cc8:	1ad3      	subs	r3, r2, r3
 8005cca:	683a      	ldr	r2, [r7, #0]
 8005ccc:	429a      	cmp	r2, r3
 8005cce:	d902      	bls.n	8005cd6 <SPI_WaitFlagStateUntilTimeout+0x2e>
 8005cd0:	683b      	ldr	r3, [r7, #0]
 8005cd2:	2b00      	cmp	r3, #0
 8005cd4:	d142      	bne.n	8005d5c <SPI_WaitFlagStateUntilTimeout+0xb4>
        /* Disable the SPI and reset the CRC: the CRC value should be cleared
        on both master and slave sides in order to resynchronize the master
        and slave for their respective CRC calculation */

        /* Disable TXE, RXNE and ERR interrupts for the interrupt process */
        __HAL_SPI_DISABLE_IT(hspi, (SPI_IT_TXE | SPI_IT_RXNE | SPI_IT_ERR));
 8005cd6:	68fb      	ldr	r3, [r7, #12]
 8005cd8:	681b      	ldr	r3, [r3, #0]
 8005cda:	685a      	ldr	r2, [r3, #4]
 8005cdc:	68fb      	ldr	r3, [r7, #12]
 8005cde:	681b      	ldr	r3, [r3, #0]
 8005ce0:	21e0      	movs	r1, #224	; 0xe0
 8005ce2:	438a      	bics	r2, r1
 8005ce4:	605a      	str	r2, [r3, #4]

        if ((hspi->Init.Mode == SPI_MODE_MASTER) && ((hspi->Init.Direction == SPI_DIRECTION_1LINE)
 8005ce6:	68fb      	ldr	r3, [r7, #12]
 8005ce8:	685a      	ldr	r2, [r3, #4]
 8005cea:	2382      	movs	r3, #130	; 0x82
 8005cec:	005b      	lsls	r3, r3, #1
 8005cee:	429a      	cmp	r2, r3
 8005cf0:	d113      	bne.n	8005d1a <SPI_WaitFlagStateUntilTimeout+0x72>
 8005cf2:	68fb      	ldr	r3, [r7, #12]
 8005cf4:	689a      	ldr	r2, [r3, #8]
 8005cf6:	2380      	movs	r3, #128	; 0x80
 8005cf8:	021b      	lsls	r3, r3, #8
 8005cfa:	429a      	cmp	r2, r3
 8005cfc:	d005      	beq.n	8005d0a <SPI_WaitFlagStateUntilTimeout+0x62>
                                                     || (hspi->Init.Direction == SPI_DIRECTION_2LINES_RXONLY)))
 8005cfe:	68fb      	ldr	r3, [r7, #12]
 8005d00:	689a      	ldr	r2, [r3, #8]
 8005d02:	2380      	movs	r3, #128	; 0x80
 8005d04:	00db      	lsls	r3, r3, #3
 8005d06:	429a      	cmp	r2, r3
 8005d08:	d107      	bne.n	8005d1a <SPI_WaitFlagStateUntilTimeout+0x72>
        {
          /* Disable SPI peripheral */
          __HAL_SPI_DISABLE(hspi);
 8005d0a:	68fb      	ldr	r3, [r7, #12]
 8005d0c:	681b      	ldr	r3, [r3, #0]
 8005d0e:	681a      	ldr	r2, [r3, #0]
 8005d10:	68fb      	ldr	r3, [r7, #12]
 8005d12:	681b      	ldr	r3, [r3, #0]
 8005d14:	2140      	movs	r1, #64	; 0x40
 8005d16:	438a      	bics	r2, r1
 8005d18:	601a      	str	r2, [r3, #0]
        }

        /* Reset CRC Calculation */
        if (hspi->Init.CRCCalculation == SPI_CRCCALCULATION_ENABLE)
 8005d1a:	68fb      	ldr	r3, [r7, #12]
 8005d1c:	6a9a      	ldr	r2, [r3, #40]	; 0x28
 8005d1e:	2380      	movs	r3, #128	; 0x80
 8005d20:	019b      	lsls	r3, r3, #6
 8005d22:	429a      	cmp	r2, r3
 8005d24:	d110      	bne.n	8005d48 <SPI_WaitFlagStateUntilTimeout+0xa0>
        {
          SPI_RESET_CRC(hspi);
 8005d26:	68fb      	ldr	r3, [r7, #12]
 8005d28:	681b      	ldr	r3, [r3, #0]
 8005d2a:	681a      	ldr	r2, [r3, #0]
 8005d2c:	68fb      	ldr	r3, [r7, #12]
 8005d2e:	681b      	ldr	r3, [r3, #0]
 8005d30:	4914      	ldr	r1, [pc, #80]	; (8005d84 <SPI_WaitFlagStateUntilTimeout+0xdc>)
 8005d32:	400a      	ands	r2, r1
 8005d34:	601a      	str	r2, [r3, #0]
 8005d36:	68fb      	ldr	r3, [r7, #12]
 8005d38:	681b      	ldr	r3, [r3, #0]
 8005d3a:	681a      	ldr	r2, [r3, #0]
 8005d3c:	68fb      	ldr	r3, [r7, #12]
 8005d3e:	681b      	ldr	r3, [r3, #0]
 8005d40:	2180      	movs	r1, #128	; 0x80
 8005d42:	0189      	lsls	r1, r1, #6
 8005d44:	430a      	orrs	r2, r1
 8005d46:	601a      	str	r2, [r3, #0]
        }

        hspi->State = HAL_SPI_STATE_READY;
 8005d48:	68fb      	ldr	r3, [r7, #12]
 8005d4a:	225d      	movs	r2, #93	; 0x5d
 8005d4c:	2101      	movs	r1, #1
 8005d4e:	5499      	strb	r1, [r3, r2]

        /* Process Unlocked */
        __HAL_UNLOCK(hspi);
 8005d50:	68fb      	ldr	r3, [r7, #12]
 8005d52:	225c      	movs	r2, #92	; 0x5c
 8005d54:	2100      	movs	r1, #0
 8005d56:	5499      	strb	r1, [r3, r2]

        return HAL_TIMEOUT;
 8005d58:	2303      	movs	r3, #3
 8005d5a:	e00f      	b.n	8005d7c <SPI_WaitFlagStateUntilTimeout+0xd4>
  while ((__HAL_SPI_GET_FLAG(hspi, Flag) ? SET : RESET) != State)
 8005d5c:	68fb      	ldr	r3, [r7, #12]
 8005d5e:	681b      	ldr	r3, [r3, #0]
 8005d60:	689b      	ldr	r3, [r3, #8]
 8005d62:	68ba      	ldr	r2, [r7, #8]
 8005d64:	4013      	ands	r3, r2
 8005d66:	68ba      	ldr	r2, [r7, #8]
 8005d68:	1ad3      	subs	r3, r2, r3
 8005d6a:	425a      	negs	r2, r3
 8005d6c:	4153      	adcs	r3, r2
 8005d6e:	b2db      	uxtb	r3, r3
 8005d70:	001a      	movs	r2, r3
 8005d72:	1dfb      	adds	r3, r7, #7
 8005d74:	781b      	ldrb	r3, [r3, #0]
 8005d76:	429a      	cmp	r2, r3
 8005d78:	d19f      	bne.n	8005cba <SPI_WaitFlagStateUntilTimeout+0x12>
      }
    }
  }

  return HAL_OK;
 8005d7a:	2300      	movs	r3, #0
}
 8005d7c:	0018      	movs	r0, r3
 8005d7e:	46bd      	mov	sp, r7
 8005d80:	b004      	add	sp, #16
 8005d82:	bd80      	pop	{r7, pc}
 8005d84:	ffffdfff 	.word	0xffffdfff

08005d88 <SPI_WaitFifoStateUntilTimeout>:
  * @param  Tickstart tick start value
  * @retval HAL status
  */
static HAL_StatusTypeDef SPI_WaitFifoStateUntilTimeout(SPI_HandleTypeDef *hspi, uint32_t Fifo, uint32_t State,
                                                       uint32_t Timeout, uint32_t Tickstart)
{
 8005d88:	b580      	push	{r7, lr}
 8005d8a:	b084      	sub	sp, #16
 8005d8c:	af00      	add	r7, sp, #0
 8005d8e:	60f8      	str	r0, [r7, #12]
 8005d90:	60b9      	str	r1, [r7, #8]
 8005d92:	607a      	str	r2, [r7, #4]
 8005d94:	603b      	str	r3, [r7, #0]
  while ((hspi->Instance->SR & Fifo) != State)
 8005d96:	e05c      	b.n	8005e52 <SPI_WaitFifoStateUntilTimeout+0xca>
  {
    if ((Fifo == SPI_SR_FRLVL) && (State == SPI_FRLVL_EMPTY))
 8005d98:	68ba      	ldr	r2, [r7, #8]
 8005d9a:	23c0      	movs	r3, #192	; 0xc0
 8005d9c:	00db      	lsls	r3, r3, #3
 8005d9e:	429a      	cmp	r2, r3
 8005da0:	d106      	bne.n	8005db0 <SPI_WaitFifoStateUntilTimeout+0x28>
 8005da2:	687b      	ldr	r3, [r7, #4]
 8005da4:	2b00      	cmp	r3, #0
 8005da6:	d103      	bne.n	8005db0 <SPI_WaitFifoStateUntilTimeout+0x28>
    {
      /* Read 8bit CRC to flush Data Register */
      READ_REG(*((__IO uint8_t *)&hspi->Instance->DR));
 8005da8:	68fb      	ldr	r3, [r7, #12]
 8005daa:	681b      	ldr	r3, [r3, #0]
 8005dac:	330c      	adds	r3, #12
 8005dae:	781b      	ldrb	r3, [r3, #0]
    }

    if (Timeout != HAL_MAX_DELAY)
 8005db0:	683b      	ldr	r3, [r7, #0]
 8005db2:	3301      	adds	r3, #1
 8005db4:	d04d      	beq.n	8005e52 <SPI_WaitFifoStateUntilTimeout+0xca>
    {
      if (((HAL_GetTick() - Tickstart) >= Timeout) || (Timeout == 0U))
 8005db6:	f7fd fcdd 	bl	8003774 <HAL_GetTick>
 8005dba:	0002      	movs	r2, r0
 8005dbc:	69bb      	ldr	r3, [r7, #24]
 8005dbe:	1ad3      	subs	r3, r2, r3
 8005dc0:	683a      	ldr	r2, [r7, #0]
 8005dc2:	429a      	cmp	r2, r3
 8005dc4:	d902      	bls.n	8005dcc <SPI_WaitFifoStateUntilTimeout+0x44>
 8005dc6:	683b      	ldr	r3, [r7, #0]
 8005dc8:	2b00      	cmp	r3, #0
 8005dca:	d142      	bne.n	8005e52 <SPI_WaitFifoStateUntilTimeout+0xca>
        /* Disable the SPI and reset the CRC: the CRC value should be cleared
           on both master and slave sides in order to resynchronize the master
           and slave for their respective CRC calculation */

        /* Disable TXE, RXNE and ERR interrupts for the interrupt process */
        __HAL_SPI_DISABLE_IT(hspi, (SPI_IT_TXE | SPI_IT_RXNE | SPI_IT_ERR));
 8005dcc:	68fb      	ldr	r3, [r7, #12]
 8005dce:	681b      	ldr	r3, [r3, #0]
 8005dd0:	685a      	ldr	r2, [r3, #4]
 8005dd2:	68fb      	ldr	r3, [r7, #12]
 8005dd4:	681b      	ldr	r3, [r3, #0]
 8005dd6:	21e0      	movs	r1, #224	; 0xe0
 8005dd8:	438a      	bics	r2, r1
 8005dda:	605a      	str	r2, [r3, #4]

        if ((hspi->Init.Mode == SPI_MODE_MASTER) && ((hspi->Init.Direction == SPI_DIRECTION_1LINE)
 8005ddc:	68fb      	ldr	r3, [r7, #12]
 8005dde:	685a      	ldr	r2, [r3, #4]
 8005de0:	2382      	movs	r3, #130	; 0x82
 8005de2:	005b      	lsls	r3, r3, #1
 8005de4:	429a      	cmp	r2, r3
 8005de6:	d113      	bne.n	8005e10 <SPI_WaitFifoStateUntilTimeout+0x88>
 8005de8:	68fb      	ldr	r3, [r7, #12]
 8005dea:	689a      	ldr	r2, [r3, #8]
 8005dec:	2380      	movs	r3, #128	; 0x80
 8005dee:	021b      	lsls	r3, r3, #8
 8005df0:	429a      	cmp	r2, r3
 8005df2:	d005      	beq.n	8005e00 <SPI_WaitFifoStateUntilTimeout+0x78>
                                                     || (hspi->Init.Direction == SPI_DIRECTION_2LINES_RXONLY)))
 8005df4:	68fb      	ldr	r3, [r7, #12]
 8005df6:	689a      	ldr	r2, [r3, #8]
 8005df8:	2380      	movs	r3, #128	; 0x80
 8005dfa:	00db      	lsls	r3, r3, #3
 8005dfc:	429a      	cmp	r2, r3
 8005dfe:	d107      	bne.n	8005e10 <SPI_WaitFifoStateUntilTimeout+0x88>
        {
          /* Disable SPI peripheral */
          __HAL_SPI_DISABLE(hspi);
 8005e00:	68fb      	ldr	r3, [r7, #12]
 8005e02:	681b      	ldr	r3, [r3, #0]
 8005e04:	681a      	ldr	r2, [r3, #0]
 8005e06:	68fb      	ldr	r3, [r7, #12]
 8005e08:	681b      	ldr	r3, [r3, #0]
 8005e0a:	2140      	movs	r1, #64	; 0x40
 8005e0c:	438a      	bics	r2, r1
 8005e0e:	601a      	str	r2, [r3, #0]
        }

        /* Reset CRC Calculation */
        if (hspi->Init.CRCCalculation == SPI_CRCCALCULATION_ENABLE)
 8005e10:	68fb      	ldr	r3, [r7, #12]
 8005e12:	6a9a      	ldr	r2, [r3, #40]	; 0x28
 8005e14:	2380      	movs	r3, #128	; 0x80
 8005e16:	019b      	lsls	r3, r3, #6
 8005e18:	429a      	cmp	r2, r3
 8005e1a:	d110      	bne.n	8005e3e <SPI_WaitFifoStateUntilTimeout+0xb6>
        {
          SPI_RESET_CRC(hspi);
 8005e1c:	68fb      	ldr	r3, [r7, #12]
 8005e1e:	681b      	ldr	r3, [r3, #0]
 8005e20:	681a      	ldr	r2, [r3, #0]
 8005e22:	68fb      	ldr	r3, [r7, #12]
 8005e24:	681b      	ldr	r3, [r3, #0]
 8005e26:	4911      	ldr	r1, [pc, #68]	; (8005e6c <SPI_WaitFifoStateUntilTimeout+0xe4>)
 8005e28:	400a      	ands	r2, r1
 8005e2a:	601a      	str	r2, [r3, #0]
 8005e2c:	68fb      	ldr	r3, [r7, #12]
 8005e2e:	681b      	ldr	r3, [r3, #0]
 8005e30:	681a      	ldr	r2, [r3, #0]
 8005e32:	68fb      	ldr	r3, [r7, #12]
 8005e34:	681b      	ldr	r3, [r3, #0]
 8005e36:	2180      	movs	r1, #128	; 0x80
 8005e38:	0189      	lsls	r1, r1, #6
 8005e3a:	430a      	orrs	r2, r1
 8005e3c:	601a      	str	r2, [r3, #0]
        }

        hspi->State = HAL_SPI_STATE_READY;
 8005e3e:	68fb      	ldr	r3, [r7, #12]
 8005e40:	225d      	movs	r2, #93	; 0x5d
 8005e42:	2101      	movs	r1, #1
 8005e44:	5499      	strb	r1, [r3, r2]

        /* Process Unlocked */
        __HAL_UNLOCK(hspi);
 8005e46:	68fb      	ldr	r3, [r7, #12]
 8005e48:	225c      	movs	r2, #92	; 0x5c
 8005e4a:	2100      	movs	r1, #0
 8005e4c:	5499      	strb	r1, [r3, r2]

        return HAL_TIMEOUT;
 8005e4e:	2303      	movs	r3, #3
 8005e50:	e008      	b.n	8005e64 <SPI_WaitFifoStateUntilTimeout+0xdc>
  while ((hspi->Instance->SR & Fifo) != State)
 8005e52:	68fb      	ldr	r3, [r7, #12]
 8005e54:	681b      	ldr	r3, [r3, #0]
 8005e56:	689b      	ldr	r3, [r3, #8]
 8005e58:	68ba      	ldr	r2, [r7, #8]
 8005e5a:	4013      	ands	r3, r2
 8005e5c:	687a      	ldr	r2, [r7, #4]
 8005e5e:	429a      	cmp	r2, r3
 8005e60:	d19a      	bne.n	8005d98 <SPI_WaitFifoStateUntilTimeout+0x10>
      }
    }
  }

  return HAL_OK;
 8005e62:	2300      	movs	r3, #0
}
 8005e64:	0018      	movs	r0, r3
 8005e66:	46bd      	mov	sp, r7
 8005e68:	b004      	add	sp, #16
 8005e6a:	bd80      	pop	{r7, pc}
 8005e6c:	ffffdfff 	.word	0xffffdfff

08005e70 <SPI_EndRxTransaction>:
  * @param  Timeout Timeout duration
  * @param  Tickstart tick start value
  * @retval HAL status
  */
static HAL_StatusTypeDef SPI_EndRxTransaction(SPI_HandleTypeDef *hspi,  uint32_t Timeout, uint32_t Tickstart)
{
 8005e70:	b580      	push	{r7, lr}
 8005e72:	b086      	sub	sp, #24
 8005e74:	af02      	add	r7, sp, #8
 8005e76:	60f8      	str	r0, [r7, #12]
 8005e78:	60b9      	str	r1, [r7, #8]
 8005e7a:	607a      	str	r2, [r7, #4]
  if ((hspi->Init.Mode == SPI_MODE_MASTER) && ((hspi->Init.Direction == SPI_DIRECTION_1LINE)
 8005e7c:	68fb      	ldr	r3, [r7, #12]
 8005e7e:	685a      	ldr	r2, [r3, #4]
 8005e80:	2382      	movs	r3, #130	; 0x82
 8005e82:	005b      	lsls	r3, r3, #1
 8005e84:	429a      	cmp	r2, r3
 8005e86:	d113      	bne.n	8005eb0 <SPI_EndRxTransaction+0x40>
 8005e88:	68fb      	ldr	r3, [r7, #12]
 8005e8a:	689a      	ldr	r2, [r3, #8]
 8005e8c:	2380      	movs	r3, #128	; 0x80
 8005e8e:	021b      	lsls	r3, r3, #8
 8005e90:	429a      	cmp	r2, r3
 8005e92:	d005      	beq.n	8005ea0 <SPI_EndRxTransaction+0x30>
                                               || (hspi->Init.Direction == SPI_DIRECTION_2LINES_RXONLY)))
 8005e94:	68fb      	ldr	r3, [r7, #12]
 8005e96:	689a      	ldr	r2, [r3, #8]
 8005e98:	2380      	movs	r3, #128	; 0x80
 8005e9a:	00db      	lsls	r3, r3, #3
 8005e9c:	429a      	cmp	r2, r3
 8005e9e:	d107      	bne.n	8005eb0 <SPI_EndRxTransaction+0x40>
  {
    /* Disable SPI peripheral */
    __HAL_SPI_DISABLE(hspi);
 8005ea0:	68fb      	ldr	r3, [r7, #12]
 8005ea2:	681b      	ldr	r3, [r3, #0]
 8005ea4:	681a      	ldr	r2, [r3, #0]
 8005ea6:	68fb      	ldr	r3, [r7, #12]
 8005ea8:	681b      	ldr	r3, [r3, #0]
 8005eaa:	2140      	movs	r1, #64	; 0x40
 8005eac:	438a      	bics	r2, r1
 8005eae:	601a      	str	r2, [r3, #0]
  }

  /* Control the BSY flag */
  if (SPI_WaitFlagStateUntilTimeout(hspi, SPI_FLAG_BSY, RESET, Timeout, Tickstart) != HAL_OK)
 8005eb0:	68ba      	ldr	r2, [r7, #8]
 8005eb2:	68f8      	ldr	r0, [r7, #12]
 8005eb4:	687b      	ldr	r3, [r7, #4]
 8005eb6:	9300      	str	r3, [sp, #0]
 8005eb8:	0013      	movs	r3, r2
 8005eba:	2200      	movs	r2, #0
 8005ebc:	2180      	movs	r1, #128	; 0x80
 8005ebe:	f7ff fef3 	bl	8005ca8 <SPI_WaitFlagStateUntilTimeout>
 8005ec2:	1e03      	subs	r3, r0, #0
 8005ec4:	d007      	beq.n	8005ed6 <SPI_EndRxTransaction+0x66>
  {
    SET_BIT(hspi->ErrorCode, HAL_SPI_ERROR_FLAG);
 8005ec6:	68fb      	ldr	r3, [r7, #12]
 8005ec8:	6e1b      	ldr	r3, [r3, #96]	; 0x60
 8005eca:	2220      	movs	r2, #32
 8005ecc:	431a      	orrs	r2, r3
 8005ece:	68fb      	ldr	r3, [r7, #12]
 8005ed0:	661a      	str	r2, [r3, #96]	; 0x60
    return HAL_TIMEOUT;
 8005ed2:	2303      	movs	r3, #3
 8005ed4:	e026      	b.n	8005f24 <SPI_EndRxTransaction+0xb4>
  }

  if ((hspi->Init.Mode == SPI_MODE_MASTER) && ((hspi->Init.Direction == SPI_DIRECTION_1LINE)
 8005ed6:	68fb      	ldr	r3, [r7, #12]
 8005ed8:	685a      	ldr	r2, [r3, #4]
 8005eda:	2382      	movs	r3, #130	; 0x82
 8005edc:	005b      	lsls	r3, r3, #1
 8005ede:	429a      	cmp	r2, r3
 8005ee0:	d11f      	bne.n	8005f22 <SPI_EndRxTransaction+0xb2>
 8005ee2:	68fb      	ldr	r3, [r7, #12]
 8005ee4:	689a      	ldr	r2, [r3, #8]
 8005ee6:	2380      	movs	r3, #128	; 0x80
 8005ee8:	021b      	lsls	r3, r3, #8
 8005eea:	429a      	cmp	r2, r3
 8005eec:	d005      	beq.n	8005efa <SPI_EndRxTransaction+0x8a>
                                               || (hspi->Init.Direction == SPI_DIRECTION_2LINES_RXONLY)))
 8005eee:	68fb      	ldr	r3, [r7, #12]
 8005ef0:	689a      	ldr	r2, [r3, #8]
 8005ef2:	2380      	movs	r3, #128	; 0x80
 8005ef4:	00db      	lsls	r3, r3, #3
 8005ef6:	429a      	cmp	r2, r3
 8005ef8:	d113      	bne.n	8005f22 <SPI_EndRxTransaction+0xb2>
  {
    /* Empty the FRLVL fifo */
    if (SPI_WaitFifoStateUntilTimeout(hspi, SPI_FLAG_FRLVL, SPI_FRLVL_EMPTY, Timeout, Tickstart) != HAL_OK)
 8005efa:	68ba      	ldr	r2, [r7, #8]
 8005efc:	23c0      	movs	r3, #192	; 0xc0
 8005efe:	00d9      	lsls	r1, r3, #3
 8005f00:	68f8      	ldr	r0, [r7, #12]
 8005f02:	687b      	ldr	r3, [r7, #4]
 8005f04:	9300      	str	r3, [sp, #0]
 8005f06:	0013      	movs	r3, r2
 8005f08:	2200      	movs	r2, #0
 8005f0a:	f7ff ff3d 	bl	8005d88 <SPI_WaitFifoStateUntilTimeout>
 8005f0e:	1e03      	subs	r3, r0, #0
 8005f10:	d007      	beq.n	8005f22 <SPI_EndRxTransaction+0xb2>
    {
      SET_BIT(hspi->ErrorCode, HAL_SPI_ERROR_FLAG);
 8005f12:	68fb      	ldr	r3, [r7, #12]
 8005f14:	6e1b      	ldr	r3, [r3, #96]	; 0x60
 8005f16:	2220      	movs	r2, #32
 8005f18:	431a      	orrs	r2, r3
 8005f1a:	68fb      	ldr	r3, [r7, #12]
 8005f1c:	661a      	str	r2, [r3, #96]	; 0x60
      return HAL_TIMEOUT;
 8005f1e:	2303      	movs	r3, #3
 8005f20:	e000      	b.n	8005f24 <SPI_EndRxTransaction+0xb4>
    }
  }
  return HAL_OK;
 8005f22:	2300      	movs	r3, #0
}
 8005f24:	0018      	movs	r0, r3
 8005f26:	46bd      	mov	sp, r7
 8005f28:	b004      	add	sp, #16
 8005f2a:	bd80      	pop	{r7, pc}

08005f2c <SPI_EndRxTxTransaction>:
  * @param  Timeout Timeout duration
  * @param  Tickstart tick start value
  * @retval HAL status
  */
static HAL_StatusTypeDef SPI_EndRxTxTransaction(SPI_HandleTypeDef *hspi, uint32_t Timeout, uint32_t Tickstart)
{
 8005f2c:	b580      	push	{r7, lr}
 8005f2e:	b086      	sub	sp, #24
 8005f30:	af02      	add	r7, sp, #8
 8005f32:	60f8      	str	r0, [r7, #12]
 8005f34:	60b9      	str	r1, [r7, #8]
 8005f36:	607a      	str	r2, [r7, #4]
  /* Control if the TX fifo is empty */
  if (SPI_WaitFifoStateUntilTimeout(hspi, SPI_FLAG_FTLVL, SPI_FTLVL_EMPTY, Timeout, Tickstart) != HAL_OK)
 8005f38:	68ba      	ldr	r2, [r7, #8]
 8005f3a:	23c0      	movs	r3, #192	; 0xc0
 8005f3c:	0159      	lsls	r1, r3, #5
 8005f3e:	68f8      	ldr	r0, [r7, #12]
 8005f40:	687b      	ldr	r3, [r7, #4]
 8005f42:	9300      	str	r3, [sp, #0]
 8005f44:	0013      	movs	r3, r2
 8005f46:	2200      	movs	r2, #0
 8005f48:	f7ff ff1e 	bl	8005d88 <SPI_WaitFifoStateUntilTimeout>
 8005f4c:	1e03      	subs	r3, r0, #0
 8005f4e:	d007      	beq.n	8005f60 <SPI_EndRxTxTransaction+0x34>
  {
    SET_BIT(hspi->ErrorCode, HAL_SPI_ERROR_FLAG);
 8005f50:	68fb      	ldr	r3, [r7, #12]
 8005f52:	6e1b      	ldr	r3, [r3, #96]	; 0x60
 8005f54:	2220      	movs	r2, #32
 8005f56:	431a      	orrs	r2, r3
 8005f58:	68fb      	ldr	r3, [r7, #12]
 8005f5a:	661a      	str	r2, [r3, #96]	; 0x60
    return HAL_TIMEOUT;
 8005f5c:	2303      	movs	r3, #3
 8005f5e:	e027      	b.n	8005fb0 <SPI_EndRxTxTransaction+0x84>
  }

  /* Control the BSY flag */
  if (SPI_WaitFlagStateUntilTimeout(hspi, SPI_FLAG_BSY, RESET, Timeout, Tickstart) != HAL_OK)
 8005f60:	68ba      	ldr	r2, [r7, #8]
 8005f62:	68f8      	ldr	r0, [r7, #12]
 8005f64:	687b      	ldr	r3, [r7, #4]
 8005f66:	9300      	str	r3, [sp, #0]
 8005f68:	0013      	movs	r3, r2
 8005f6a:	2200      	movs	r2, #0
 8005f6c:	2180      	movs	r1, #128	; 0x80
 8005f6e:	f7ff fe9b 	bl	8005ca8 <SPI_WaitFlagStateUntilTimeout>
 8005f72:	1e03      	subs	r3, r0, #0
 8005f74:	d007      	beq.n	8005f86 <SPI_EndRxTxTransaction+0x5a>
  {
    SET_BIT(hspi->ErrorCode, HAL_SPI_ERROR_FLAG);
 8005f76:	68fb      	ldr	r3, [r7, #12]
 8005f78:	6e1b      	ldr	r3, [r3, #96]	; 0x60
 8005f7a:	2220      	movs	r2, #32
 8005f7c:	431a      	orrs	r2, r3
 8005f7e:	68fb      	ldr	r3, [r7, #12]
 8005f80:	661a      	str	r2, [r3, #96]	; 0x60
    return HAL_TIMEOUT;
 8005f82:	2303      	movs	r3, #3
 8005f84:	e014      	b.n	8005fb0 <SPI_EndRxTxTransaction+0x84>
  }

  /* Control if the RX fifo is empty */
  if (SPI_WaitFifoStateUntilTimeout(hspi, SPI_FLAG_FRLVL, SPI_FRLVL_EMPTY, Timeout, Tickstart) != HAL_OK)
 8005f86:	68ba      	ldr	r2, [r7, #8]
 8005f88:	23c0      	movs	r3, #192	; 0xc0
 8005f8a:	00d9      	lsls	r1, r3, #3
 8005f8c:	68f8      	ldr	r0, [r7, #12]
 8005f8e:	687b      	ldr	r3, [r7, #4]
 8005f90:	9300      	str	r3, [sp, #0]
 8005f92:	0013      	movs	r3, r2
 8005f94:	2200      	movs	r2, #0
 8005f96:	f7ff fef7 	bl	8005d88 <SPI_WaitFifoStateUntilTimeout>
 8005f9a:	1e03      	subs	r3, r0, #0
 8005f9c:	d007      	beq.n	8005fae <SPI_EndRxTxTransaction+0x82>
  {
    SET_BIT(hspi->ErrorCode, HAL_SPI_ERROR_FLAG);
 8005f9e:	68fb      	ldr	r3, [r7, #12]
 8005fa0:	6e1b      	ldr	r3, [r3, #96]	; 0x60
 8005fa2:	2220      	movs	r2, #32
 8005fa4:	431a      	orrs	r2, r3
 8005fa6:	68fb      	ldr	r3, [r7, #12]
 8005fa8:	661a      	str	r2, [r3, #96]	; 0x60
    return HAL_TIMEOUT;
 8005faa:	2303      	movs	r3, #3
 8005fac:	e000      	b.n	8005fb0 <SPI_EndRxTxTransaction+0x84>
  }

  return HAL_OK;
 8005fae:	2300      	movs	r3, #0
}
 8005fb0:	0018      	movs	r0, r3
 8005fb2:	46bd      	mov	sp, r7
 8005fb4:	b004      	add	sp, #16
 8005fb6:	bd80      	pop	{r7, pc}

08005fb8 <HAL_HalfDuplex_Init>:
  *        parameters in the UART_InitTypeDef and creates the associated handle.
  * @param huart UART handle.
  * @retval HAL status
  */
HAL_StatusTypeDef HAL_HalfDuplex_Init(UART_HandleTypeDef *huart)
{
 8005fb8:	b580      	push	{r7, lr}
 8005fba:	b082      	sub	sp, #8
 8005fbc:	af00      	add	r7, sp, #0
 8005fbe:	6078      	str	r0, [r7, #4]
  /* Check the UART handle allocation */
  if (huart == NULL)
 8005fc0:	687b      	ldr	r3, [r7, #4]
 8005fc2:	2b00      	cmp	r3, #0
 8005fc4:	d101      	bne.n	8005fca <HAL_HalfDuplex_Init+0x12>
  {
    return HAL_ERROR;
 8005fc6:	2301      	movs	r3, #1
 8005fc8:	e04c      	b.n	8006064 <HAL_HalfDuplex_Init+0xac>
  }

  /* Check UART instance */
  assert_param(IS_UART_HALFDUPLEX_INSTANCE(huart->Instance));

  if (huart->gState == HAL_UART_STATE_RESET)
 8005fca:	687b      	ldr	r3, [r7, #4]
 8005fcc:	6f5b      	ldr	r3, [r3, #116]	; 0x74
 8005fce:	2b00      	cmp	r3, #0
 8005fd0:	d107      	bne.n	8005fe2 <HAL_HalfDuplex_Init+0x2a>
  {
    /* Allocate lock resource and initialize it */
    huart->Lock = HAL_UNLOCKED;
 8005fd2:	687b      	ldr	r3, [r7, #4]
 8005fd4:	2270      	movs	r2, #112	; 0x70
 8005fd6:	2100      	movs	r1, #0
 8005fd8:	5499      	strb	r1, [r3, r2]

    /* Init the low level hardware */
    huart->MspInitCallback(huart);
#else
    /* Init the low level hardware : GPIO, CLOCK */
    HAL_UART_MspInit(huart);
 8005fda:	687b      	ldr	r3, [r7, #4]
 8005fdc:	0018      	movs	r0, r3
 8005fde:	f7fd faa1 	bl	8003524 <HAL_UART_MspInit>
#endif /* (USE_HAL_UART_REGISTER_CALLBACKS) */
  }

  huart->gState = HAL_UART_STATE_BUSY;
 8005fe2:	687b      	ldr	r3, [r7, #4]
 8005fe4:	2224      	movs	r2, #36	; 0x24
 8005fe6:	675a      	str	r2, [r3, #116]	; 0x74

  __HAL_UART_DISABLE(huart);
 8005fe8:	687b      	ldr	r3, [r7, #4]
 8005fea:	681b      	ldr	r3, [r3, #0]
 8005fec:	681a      	ldr	r2, [r3, #0]
 8005fee:	687b      	ldr	r3, [r7, #4]
 8005ff0:	681b      	ldr	r3, [r3, #0]
 8005ff2:	2101      	movs	r1, #1
 8005ff4:	438a      	bics	r2, r1
 8005ff6:	601a      	str	r2, [r3, #0]

  /* Set the UART Communication parameters */
  if (UART_SetConfig(huart) == HAL_ERROR)
 8005ff8:	687b      	ldr	r3, [r7, #4]
 8005ffa:	0018      	movs	r0, r3
 8005ffc:	f000 f9b8 	bl	8006370 <UART_SetConfig>
 8006000:	0003      	movs	r3, r0
 8006002:	2b01      	cmp	r3, #1
 8006004:	d101      	bne.n	800600a <HAL_HalfDuplex_Init+0x52>
  {
    return HAL_ERROR;
 8006006:	2301      	movs	r3, #1
 8006008:	e02c      	b.n	8006064 <HAL_HalfDuplex_Init+0xac>
  }

  if (huart->AdvancedInit.AdvFeatureInit != UART_ADVFEATURE_NO_INIT)
 800600a:	687b      	ldr	r3, [r7, #4]
 800600c:	6a5b      	ldr	r3, [r3, #36]	; 0x24
 800600e:	2b00      	cmp	r3, #0
 8006010:	d003      	beq.n	800601a <HAL_HalfDuplex_Init+0x62>
  {
    UART_AdvFeatureConfig(huart);
 8006012:	687b      	ldr	r3, [r7, #4]
 8006014:	0018      	movs	r0, r3
 8006016:	f000 fb31 	bl	800667c <UART_AdvFeatureConfig>

  /* In half-duplex mode, the following bits must be kept cleared:
  - LINEN (if LIN is supported) and CLKEN bits in the USART_CR2 register,
  - SCEN (if Smartcard is supported) and IREN (if IrDA is supported) bits in the USART_CR3 register.*/
#if defined (USART_CR2_LINEN)
  CLEAR_BIT(huart->Instance->CR2, (USART_CR2_LINEN | USART_CR2_CLKEN));
 800601a:	687b      	ldr	r3, [r7, #4]
 800601c:	681b      	ldr	r3, [r3, #0]
 800601e:	685a      	ldr	r2, [r3, #4]
 8006020:	687b      	ldr	r3, [r7, #4]
 8006022:	681b      	ldr	r3, [r3, #0]
 8006024:	4911      	ldr	r1, [pc, #68]	; (800606c <HAL_HalfDuplex_Init+0xb4>)
 8006026:	400a      	ands	r2, r1
 8006028:	605a      	str	r2, [r3, #4]
#else
  CLEAR_BIT(huart->Instance->CR2, USART_CR2_CLKEN);
#endif /* USART_CR2_LINEN */
#if defined (USART_CR3_SCEN)
#if defined (USART_CR3_IREN)
  CLEAR_BIT(huart->Instance->CR3, (USART_CR3_IREN | USART_CR3_SCEN));
 800602a:	687b      	ldr	r3, [r7, #4]
 800602c:	681b      	ldr	r3, [r3, #0]
 800602e:	689a      	ldr	r2, [r3, #8]
 8006030:	687b      	ldr	r3, [r7, #4]
 8006032:	681b      	ldr	r3, [r3, #0]
 8006034:	2122      	movs	r1, #34	; 0x22
 8006036:	438a      	bics	r2, r1
 8006038:	609a      	str	r2, [r3, #8]
  CLEAR_BIT(huart->Instance->CR3, USART_CR3_IREN);
#endif /* USART_CR3_IREN */
#endif /* USART_CR3_SCEN */

  /* Enable the Half-Duplex mode by setting the HDSEL bit in the CR3 register */
  SET_BIT(huart->Instance->CR3, USART_CR3_HDSEL);
 800603a:	687b      	ldr	r3, [r7, #4]
 800603c:	681b      	ldr	r3, [r3, #0]
 800603e:	689a      	ldr	r2, [r3, #8]
 8006040:	687b      	ldr	r3, [r7, #4]
 8006042:	681b      	ldr	r3, [r3, #0]
 8006044:	2108      	movs	r1, #8
 8006046:	430a      	orrs	r2, r1
 8006048:	609a      	str	r2, [r3, #8]

  __HAL_UART_ENABLE(huart);
 800604a:	687b      	ldr	r3, [r7, #4]
 800604c:	681b      	ldr	r3, [r3, #0]
 800604e:	681a      	ldr	r2, [r3, #0]
 8006050:	687b      	ldr	r3, [r7, #4]
 8006052:	681b      	ldr	r3, [r3, #0]
 8006054:	2101      	movs	r1, #1
 8006056:	430a      	orrs	r2, r1
 8006058:	601a      	str	r2, [r3, #0]

  /* TEACK and/or REACK to check before moving huart->gState and huart->RxState to Ready */
  return (UART_CheckIdleState(huart));
 800605a:	687b      	ldr	r3, [r7, #4]
 800605c:	0018      	movs	r0, r3
 800605e:	f000 fbc1 	bl	80067e4 <UART_CheckIdleState>
 8006062:	0003      	movs	r3, r0
}
 8006064:	0018      	movs	r0, r3
 8006066:	46bd      	mov	sp, r7
 8006068:	b002      	add	sp, #8
 800606a:	bd80      	pop	{r7, pc}
 800606c:	ffffb7ff 	.word	0xffffb7ff

08006070 <HAL_UART_Transmit>:
  * @param Size    Amount of data elements (u8 or u16) to be sent.
  * @param Timeout Timeout duration.
  * @retval HAL status
  */
HAL_StatusTypeDef HAL_UART_Transmit(UART_HandleTypeDef *huart, uint8_t *pData, uint16_t Size, uint32_t Timeout)
{
 8006070:	b580      	push	{r7, lr}
 8006072:	b08a      	sub	sp, #40	; 0x28
 8006074:	af02      	add	r7, sp, #8
 8006076:	60f8      	str	r0, [r7, #12]
 8006078:	60b9      	str	r1, [r7, #8]
 800607a:	603b      	str	r3, [r7, #0]
 800607c:	1dbb      	adds	r3, r7, #6
 800607e:	801a      	strh	r2, [r3, #0]
  uint8_t  *pdata8bits;
  uint16_t *pdata16bits;
  uint32_t tickstart;

  /* Check that a Tx process is not already ongoing */
  if (huart->gState == HAL_UART_STATE_READY)
 8006080:	68fb      	ldr	r3, [r7, #12]
 8006082:	6f5b      	ldr	r3, [r3, #116]	; 0x74
 8006084:	2b20      	cmp	r3, #32
 8006086:	d000      	beq.n	800608a <HAL_UART_Transmit+0x1a>
 8006088:	e095      	b.n	80061b6 <HAL_UART_Transmit+0x146>
  {
    if ((pData == NULL) || (Size == 0U))
 800608a:	68bb      	ldr	r3, [r7, #8]
 800608c:	2b00      	cmp	r3, #0
 800608e:	d003      	beq.n	8006098 <HAL_UART_Transmit+0x28>
 8006090:	1dbb      	adds	r3, r7, #6
 8006092:	881b      	ldrh	r3, [r3, #0]
 8006094:	2b00      	cmp	r3, #0
 8006096:	d101      	bne.n	800609c <HAL_UART_Transmit+0x2c>
    {
      return  HAL_ERROR;
 8006098:	2301      	movs	r3, #1
 800609a:	e08d      	b.n	80061b8 <HAL_UART_Transmit+0x148>
    }

    /* In case of 9bits/No Parity transfer, pData buffer provided as input parameter
       should be aligned on a u16 frontier, as data to be filled into TDR will be
       handled through a u16 cast. */
    if ((huart->Init.WordLength == UART_WORDLENGTH_9B) && (huart->Init.Parity == UART_PARITY_NONE))
 800609c:	68fb      	ldr	r3, [r7, #12]
 800609e:	689a      	ldr	r2, [r3, #8]
 80060a0:	2380      	movs	r3, #128	; 0x80
 80060a2:	015b      	lsls	r3, r3, #5
 80060a4:	429a      	cmp	r2, r3
 80060a6:	d109      	bne.n	80060bc <HAL_UART_Transmit+0x4c>
 80060a8:	68fb      	ldr	r3, [r7, #12]
 80060aa:	691b      	ldr	r3, [r3, #16]
 80060ac:	2b00      	cmp	r3, #0
 80060ae:	d105      	bne.n	80060bc <HAL_UART_Transmit+0x4c>
    {
      if ((((uint32_t)pData) & 1U) != 0U)
 80060b0:	68bb      	ldr	r3, [r7, #8]
 80060b2:	2201      	movs	r2, #1
 80060b4:	4013      	ands	r3, r2
 80060b6:	d001      	beq.n	80060bc <HAL_UART_Transmit+0x4c>
      {
        return  HAL_ERROR;
 80060b8:	2301      	movs	r3, #1
 80060ba:	e07d      	b.n	80061b8 <HAL_UART_Transmit+0x148>
      }
    }

    __HAL_LOCK(huart);
 80060bc:	68fb      	ldr	r3, [r7, #12]
 80060be:	2270      	movs	r2, #112	; 0x70
 80060c0:	5c9b      	ldrb	r3, [r3, r2]
 80060c2:	2b01      	cmp	r3, #1
 80060c4:	d101      	bne.n	80060ca <HAL_UART_Transmit+0x5a>
 80060c6:	2302      	movs	r3, #2
 80060c8:	e076      	b.n	80061b8 <HAL_UART_Transmit+0x148>
 80060ca:	68fb      	ldr	r3, [r7, #12]
 80060cc:	2270      	movs	r2, #112	; 0x70
 80060ce:	2101      	movs	r1, #1
 80060d0:	5499      	strb	r1, [r3, r2]

    huart->ErrorCode = HAL_UART_ERROR_NONE;
 80060d2:	68fb      	ldr	r3, [r7, #12]
 80060d4:	2200      	movs	r2, #0
 80060d6:	67da      	str	r2, [r3, #124]	; 0x7c
    huart->gState = HAL_UART_STATE_BUSY_TX;
 80060d8:	68fb      	ldr	r3, [r7, #12]
 80060da:	2221      	movs	r2, #33	; 0x21
 80060dc:	675a      	str	r2, [r3, #116]	; 0x74

    /* Init tickstart for timeout managment*/
    tickstart = HAL_GetTick();
 80060de:	f7fd fb49 	bl	8003774 <HAL_GetTick>
 80060e2:	0003      	movs	r3, r0
 80060e4:	617b      	str	r3, [r7, #20]

    huart->TxXferSize  = Size;
 80060e6:	68fb      	ldr	r3, [r7, #12]
 80060e8:	1dba      	adds	r2, r7, #6
 80060ea:	2150      	movs	r1, #80	; 0x50
 80060ec:	8812      	ldrh	r2, [r2, #0]
 80060ee:	525a      	strh	r2, [r3, r1]
    huart->TxXferCount = Size;
 80060f0:	68fb      	ldr	r3, [r7, #12]
 80060f2:	1dba      	adds	r2, r7, #6
 80060f4:	2152      	movs	r1, #82	; 0x52
 80060f6:	8812      	ldrh	r2, [r2, #0]
 80060f8:	525a      	strh	r2, [r3, r1]

    /* In case of 9bits/No Parity transfer, pData needs to be handled as a uint16_t pointer */
    if ((huart->Init.WordLength == UART_WORDLENGTH_9B) && (huart->Init.Parity == UART_PARITY_NONE))
 80060fa:	68fb      	ldr	r3, [r7, #12]
 80060fc:	689a      	ldr	r2, [r3, #8]
 80060fe:	2380      	movs	r3, #128	; 0x80
 8006100:	015b      	lsls	r3, r3, #5
 8006102:	429a      	cmp	r2, r3
 8006104:	d108      	bne.n	8006118 <HAL_UART_Transmit+0xa8>
 8006106:	68fb      	ldr	r3, [r7, #12]
 8006108:	691b      	ldr	r3, [r3, #16]
 800610a:	2b00      	cmp	r3, #0
 800610c:	d104      	bne.n	8006118 <HAL_UART_Transmit+0xa8>
    {
      pdata8bits  = NULL;
 800610e:	2300      	movs	r3, #0
 8006110:	61fb      	str	r3, [r7, #28]
      pdata16bits = (uint16_t *) pData;
 8006112:	68bb      	ldr	r3, [r7, #8]
 8006114:	61bb      	str	r3, [r7, #24]
 8006116:	e003      	b.n	8006120 <HAL_UART_Transmit+0xb0>
    }
    else
    {
      pdata8bits  = pData;
 8006118:	68bb      	ldr	r3, [r7, #8]
 800611a:	61fb      	str	r3, [r7, #28]
      pdata16bits = NULL;
 800611c:	2300      	movs	r3, #0
 800611e:	61bb      	str	r3, [r7, #24]
    }

    while (huart->TxXferCount > 0U)
 8006120:	e02d      	b.n	800617e <HAL_UART_Transmit+0x10e>
    {
      if (UART_WaitOnFlagUntilTimeout(huart, UART_FLAG_TXE, RESET, tickstart, Timeout) != HAL_OK)
 8006122:	697a      	ldr	r2, [r7, #20]
 8006124:	68f8      	ldr	r0, [r7, #12]
 8006126:	683b      	ldr	r3, [r7, #0]
 8006128:	9300      	str	r3, [sp, #0]
 800612a:	0013      	movs	r3, r2
 800612c:	2200      	movs	r2, #0
 800612e:	2180      	movs	r1, #128	; 0x80
 8006130:	f000 fb9e 	bl	8006870 <UART_WaitOnFlagUntilTimeout>
 8006134:	1e03      	subs	r3, r0, #0
 8006136:	d001      	beq.n	800613c <HAL_UART_Transmit+0xcc>
      {
        return HAL_TIMEOUT;
 8006138:	2303      	movs	r3, #3
 800613a:	e03d      	b.n	80061b8 <HAL_UART_Transmit+0x148>
      }
      if (pdata8bits == NULL)
 800613c:	69fb      	ldr	r3, [r7, #28]
 800613e:	2b00      	cmp	r3, #0
 8006140:	d10b      	bne.n	800615a <HAL_UART_Transmit+0xea>
      {
        huart->Instance->TDR = (uint16_t)(*pdata16bits & 0x01FFU);
 8006142:	69bb      	ldr	r3, [r7, #24]
 8006144:	881a      	ldrh	r2, [r3, #0]
 8006146:	68fb      	ldr	r3, [r7, #12]
 8006148:	681b      	ldr	r3, [r3, #0]
 800614a:	05d2      	lsls	r2, r2, #23
 800614c:	0dd2      	lsrs	r2, r2, #23
 800614e:	b292      	uxth	r2, r2
 8006150:	851a      	strh	r2, [r3, #40]	; 0x28
        pdata16bits++;
 8006152:	69bb      	ldr	r3, [r7, #24]
 8006154:	3302      	adds	r3, #2
 8006156:	61bb      	str	r3, [r7, #24]
 8006158:	e008      	b.n	800616c <HAL_UART_Transmit+0xfc>
      }
      else
      {
        huart->Instance->TDR = (uint8_t)(*pdata8bits & 0xFFU);
 800615a:	69fb      	ldr	r3, [r7, #28]
 800615c:	781a      	ldrb	r2, [r3, #0]
 800615e:	68fb      	ldr	r3, [r7, #12]
 8006160:	681b      	ldr	r3, [r3, #0]
 8006162:	b292      	uxth	r2, r2
 8006164:	851a      	strh	r2, [r3, #40]	; 0x28
        pdata8bits++;
 8006166:	69fb      	ldr	r3, [r7, #28]
 8006168:	3301      	adds	r3, #1
 800616a:	61fb      	str	r3, [r7, #28]
      }
      huart->TxXferCount--;
 800616c:	68fb      	ldr	r3, [r7, #12]
 800616e:	2252      	movs	r2, #82	; 0x52
 8006170:	5a9b      	ldrh	r3, [r3, r2]
 8006172:	b29b      	uxth	r3, r3
 8006174:	3b01      	subs	r3, #1
 8006176:	b299      	uxth	r1, r3
 8006178:	68fb      	ldr	r3, [r7, #12]
 800617a:	2252      	movs	r2, #82	; 0x52
 800617c:	5299      	strh	r1, [r3, r2]
    while (huart->TxXferCount > 0U)
 800617e:	68fb      	ldr	r3, [r7, #12]
 8006180:	2252      	movs	r2, #82	; 0x52
 8006182:	5a9b      	ldrh	r3, [r3, r2]
 8006184:	b29b      	uxth	r3, r3
 8006186:	2b00      	cmp	r3, #0
 8006188:	d1cb      	bne.n	8006122 <HAL_UART_Transmit+0xb2>
    }

    if (UART_WaitOnFlagUntilTimeout(huart, UART_FLAG_TC, RESET, tickstart, Timeout) != HAL_OK)
 800618a:	697a      	ldr	r2, [r7, #20]
 800618c:	68f8      	ldr	r0, [r7, #12]
 800618e:	683b      	ldr	r3, [r7, #0]
 8006190:	9300      	str	r3, [sp, #0]
 8006192:	0013      	movs	r3, r2
 8006194:	2200      	movs	r2, #0
 8006196:	2140      	movs	r1, #64	; 0x40
 8006198:	f000 fb6a 	bl	8006870 <UART_WaitOnFlagUntilTimeout>
 800619c:	1e03      	subs	r3, r0, #0
 800619e:	d001      	beq.n	80061a4 <HAL_UART_Transmit+0x134>
    {
      return HAL_TIMEOUT;
 80061a0:	2303      	movs	r3, #3
 80061a2:	e009      	b.n	80061b8 <HAL_UART_Transmit+0x148>
    }

    /* At end of Tx process, restore huart->gState to Ready */
    huart->gState = HAL_UART_STATE_READY;
 80061a4:	68fb      	ldr	r3, [r7, #12]
 80061a6:	2220      	movs	r2, #32
 80061a8:	675a      	str	r2, [r3, #116]	; 0x74

    __HAL_UNLOCK(huart);
 80061aa:	68fb      	ldr	r3, [r7, #12]
 80061ac:	2270      	movs	r2, #112	; 0x70
 80061ae:	2100      	movs	r1, #0
 80061b0:	5499      	strb	r1, [r3, r2]

    return HAL_OK;
 80061b2:	2300      	movs	r3, #0
 80061b4:	e000      	b.n	80061b8 <HAL_UART_Transmit+0x148>
  }
  else
  {
    return HAL_BUSY;
 80061b6:	2302      	movs	r3, #2
  }
}
 80061b8:	0018      	movs	r0, r3
 80061ba:	46bd      	mov	sp, r7
 80061bc:	b008      	add	sp, #32
 80061be:	bd80      	pop	{r7, pc}

080061c0 <HAL_UART_Receive>:
  * @param Size    Amount of data elements (u8 or u16) to be received.
  * @param Timeout Timeout duration.
  * @retval HAL status
  */
HAL_StatusTypeDef HAL_UART_Receive(UART_HandleTypeDef *huart, uint8_t *pData, uint16_t Size, uint32_t Timeout)
{
 80061c0:	b580      	push	{r7, lr}
 80061c2:	b08a      	sub	sp, #40	; 0x28
 80061c4:	af02      	add	r7, sp, #8
 80061c6:	60f8      	str	r0, [r7, #12]
 80061c8:	60b9      	str	r1, [r7, #8]
 80061ca:	603b      	str	r3, [r7, #0]
 80061cc:	1dbb      	adds	r3, r7, #6
 80061ce:	801a      	strh	r2, [r3, #0]
  uint16_t *pdata16bits;
  uint16_t uhMask;
  uint32_t tickstart;

  /* Check that a Rx process is not already ongoing */
  if (huart->RxState == HAL_UART_STATE_READY)
 80061d0:	68fb      	ldr	r3, [r7, #12]
 80061d2:	6f9b      	ldr	r3, [r3, #120]	; 0x78
 80061d4:	2b20      	cmp	r3, #32
 80061d6:	d000      	beq.n	80061da <HAL_UART_Receive+0x1a>
 80061d8:	e0c2      	b.n	8006360 <HAL_UART_Receive+0x1a0>
  {
    if ((pData == NULL) || (Size == 0U))
 80061da:	68bb      	ldr	r3, [r7, #8]
 80061dc:	2b00      	cmp	r3, #0
 80061de:	d003      	beq.n	80061e8 <HAL_UART_Receive+0x28>
 80061e0:	1dbb      	adds	r3, r7, #6
 80061e2:	881b      	ldrh	r3, [r3, #0]
 80061e4:	2b00      	cmp	r3, #0
 80061e6:	d101      	bne.n	80061ec <HAL_UART_Receive+0x2c>
    {
      return  HAL_ERROR;
 80061e8:	2301      	movs	r3, #1
 80061ea:	e0ba      	b.n	8006362 <HAL_UART_Receive+0x1a2>
    }

    /* In case of 9bits/No Parity transfer, pData buffer provided as input parameter
       should be aligned on a u16 frontier, as data to be received from RDR will be
       handled through a u16 cast. */
    if ((huart->Init.WordLength == UART_WORDLENGTH_9B) && (huart->Init.Parity == UART_PARITY_NONE))
 80061ec:	68fb      	ldr	r3, [r7, #12]
 80061ee:	689a      	ldr	r2, [r3, #8]
 80061f0:	2380      	movs	r3, #128	; 0x80
 80061f2:	015b      	lsls	r3, r3, #5
 80061f4:	429a      	cmp	r2, r3
 80061f6:	d109      	bne.n	800620c <HAL_UART_Receive+0x4c>
 80061f8:	68fb      	ldr	r3, [r7, #12]
 80061fa:	691b      	ldr	r3, [r3, #16]
 80061fc:	2b00      	cmp	r3, #0
 80061fe:	d105      	bne.n	800620c <HAL_UART_Receive+0x4c>
    {
      if ((((uint32_t)pData) & 1U) != 0U)
 8006200:	68bb      	ldr	r3, [r7, #8]
 8006202:	2201      	movs	r2, #1
 8006204:	4013      	ands	r3, r2
 8006206:	d001      	beq.n	800620c <HAL_UART_Receive+0x4c>
      {
        return  HAL_ERROR;
 8006208:	2301      	movs	r3, #1
 800620a:	e0aa      	b.n	8006362 <HAL_UART_Receive+0x1a2>
      }
    }

    __HAL_LOCK(huart);
 800620c:	68fb      	ldr	r3, [r7, #12]
 800620e:	2270      	movs	r2, #112	; 0x70
 8006210:	5c9b      	ldrb	r3, [r3, r2]
 8006212:	2b01      	cmp	r3, #1
 8006214:	d101      	bne.n	800621a <HAL_UART_Receive+0x5a>
 8006216:	2302      	movs	r3, #2
 8006218:	e0a3      	b.n	8006362 <HAL_UART_Receive+0x1a2>
 800621a:	68fb      	ldr	r3, [r7, #12]
 800621c:	2270      	movs	r2, #112	; 0x70
 800621e:	2101      	movs	r1, #1
 8006220:	5499      	strb	r1, [r3, r2]

    huart->ErrorCode = HAL_UART_ERROR_NONE;
 8006222:	68fb      	ldr	r3, [r7, #12]
 8006224:	2200      	movs	r2, #0
 8006226:	67da      	str	r2, [r3, #124]	; 0x7c
    huart->RxState = HAL_UART_STATE_BUSY_RX;
 8006228:	68fb      	ldr	r3, [r7, #12]
 800622a:	2222      	movs	r2, #34	; 0x22
 800622c:	679a      	str	r2, [r3, #120]	; 0x78

    /* Init tickstart for timeout managment*/
    tickstart = HAL_GetTick();
 800622e:	f7fd faa1 	bl	8003774 <HAL_GetTick>
 8006232:	0003      	movs	r3, r0
 8006234:	617b      	str	r3, [r7, #20]

    huart->RxXferSize  = Size;
 8006236:	68fb      	ldr	r3, [r7, #12]
 8006238:	1dba      	adds	r2, r7, #6
 800623a:	2158      	movs	r1, #88	; 0x58
 800623c:	8812      	ldrh	r2, [r2, #0]
 800623e:	525a      	strh	r2, [r3, r1]
    huart->RxXferCount = Size;
 8006240:	68fb      	ldr	r3, [r7, #12]
 8006242:	1dba      	adds	r2, r7, #6
 8006244:	215a      	movs	r1, #90	; 0x5a
 8006246:	8812      	ldrh	r2, [r2, #0]
 8006248:	525a      	strh	r2, [r3, r1]

    /* Computation of UART mask to apply to RDR register */
    UART_MASK_COMPUTATION(huart);
 800624a:	68fb      	ldr	r3, [r7, #12]
 800624c:	689a      	ldr	r2, [r3, #8]
 800624e:	2380      	movs	r3, #128	; 0x80
 8006250:	015b      	lsls	r3, r3, #5
 8006252:	429a      	cmp	r2, r3
 8006254:	d10d      	bne.n	8006272 <HAL_UART_Receive+0xb2>
 8006256:	68fb      	ldr	r3, [r7, #12]
 8006258:	691b      	ldr	r3, [r3, #16]
 800625a:	2b00      	cmp	r3, #0
 800625c:	d104      	bne.n	8006268 <HAL_UART_Receive+0xa8>
 800625e:	68fb      	ldr	r3, [r7, #12]
 8006260:	225c      	movs	r2, #92	; 0x5c
 8006262:	4942      	ldr	r1, [pc, #264]	; (800636c <HAL_UART_Receive+0x1ac>)
 8006264:	5299      	strh	r1, [r3, r2]
 8006266:	e01a      	b.n	800629e <HAL_UART_Receive+0xde>
 8006268:	68fb      	ldr	r3, [r7, #12]
 800626a:	225c      	movs	r2, #92	; 0x5c
 800626c:	21ff      	movs	r1, #255	; 0xff
 800626e:	5299      	strh	r1, [r3, r2]
 8006270:	e015      	b.n	800629e <HAL_UART_Receive+0xde>
 8006272:	68fb      	ldr	r3, [r7, #12]
 8006274:	689b      	ldr	r3, [r3, #8]
 8006276:	2b00      	cmp	r3, #0
 8006278:	d10d      	bne.n	8006296 <HAL_UART_Receive+0xd6>
 800627a:	68fb      	ldr	r3, [r7, #12]
 800627c:	691b      	ldr	r3, [r3, #16]
 800627e:	2b00      	cmp	r3, #0
 8006280:	d104      	bne.n	800628c <HAL_UART_Receive+0xcc>
 8006282:	68fb      	ldr	r3, [r7, #12]
 8006284:	225c      	movs	r2, #92	; 0x5c
 8006286:	21ff      	movs	r1, #255	; 0xff
 8006288:	5299      	strh	r1, [r3, r2]
 800628a:	e008      	b.n	800629e <HAL_UART_Receive+0xde>
 800628c:	68fb      	ldr	r3, [r7, #12]
 800628e:	225c      	movs	r2, #92	; 0x5c
 8006290:	217f      	movs	r1, #127	; 0x7f
 8006292:	5299      	strh	r1, [r3, r2]
 8006294:	e003      	b.n	800629e <HAL_UART_Receive+0xde>
 8006296:	68fb      	ldr	r3, [r7, #12]
 8006298:	225c      	movs	r2, #92	; 0x5c
 800629a:	2100      	movs	r1, #0
 800629c:	5299      	strh	r1, [r3, r2]
    uhMask = huart->Mask;
 800629e:	2312      	movs	r3, #18
 80062a0:	18fb      	adds	r3, r7, r3
 80062a2:	68fa      	ldr	r2, [r7, #12]
 80062a4:	215c      	movs	r1, #92	; 0x5c
 80062a6:	5a52      	ldrh	r2, [r2, r1]
 80062a8:	801a      	strh	r2, [r3, #0]

    /* In case of 9bits/No Parity transfer, pRxData needs to be handled as a uint16_t pointer */
    if ((huart->Init.WordLength == UART_WORDLENGTH_9B) && (huart->Init.Parity == UART_PARITY_NONE))
 80062aa:	68fb      	ldr	r3, [r7, #12]
 80062ac:	689a      	ldr	r2, [r3, #8]
 80062ae:	2380      	movs	r3, #128	; 0x80
 80062b0:	015b      	lsls	r3, r3, #5
 80062b2:	429a      	cmp	r2, r3
 80062b4:	d108      	bne.n	80062c8 <HAL_UART_Receive+0x108>
 80062b6:	68fb      	ldr	r3, [r7, #12]
 80062b8:	691b      	ldr	r3, [r3, #16]
 80062ba:	2b00      	cmp	r3, #0
 80062bc:	d104      	bne.n	80062c8 <HAL_UART_Receive+0x108>
    {
      pdata8bits  = NULL;
 80062be:	2300      	movs	r3, #0
 80062c0:	61fb      	str	r3, [r7, #28]
      pdata16bits = (uint16_t *) pData;
 80062c2:	68bb      	ldr	r3, [r7, #8]
 80062c4:	61bb      	str	r3, [r7, #24]
 80062c6:	e003      	b.n	80062d0 <HAL_UART_Receive+0x110>
    }
    else
    {
      pdata8bits  = pData;
 80062c8:	68bb      	ldr	r3, [r7, #8]
 80062ca:	61fb      	str	r3, [r7, #28]
      pdata16bits = NULL;
 80062cc:	2300      	movs	r3, #0
 80062ce:	61bb      	str	r3, [r7, #24]
    }

    /* as long as data have to be received */
    while (huart->RxXferCount > 0U)
 80062d0:	e037      	b.n	8006342 <HAL_UART_Receive+0x182>
    {
      if (UART_WaitOnFlagUntilTimeout(huart, UART_FLAG_RXNE, RESET, tickstart, Timeout) != HAL_OK)
 80062d2:	697a      	ldr	r2, [r7, #20]
 80062d4:	68f8      	ldr	r0, [r7, #12]
 80062d6:	683b      	ldr	r3, [r7, #0]
 80062d8:	9300      	str	r3, [sp, #0]
 80062da:	0013      	movs	r3, r2
 80062dc:	2200      	movs	r2, #0
 80062de:	2120      	movs	r1, #32
 80062e0:	f000 fac6 	bl	8006870 <UART_WaitOnFlagUntilTimeout>
 80062e4:	1e03      	subs	r3, r0, #0
 80062e6:	d001      	beq.n	80062ec <HAL_UART_Receive+0x12c>
      {
        return HAL_TIMEOUT;
 80062e8:	2303      	movs	r3, #3
 80062ea:	e03a      	b.n	8006362 <HAL_UART_Receive+0x1a2>
      }
      if (pdata8bits == NULL)
 80062ec:	69fb      	ldr	r3, [r7, #28]
 80062ee:	2b00      	cmp	r3, #0
 80062f0:	d10e      	bne.n	8006310 <HAL_UART_Receive+0x150>
      {
        *pdata16bits = (uint16_t)(huart->Instance->RDR & uhMask);
 80062f2:	68fb      	ldr	r3, [r7, #12]
 80062f4:	681b      	ldr	r3, [r3, #0]
 80062f6:	8c9b      	ldrh	r3, [r3, #36]	; 0x24
 80062f8:	b29b      	uxth	r3, r3
 80062fa:	2212      	movs	r2, #18
 80062fc:	18ba      	adds	r2, r7, r2
 80062fe:	8812      	ldrh	r2, [r2, #0]
 8006300:	4013      	ands	r3, r2
 8006302:	b29a      	uxth	r2, r3
 8006304:	69bb      	ldr	r3, [r7, #24]
 8006306:	801a      	strh	r2, [r3, #0]
        pdata16bits++;
 8006308:	69bb      	ldr	r3, [r7, #24]
 800630a:	3302      	adds	r3, #2
 800630c:	61bb      	str	r3, [r7, #24]
 800630e:	e00f      	b.n	8006330 <HAL_UART_Receive+0x170>
      }
      else
      {
        *pdata8bits = (uint8_t)(huart->Instance->RDR & (uint8_t)uhMask);
 8006310:	68fb      	ldr	r3, [r7, #12]
 8006312:	681b      	ldr	r3, [r3, #0]
 8006314:	8c9b      	ldrh	r3, [r3, #36]	; 0x24
 8006316:	b29b      	uxth	r3, r3
 8006318:	b2db      	uxtb	r3, r3
 800631a:	2212      	movs	r2, #18
 800631c:	18ba      	adds	r2, r7, r2
 800631e:	8812      	ldrh	r2, [r2, #0]
 8006320:	b2d2      	uxtb	r2, r2
 8006322:	4013      	ands	r3, r2
 8006324:	b2da      	uxtb	r2, r3
 8006326:	69fb      	ldr	r3, [r7, #28]
 8006328:	701a      	strb	r2, [r3, #0]
        pdata8bits++;
 800632a:	69fb      	ldr	r3, [r7, #28]
 800632c:	3301      	adds	r3, #1
 800632e:	61fb      	str	r3, [r7, #28]
      }
      huart->RxXferCount--;
 8006330:	68fb      	ldr	r3, [r7, #12]
 8006332:	225a      	movs	r2, #90	; 0x5a
 8006334:	5a9b      	ldrh	r3, [r3, r2]
 8006336:	b29b      	uxth	r3, r3
 8006338:	3b01      	subs	r3, #1
 800633a:	b299      	uxth	r1, r3
 800633c:	68fb      	ldr	r3, [r7, #12]
 800633e:	225a      	movs	r2, #90	; 0x5a
 8006340:	5299      	strh	r1, [r3, r2]
    while (huart->RxXferCount > 0U)
 8006342:	68fb      	ldr	r3, [r7, #12]
 8006344:	225a      	movs	r2, #90	; 0x5a
 8006346:	5a9b      	ldrh	r3, [r3, r2]
 8006348:	b29b      	uxth	r3, r3
 800634a:	2b00      	cmp	r3, #0
 800634c:	d1c1      	bne.n	80062d2 <HAL_UART_Receive+0x112>
    }

    /* At end of Rx process, restore huart->RxState to Ready */
    huart->RxState = HAL_UART_STATE_READY;
 800634e:	68fb      	ldr	r3, [r7, #12]
 8006350:	2220      	movs	r2, #32
 8006352:	679a      	str	r2, [r3, #120]	; 0x78

    __HAL_UNLOCK(huart);
 8006354:	68fb      	ldr	r3, [r7, #12]
 8006356:	2270      	movs	r2, #112	; 0x70
 8006358:	2100      	movs	r1, #0
 800635a:	5499      	strb	r1, [r3, r2]

    return HAL_OK;
 800635c:	2300      	movs	r3, #0
 800635e:	e000      	b.n	8006362 <HAL_UART_Receive+0x1a2>
  }
  else
  {
    return HAL_BUSY;
 8006360:	2302      	movs	r3, #2
  }
}
 8006362:	0018      	movs	r0, r3
 8006364:	46bd      	mov	sp, r7
 8006366:	b008      	add	sp, #32
 8006368:	bd80      	pop	{r7, pc}
 800636a:	46c0      	nop			; (mov r8, r8)
 800636c:	000001ff 	.word	0x000001ff

08006370 <UART_SetConfig>:
  * @brief Configure the UART peripheral.
  * @param huart UART handle.
  * @retval HAL status
  */
HAL_StatusTypeDef UART_SetConfig(UART_HandleTypeDef *huart)
{
 8006370:	b580      	push	{r7, lr}
 8006372:	b088      	sub	sp, #32
 8006374:	af00      	add	r7, sp, #0
 8006376:	6078      	str	r0, [r7, #4]
  uint32_t tmpreg;
  uint16_t brrtemp;
  UART_ClockSourceTypeDef clocksource;
  uint32_t usartdiv                   = 0x00000000U;
 8006378:	2300      	movs	r3, #0
 800637a:	61bb      	str	r3, [r7, #24]
  HAL_StatusTypeDef ret               = HAL_OK;
 800637c:	2317      	movs	r3, #23
 800637e:	18fb      	adds	r3, r7, r3
 8006380:	2200      	movs	r2, #0
 8006382:	701a      	strb	r2, [r3, #0]
  *  the UART Word Length, Parity, Mode and oversampling:
  *  set the M bits according to huart->Init.WordLength value
  *  set PCE and PS bits according to huart->Init.Parity value
  *  set TE and RE bits according to huart->Init.Mode value
  *  set OVER8 bit according to huart->Init.OverSampling value */
  tmpreg = (uint32_t)huart->Init.WordLength | huart->Init.Parity | huart->Init.Mode | huart->Init.OverSampling ;
 8006384:	687b      	ldr	r3, [r7, #4]
 8006386:	689a      	ldr	r2, [r3, #8]
 8006388:	687b      	ldr	r3, [r7, #4]
 800638a:	691b      	ldr	r3, [r3, #16]
 800638c:	431a      	orrs	r2, r3
 800638e:	687b      	ldr	r3, [r7, #4]
 8006390:	695b      	ldr	r3, [r3, #20]
 8006392:	431a      	orrs	r2, r3
 8006394:	687b      	ldr	r3, [r7, #4]
 8006396:	69db      	ldr	r3, [r3, #28]
 8006398:	4313      	orrs	r3, r2
 800639a:	613b      	str	r3, [r7, #16]
  MODIFY_REG(huart->Instance->CR1, USART_CR1_FIELDS, tmpreg);
 800639c:	687b      	ldr	r3, [r7, #4]
 800639e:	681b      	ldr	r3, [r3, #0]
 80063a0:	681b      	ldr	r3, [r3, #0]
 80063a2:	4aad      	ldr	r2, [pc, #692]	; (8006658 <UART_SetConfig+0x2e8>)
 80063a4:	4013      	ands	r3, r2
 80063a6:	0019      	movs	r1, r3
 80063a8:	687b      	ldr	r3, [r7, #4]
 80063aa:	681b      	ldr	r3, [r3, #0]
 80063ac:	693a      	ldr	r2, [r7, #16]
 80063ae:	430a      	orrs	r2, r1
 80063b0:	601a      	str	r2, [r3, #0]

  /*-------------------------- USART CR2 Configuration -----------------------*/
  /* Configure the UART Stop Bits: Set STOP[13:12] bits according
  * to huart->Init.StopBits value */
  MODIFY_REG(huart->Instance->CR2, USART_CR2_STOP, huart->Init.StopBits);
 80063b2:	687b      	ldr	r3, [r7, #4]
 80063b4:	681b      	ldr	r3, [r3, #0]
 80063b6:	685b      	ldr	r3, [r3, #4]
 80063b8:	4aa8      	ldr	r2, [pc, #672]	; (800665c <UART_SetConfig+0x2ec>)
 80063ba:	4013      	ands	r3, r2
 80063bc:	0019      	movs	r1, r3
 80063be:	687b      	ldr	r3, [r7, #4]
 80063c0:	68da      	ldr	r2, [r3, #12]
 80063c2:	687b      	ldr	r3, [r7, #4]
 80063c4:	681b      	ldr	r3, [r3, #0]
 80063c6:	430a      	orrs	r2, r1
 80063c8:	605a      	str	r2, [r3, #4]
  /* Configure
  * - UART HardWare Flow Control: set CTSE and RTSE bits according
  *   to huart->Init.HwFlowCtl value
  * - one-bit sampling method versus three samples' majority rule according
  *   to huart->Init.OneBitSampling (not applicable to LPUART) */
  tmpreg = (uint32_t)huart->Init.HwFlowCtl;
 80063ca:	687b      	ldr	r3, [r7, #4]
 80063cc:	699b      	ldr	r3, [r3, #24]
 80063ce:	613b      	str	r3, [r7, #16]

  tmpreg |= huart->Init.OneBitSampling;
 80063d0:	687b      	ldr	r3, [r7, #4]
 80063d2:	6a1b      	ldr	r3, [r3, #32]
 80063d4:	693a      	ldr	r2, [r7, #16]
 80063d6:	4313      	orrs	r3, r2
 80063d8:	613b      	str	r3, [r7, #16]
  MODIFY_REG(huart->Instance->CR3, USART_CR3_FIELDS, tmpreg);
 80063da:	687b      	ldr	r3, [r7, #4]
 80063dc:	681b      	ldr	r3, [r3, #0]
 80063de:	689b      	ldr	r3, [r3, #8]
 80063e0:	4a9f      	ldr	r2, [pc, #636]	; (8006660 <UART_SetConfig+0x2f0>)
 80063e2:	4013      	ands	r3, r2
 80063e4:	0019      	movs	r1, r3
 80063e6:	687b      	ldr	r3, [r7, #4]
 80063e8:	681b      	ldr	r3, [r3, #0]
 80063ea:	693a      	ldr	r2, [r7, #16]
 80063ec:	430a      	orrs	r2, r1
 80063ee:	609a      	str	r2, [r3, #8]


  /*-------------------------- USART BRR Configuration -----------------------*/
  UART_GETCLOCKSOURCE(huart, clocksource);
 80063f0:	687b      	ldr	r3, [r7, #4]
 80063f2:	681b      	ldr	r3, [r3, #0]
 80063f4:	4a9b      	ldr	r2, [pc, #620]	; (8006664 <UART_SetConfig+0x2f4>)
 80063f6:	4293      	cmp	r3, r2
 80063f8:	d125      	bne.n	8006446 <UART_SetConfig+0xd6>
 80063fa:	4b9b      	ldr	r3, [pc, #620]	; (8006668 <UART_SetConfig+0x2f8>)
 80063fc:	6b1b      	ldr	r3, [r3, #48]	; 0x30
 80063fe:	2203      	movs	r2, #3
 8006400:	4013      	ands	r3, r2
 8006402:	2b01      	cmp	r3, #1
 8006404:	d00f      	beq.n	8006426 <UART_SetConfig+0xb6>
 8006406:	d304      	bcc.n	8006412 <UART_SetConfig+0xa2>
 8006408:	2b02      	cmp	r3, #2
 800640a:	d011      	beq.n	8006430 <UART_SetConfig+0xc0>
 800640c:	2b03      	cmp	r3, #3
 800640e:	d005      	beq.n	800641c <UART_SetConfig+0xac>
 8006410:	e013      	b.n	800643a <UART_SetConfig+0xca>
 8006412:	231f      	movs	r3, #31
 8006414:	18fb      	adds	r3, r7, r3
 8006416:	2200      	movs	r2, #0
 8006418:	701a      	strb	r2, [r3, #0]
 800641a:	e022      	b.n	8006462 <UART_SetConfig+0xf2>
 800641c:	231f      	movs	r3, #31
 800641e:	18fb      	adds	r3, r7, r3
 8006420:	2202      	movs	r2, #2
 8006422:	701a      	strb	r2, [r3, #0]
 8006424:	e01d      	b.n	8006462 <UART_SetConfig+0xf2>
 8006426:	231f      	movs	r3, #31
 8006428:	18fb      	adds	r3, r7, r3
 800642a:	2204      	movs	r2, #4
 800642c:	701a      	strb	r2, [r3, #0]
 800642e:	e018      	b.n	8006462 <UART_SetConfig+0xf2>
 8006430:	231f      	movs	r3, #31
 8006432:	18fb      	adds	r3, r7, r3
 8006434:	2208      	movs	r2, #8
 8006436:	701a      	strb	r2, [r3, #0]
 8006438:	e013      	b.n	8006462 <UART_SetConfig+0xf2>
 800643a:	231f      	movs	r3, #31
 800643c:	18fb      	adds	r3, r7, r3
 800643e:	2210      	movs	r2, #16
 8006440:	701a      	strb	r2, [r3, #0]
 8006442:	46c0      	nop			; (mov r8, r8)
 8006444:	e00d      	b.n	8006462 <UART_SetConfig+0xf2>
 8006446:	687b      	ldr	r3, [r7, #4]
 8006448:	681b      	ldr	r3, [r3, #0]
 800644a:	4a88      	ldr	r2, [pc, #544]	; (800666c <UART_SetConfig+0x2fc>)
 800644c:	4293      	cmp	r3, r2
 800644e:	d104      	bne.n	800645a <UART_SetConfig+0xea>
 8006450:	231f      	movs	r3, #31
 8006452:	18fb      	adds	r3, r7, r3
 8006454:	2200      	movs	r2, #0
 8006456:	701a      	strb	r2, [r3, #0]
 8006458:	e003      	b.n	8006462 <UART_SetConfig+0xf2>
 800645a:	231f      	movs	r3, #31
 800645c:	18fb      	adds	r3, r7, r3
 800645e:	2210      	movs	r2, #16
 8006460:	701a      	strb	r2, [r3, #0]

  if (huart->Init.OverSampling == UART_OVERSAMPLING_8)
 8006462:	687b      	ldr	r3, [r7, #4]
 8006464:	69da      	ldr	r2, [r3, #28]
 8006466:	2380      	movs	r3, #128	; 0x80
 8006468:	021b      	lsls	r3, r3, #8
 800646a:	429a      	cmp	r2, r3
 800646c:	d000      	beq.n	8006470 <UART_SetConfig+0x100>
 800646e:	e07d      	b.n	800656c <UART_SetConfig+0x1fc>
  {
    switch (clocksource)
 8006470:	231f      	movs	r3, #31
 8006472:	18fb      	adds	r3, r7, r3
 8006474:	781b      	ldrb	r3, [r3, #0]
 8006476:	2b02      	cmp	r3, #2
 8006478:	d01c      	beq.n	80064b4 <UART_SetConfig+0x144>
 800647a:	dc02      	bgt.n	8006482 <UART_SetConfig+0x112>
 800647c:	2b00      	cmp	r3, #0
 800647e:	d005      	beq.n	800648c <UART_SetConfig+0x11c>
 8006480:	e04b      	b.n	800651a <UART_SetConfig+0x1aa>
 8006482:	2b04      	cmp	r3, #4
 8006484:	d025      	beq.n	80064d2 <UART_SetConfig+0x162>
 8006486:	2b08      	cmp	r3, #8
 8006488:	d037      	beq.n	80064fa <UART_SetConfig+0x18a>
 800648a:	e046      	b.n	800651a <UART_SetConfig+0x1aa>
    {
      case UART_CLOCKSOURCE_PCLK1:
        pclk = HAL_RCC_GetPCLK1Freq();
 800648c:	f7fe f8e6 	bl	800465c <HAL_RCC_GetPCLK1Freq>
 8006490:	0003      	movs	r3, r0
 8006492:	60fb      	str	r3, [r7, #12]
        usartdiv = (uint16_t)(UART_DIV_SAMPLING8(pclk, huart->Init.BaudRate));
 8006494:	68fb      	ldr	r3, [r7, #12]
 8006496:	005a      	lsls	r2, r3, #1
 8006498:	687b      	ldr	r3, [r7, #4]
 800649a:	685b      	ldr	r3, [r3, #4]
 800649c:	085b      	lsrs	r3, r3, #1
 800649e:	18d2      	adds	r2, r2, r3
 80064a0:	687b      	ldr	r3, [r7, #4]
 80064a2:	685b      	ldr	r3, [r3, #4]
 80064a4:	0019      	movs	r1, r3
 80064a6:	0010      	movs	r0, r2
 80064a8:	f7f9 fe2e 	bl	8000108 <__udivsi3>
 80064ac:	0003      	movs	r3, r0
 80064ae:	b29b      	uxth	r3, r3
 80064b0:	61bb      	str	r3, [r7, #24]
        break;
 80064b2:	e037      	b.n	8006524 <UART_SetConfig+0x1b4>
      case UART_CLOCKSOURCE_HSI:
        usartdiv = (uint16_t)(UART_DIV_SAMPLING8(HSI_VALUE, huart->Init.BaudRate));
 80064b4:	687b      	ldr	r3, [r7, #4]
 80064b6:	685b      	ldr	r3, [r3, #4]
 80064b8:	085b      	lsrs	r3, r3, #1
 80064ba:	4a6d      	ldr	r2, [pc, #436]	; (8006670 <UART_SetConfig+0x300>)
 80064bc:	189a      	adds	r2, r3, r2
 80064be:	687b      	ldr	r3, [r7, #4]
 80064c0:	685b      	ldr	r3, [r3, #4]
 80064c2:	0019      	movs	r1, r3
 80064c4:	0010      	movs	r0, r2
 80064c6:	f7f9 fe1f 	bl	8000108 <__udivsi3>
 80064ca:	0003      	movs	r3, r0
 80064cc:	b29b      	uxth	r3, r3
 80064ce:	61bb      	str	r3, [r7, #24]
        break;
 80064d0:	e028      	b.n	8006524 <UART_SetConfig+0x1b4>
      case UART_CLOCKSOURCE_SYSCLK:
        pclk = HAL_RCC_GetSysClockFreq();
 80064d2:	f7fe f855 	bl	8004580 <HAL_RCC_GetSysClockFreq>
 80064d6:	0003      	movs	r3, r0
 80064d8:	60fb      	str	r3, [r7, #12]
        usartdiv = (uint16_t)(UART_DIV_SAMPLING8(pclk, huart->Init.BaudRate));
 80064da:	68fb      	ldr	r3, [r7, #12]
 80064dc:	005a      	lsls	r2, r3, #1
 80064de:	687b      	ldr	r3, [r7, #4]
 80064e0:	685b      	ldr	r3, [r3, #4]
 80064e2:	085b      	lsrs	r3, r3, #1
 80064e4:	18d2      	adds	r2, r2, r3
 80064e6:	687b      	ldr	r3, [r7, #4]
 80064e8:	685b      	ldr	r3, [r3, #4]
 80064ea:	0019      	movs	r1, r3
 80064ec:	0010      	movs	r0, r2
 80064ee:	f7f9 fe0b 	bl	8000108 <__udivsi3>
 80064f2:	0003      	movs	r3, r0
 80064f4:	b29b      	uxth	r3, r3
 80064f6:	61bb      	str	r3, [r7, #24]
        break;
 80064f8:	e014      	b.n	8006524 <UART_SetConfig+0x1b4>
      case UART_CLOCKSOURCE_LSE:
        usartdiv = (uint16_t)(UART_DIV_SAMPLING8(LSE_VALUE, huart->Init.BaudRate));
 80064fa:	687b      	ldr	r3, [r7, #4]
 80064fc:	685b      	ldr	r3, [r3, #4]
 80064fe:	085b      	lsrs	r3, r3, #1
 8006500:	2280      	movs	r2, #128	; 0x80
 8006502:	0252      	lsls	r2, r2, #9
 8006504:	189a      	adds	r2, r3, r2
 8006506:	687b      	ldr	r3, [r7, #4]
 8006508:	685b      	ldr	r3, [r3, #4]
 800650a:	0019      	movs	r1, r3
 800650c:	0010      	movs	r0, r2
 800650e:	f7f9 fdfb 	bl	8000108 <__udivsi3>
 8006512:	0003      	movs	r3, r0
 8006514:	b29b      	uxth	r3, r3
 8006516:	61bb      	str	r3, [r7, #24]
        break;
 8006518:	e004      	b.n	8006524 <UART_SetConfig+0x1b4>
      default:
        ret = HAL_ERROR;
 800651a:	2317      	movs	r3, #23
 800651c:	18fb      	adds	r3, r7, r3
 800651e:	2201      	movs	r2, #1
 8006520:	701a      	strb	r2, [r3, #0]
        break;
 8006522:	46c0      	nop			; (mov r8, r8)
    }

    /* USARTDIV must be greater than or equal to 0d16 */
    if ((usartdiv >= UART_BRR_MIN) && (usartdiv <= UART_BRR_MAX))
 8006524:	69bb      	ldr	r3, [r7, #24]
 8006526:	2b0f      	cmp	r3, #15
 8006528:	d91b      	bls.n	8006562 <UART_SetConfig+0x1f2>
 800652a:	69bb      	ldr	r3, [r7, #24]
 800652c:	4a51      	ldr	r2, [pc, #324]	; (8006674 <UART_SetConfig+0x304>)
 800652e:	4293      	cmp	r3, r2
 8006530:	d817      	bhi.n	8006562 <UART_SetConfig+0x1f2>
    {
      brrtemp = (uint16_t)(usartdiv & 0xFFF0U);
 8006532:	69bb      	ldr	r3, [r7, #24]
 8006534:	b29a      	uxth	r2, r3
 8006536:	200a      	movs	r0, #10
 8006538:	183b      	adds	r3, r7, r0
 800653a:	210f      	movs	r1, #15
 800653c:	438a      	bics	r2, r1
 800653e:	801a      	strh	r2, [r3, #0]
      brrtemp |= (uint16_t)((usartdiv & (uint16_t)0x000FU) >> 1U);
 8006540:	69bb      	ldr	r3, [r7, #24]
 8006542:	085b      	lsrs	r3, r3, #1
 8006544:	b29b      	uxth	r3, r3
 8006546:	2207      	movs	r2, #7
 8006548:	4013      	ands	r3, r2
 800654a:	b299      	uxth	r1, r3
 800654c:	183b      	adds	r3, r7, r0
 800654e:	183a      	adds	r2, r7, r0
 8006550:	8812      	ldrh	r2, [r2, #0]
 8006552:	430a      	orrs	r2, r1
 8006554:	801a      	strh	r2, [r3, #0]
      huart->Instance->BRR = brrtemp;
 8006556:	687b      	ldr	r3, [r7, #4]
 8006558:	681b      	ldr	r3, [r3, #0]
 800655a:	183a      	adds	r2, r7, r0
 800655c:	8812      	ldrh	r2, [r2, #0]
 800655e:	60da      	str	r2, [r3, #12]
 8006560:	e06c      	b.n	800663c <UART_SetConfig+0x2cc>
    }
    else
    {
      ret = HAL_ERROR;
 8006562:	2317      	movs	r3, #23
 8006564:	18fb      	adds	r3, r7, r3
 8006566:	2201      	movs	r2, #1
 8006568:	701a      	strb	r2, [r3, #0]
 800656a:	e067      	b.n	800663c <UART_SetConfig+0x2cc>
    }
  }
  else
  {
    switch (clocksource)
 800656c:	231f      	movs	r3, #31
 800656e:	18fb      	adds	r3, r7, r3
 8006570:	781b      	ldrb	r3, [r3, #0]
 8006572:	2b02      	cmp	r3, #2
 8006574:	d01b      	beq.n	80065ae <UART_SetConfig+0x23e>
 8006576:	dc02      	bgt.n	800657e <UART_SetConfig+0x20e>
 8006578:	2b00      	cmp	r3, #0
 800657a:	d005      	beq.n	8006588 <UART_SetConfig+0x218>
 800657c:	e049      	b.n	8006612 <UART_SetConfig+0x2a2>
 800657e:	2b04      	cmp	r3, #4
 8006580:	d024      	beq.n	80065cc <UART_SetConfig+0x25c>
 8006582:	2b08      	cmp	r3, #8
 8006584:	d035      	beq.n	80065f2 <UART_SetConfig+0x282>
 8006586:	e044      	b.n	8006612 <UART_SetConfig+0x2a2>
    {
      case UART_CLOCKSOURCE_PCLK1:
        pclk = HAL_RCC_GetPCLK1Freq();
 8006588:	f7fe f868 	bl	800465c <HAL_RCC_GetPCLK1Freq>
 800658c:	0003      	movs	r3, r0
 800658e:	60fb      	str	r3, [r7, #12]
        usartdiv = (uint16_t)(UART_DIV_SAMPLING16(pclk, huart->Init.BaudRate));
 8006590:	687b      	ldr	r3, [r7, #4]
 8006592:	685b      	ldr	r3, [r3, #4]
 8006594:	085a      	lsrs	r2, r3, #1
 8006596:	68fb      	ldr	r3, [r7, #12]
 8006598:	18d2      	adds	r2, r2, r3
 800659a:	687b      	ldr	r3, [r7, #4]
 800659c:	685b      	ldr	r3, [r3, #4]
 800659e:	0019      	movs	r1, r3
 80065a0:	0010      	movs	r0, r2
 80065a2:	f7f9 fdb1 	bl	8000108 <__udivsi3>
 80065a6:	0003      	movs	r3, r0
 80065a8:	b29b      	uxth	r3, r3
 80065aa:	61bb      	str	r3, [r7, #24]
        break;
 80065ac:	e036      	b.n	800661c <UART_SetConfig+0x2ac>
      case UART_CLOCKSOURCE_HSI:
        usartdiv = (uint16_t)(UART_DIV_SAMPLING16(HSI_VALUE, huart->Init.BaudRate));
 80065ae:	687b      	ldr	r3, [r7, #4]
 80065b0:	685b      	ldr	r3, [r3, #4]
 80065b2:	085b      	lsrs	r3, r3, #1
 80065b4:	4a30      	ldr	r2, [pc, #192]	; (8006678 <UART_SetConfig+0x308>)
 80065b6:	189a      	adds	r2, r3, r2
 80065b8:	687b      	ldr	r3, [r7, #4]
 80065ba:	685b      	ldr	r3, [r3, #4]
 80065bc:	0019      	movs	r1, r3
 80065be:	0010      	movs	r0, r2
 80065c0:	f7f9 fda2 	bl	8000108 <__udivsi3>
 80065c4:	0003      	movs	r3, r0
 80065c6:	b29b      	uxth	r3, r3
 80065c8:	61bb      	str	r3, [r7, #24]
        break;
 80065ca:	e027      	b.n	800661c <UART_SetConfig+0x2ac>
      case UART_CLOCKSOURCE_SYSCLK:
        pclk = HAL_RCC_GetSysClockFreq();
 80065cc:	f7fd ffd8 	bl	8004580 <HAL_RCC_GetSysClockFreq>
 80065d0:	0003      	movs	r3, r0
 80065d2:	60fb      	str	r3, [r7, #12]
        usartdiv = (uint16_t)(UART_DIV_SAMPLING16(pclk, huart->Init.BaudRate));
 80065d4:	687b      	ldr	r3, [r7, #4]
 80065d6:	685b      	ldr	r3, [r3, #4]
 80065d8:	085a      	lsrs	r2, r3, #1
 80065da:	68fb      	ldr	r3, [r7, #12]
 80065dc:	18d2      	adds	r2, r2, r3
 80065de:	687b      	ldr	r3, [r7, #4]
 80065e0:	685b      	ldr	r3, [r3, #4]
 80065e2:	0019      	movs	r1, r3
 80065e4:	0010      	movs	r0, r2
 80065e6:	f7f9 fd8f 	bl	8000108 <__udivsi3>
 80065ea:	0003      	movs	r3, r0
 80065ec:	b29b      	uxth	r3, r3
 80065ee:	61bb      	str	r3, [r7, #24]
        break;
 80065f0:	e014      	b.n	800661c <UART_SetConfig+0x2ac>
      case UART_CLOCKSOURCE_LSE:
        usartdiv = (uint16_t)(UART_DIV_SAMPLING16(LSE_VALUE, huart->Init.BaudRate));
 80065f2:	687b      	ldr	r3, [r7, #4]
 80065f4:	685b      	ldr	r3, [r3, #4]
 80065f6:	085b      	lsrs	r3, r3, #1
 80065f8:	2280      	movs	r2, #128	; 0x80
 80065fa:	0212      	lsls	r2, r2, #8
 80065fc:	189a      	adds	r2, r3, r2
 80065fe:	687b      	ldr	r3, [r7, #4]
 8006600:	685b      	ldr	r3, [r3, #4]
 8006602:	0019      	movs	r1, r3
 8006604:	0010      	movs	r0, r2
 8006606:	f7f9 fd7f 	bl	8000108 <__udivsi3>
 800660a:	0003      	movs	r3, r0
 800660c:	b29b      	uxth	r3, r3
 800660e:	61bb      	str	r3, [r7, #24]
        break;
 8006610:	e004      	b.n	800661c <UART_SetConfig+0x2ac>
      default:
        ret = HAL_ERROR;
 8006612:	2317      	movs	r3, #23
 8006614:	18fb      	adds	r3, r7, r3
 8006616:	2201      	movs	r2, #1
 8006618:	701a      	strb	r2, [r3, #0]
        break;
 800661a:	46c0      	nop			; (mov r8, r8)
    }

    /* USARTDIV must be greater than or equal to 0d16 */
    if ((usartdiv >= UART_BRR_MIN) && (usartdiv <= UART_BRR_MAX))
 800661c:	69bb      	ldr	r3, [r7, #24]
 800661e:	2b0f      	cmp	r3, #15
 8006620:	d908      	bls.n	8006634 <UART_SetConfig+0x2c4>
 8006622:	69bb      	ldr	r3, [r7, #24]
 8006624:	4a13      	ldr	r2, [pc, #76]	; (8006674 <UART_SetConfig+0x304>)
 8006626:	4293      	cmp	r3, r2
 8006628:	d804      	bhi.n	8006634 <UART_SetConfig+0x2c4>
    {
      huart->Instance->BRR = usartdiv;
 800662a:	687b      	ldr	r3, [r7, #4]
 800662c:	681b      	ldr	r3, [r3, #0]
 800662e:	69ba      	ldr	r2, [r7, #24]
 8006630:	60da      	str	r2, [r3, #12]
 8006632:	e003      	b.n	800663c <UART_SetConfig+0x2cc>
    }
    else
    {
      ret = HAL_ERROR;
 8006634:	2317      	movs	r3, #23
 8006636:	18fb      	adds	r3, r7, r3
 8006638:	2201      	movs	r2, #1
 800663a:	701a      	strb	r2, [r3, #0]
    }
  }


  /* Clear ISR function pointers */
  huart->RxISR = NULL;
 800663c:	687b      	ldr	r3, [r7, #4]
 800663e:	2200      	movs	r2, #0
 8006640:	661a      	str	r2, [r3, #96]	; 0x60
  huart->TxISR = NULL;
 8006642:	687b      	ldr	r3, [r7, #4]
 8006644:	2200      	movs	r2, #0
 8006646:	665a      	str	r2, [r3, #100]	; 0x64

  return ret;
 8006648:	2317      	movs	r3, #23
 800664a:	18fb      	adds	r3, r7, r3
 800664c:	781b      	ldrb	r3, [r3, #0]
}
 800664e:	0018      	movs	r0, r3
 8006650:	46bd      	mov	sp, r7
 8006652:	b008      	add	sp, #32
 8006654:	bd80      	pop	{r7, pc}
 8006656:	46c0      	nop			; (mov r8, r8)
 8006658:	ffff69f3 	.word	0xffff69f3
 800665c:	ffffcfff 	.word	0xffffcfff
 8006660:	fffff4ff 	.word	0xfffff4ff
 8006664:	40013800 	.word	0x40013800
 8006668:	40021000 	.word	0x40021000
 800666c:	40004400 	.word	0x40004400
 8006670:	00f42400 	.word	0x00f42400
 8006674:	0000ffff 	.word	0x0000ffff
 8006678:	007a1200 	.word	0x007a1200

0800667c <UART_AdvFeatureConfig>:
  * @brief Configure the UART peripheral advanced features.
  * @param huart UART handle.
  * @retval None
  */
void UART_AdvFeatureConfig(UART_HandleTypeDef *huart)
{
 800667c:	b580      	push	{r7, lr}
 800667e:	b082      	sub	sp, #8
 8006680:	af00      	add	r7, sp, #0
 8006682:	6078      	str	r0, [r7, #4]
  /* Check whether the set of advanced features to configure is properly set */
  assert_param(IS_UART_ADVFEATURE_INIT(huart->AdvancedInit.AdvFeatureInit));

  /* if required, configure TX pin active level inversion */
  if (HAL_IS_BIT_SET(huart->AdvancedInit.AdvFeatureInit, UART_ADVFEATURE_TXINVERT_INIT))
 8006684:	687b      	ldr	r3, [r7, #4]
 8006686:	6a5b      	ldr	r3, [r3, #36]	; 0x24
 8006688:	2201      	movs	r2, #1
 800668a:	4013      	ands	r3, r2
 800668c:	d00b      	beq.n	80066a6 <UART_AdvFeatureConfig+0x2a>
  {
    assert_param(IS_UART_ADVFEATURE_TXINV(huart->AdvancedInit.TxPinLevelInvert));
    MODIFY_REG(huart->Instance->CR2, USART_CR2_TXINV, huart->AdvancedInit.TxPinLevelInvert);
 800668e:	687b      	ldr	r3, [r7, #4]
 8006690:	681b      	ldr	r3, [r3, #0]
 8006692:	685b      	ldr	r3, [r3, #4]
 8006694:	4a4a      	ldr	r2, [pc, #296]	; (80067c0 <UART_AdvFeatureConfig+0x144>)
 8006696:	4013      	ands	r3, r2
 8006698:	0019      	movs	r1, r3
 800669a:	687b      	ldr	r3, [r7, #4]
 800669c:	6a9a      	ldr	r2, [r3, #40]	; 0x28
 800669e:	687b      	ldr	r3, [r7, #4]
 80066a0:	681b      	ldr	r3, [r3, #0]
 80066a2:	430a      	orrs	r2, r1
 80066a4:	605a      	str	r2, [r3, #4]
  }

  /* if required, configure RX pin active level inversion */
  if (HAL_IS_BIT_SET(huart->AdvancedInit.AdvFeatureInit, UART_ADVFEATURE_RXINVERT_INIT))
 80066a6:	687b      	ldr	r3, [r7, #4]
 80066a8:	6a5b      	ldr	r3, [r3, #36]	; 0x24
 80066aa:	2202      	movs	r2, #2
 80066ac:	4013      	ands	r3, r2
 80066ae:	d00b      	beq.n	80066c8 <UART_AdvFeatureConfig+0x4c>
  {
    assert_param(IS_UART_ADVFEATURE_RXINV(huart->AdvancedInit.RxPinLevelInvert));
    MODIFY_REG(huart->Instance->CR2, USART_CR2_RXINV, huart->AdvancedInit.RxPinLevelInvert);
 80066b0:	687b      	ldr	r3, [r7, #4]
 80066b2:	681b      	ldr	r3, [r3, #0]
 80066b4:	685b      	ldr	r3, [r3, #4]
 80066b6:	4a43      	ldr	r2, [pc, #268]	; (80067c4 <UART_AdvFeatureConfig+0x148>)
 80066b8:	4013      	ands	r3, r2
 80066ba:	0019      	movs	r1, r3
 80066bc:	687b      	ldr	r3, [r7, #4]
 80066be:	6ada      	ldr	r2, [r3, #44]	; 0x2c
 80066c0:	687b      	ldr	r3, [r7, #4]
 80066c2:	681b      	ldr	r3, [r3, #0]
 80066c4:	430a      	orrs	r2, r1
 80066c6:	605a      	str	r2, [r3, #4]
  }

  /* if required, configure data inversion */
  if (HAL_IS_BIT_SET(huart->AdvancedInit.AdvFeatureInit, UART_ADVFEATURE_DATAINVERT_INIT))
 80066c8:	687b      	ldr	r3, [r7, #4]
 80066ca:	6a5b      	ldr	r3, [r3, #36]	; 0x24
 80066cc:	2204      	movs	r2, #4
 80066ce:	4013      	ands	r3, r2
 80066d0:	d00b      	beq.n	80066ea <UART_AdvFeatureConfig+0x6e>
  {
    assert_param(IS_UART_ADVFEATURE_DATAINV(huart->AdvancedInit.DataInvert));
    MODIFY_REG(huart->Instance->CR2, USART_CR2_DATAINV, huart->AdvancedInit.DataInvert);
 80066d2:	687b      	ldr	r3, [r7, #4]
 80066d4:	681b      	ldr	r3, [r3, #0]
 80066d6:	685b      	ldr	r3, [r3, #4]
 80066d8:	4a3b      	ldr	r2, [pc, #236]	; (80067c8 <UART_AdvFeatureConfig+0x14c>)
 80066da:	4013      	ands	r3, r2
 80066dc:	0019      	movs	r1, r3
 80066de:	687b      	ldr	r3, [r7, #4]
 80066e0:	6b1a      	ldr	r2, [r3, #48]	; 0x30
 80066e2:	687b      	ldr	r3, [r7, #4]
 80066e4:	681b      	ldr	r3, [r3, #0]
 80066e6:	430a      	orrs	r2, r1
 80066e8:	605a      	str	r2, [r3, #4]
  }

  /* if required, configure RX/TX pins swap */
  if (HAL_IS_BIT_SET(huart->AdvancedInit.AdvFeatureInit, UART_ADVFEATURE_SWAP_INIT))
 80066ea:	687b      	ldr	r3, [r7, #4]
 80066ec:	6a5b      	ldr	r3, [r3, #36]	; 0x24
 80066ee:	2208      	movs	r2, #8
 80066f0:	4013      	ands	r3, r2
 80066f2:	d00b      	beq.n	800670c <UART_AdvFeatureConfig+0x90>
  {
    assert_param(IS_UART_ADVFEATURE_SWAP(huart->AdvancedInit.Swap));
    MODIFY_REG(huart->Instance->CR2, USART_CR2_SWAP, huart->AdvancedInit.Swap);
 80066f4:	687b      	ldr	r3, [r7, #4]
 80066f6:	681b      	ldr	r3, [r3, #0]
 80066f8:	685b      	ldr	r3, [r3, #4]
 80066fa:	4a34      	ldr	r2, [pc, #208]	; (80067cc <UART_AdvFeatureConfig+0x150>)
 80066fc:	4013      	ands	r3, r2
 80066fe:	0019      	movs	r1, r3
 8006700:	687b      	ldr	r3, [r7, #4]
 8006702:	6b5a      	ldr	r2, [r3, #52]	; 0x34
 8006704:	687b      	ldr	r3, [r7, #4]
 8006706:	681b      	ldr	r3, [r3, #0]
 8006708:	430a      	orrs	r2, r1
 800670a:	605a      	str	r2, [r3, #4]
  }

  /* if required, configure RX overrun detection disabling */
  if (HAL_IS_BIT_SET(huart->AdvancedInit.AdvFeatureInit, UART_ADVFEATURE_RXOVERRUNDISABLE_INIT))
 800670c:	687b      	ldr	r3, [r7, #4]
 800670e:	6a5b      	ldr	r3, [r3, #36]	; 0x24
 8006710:	2210      	movs	r2, #16
 8006712:	4013      	ands	r3, r2
 8006714:	d00b      	beq.n	800672e <UART_AdvFeatureConfig+0xb2>
  {
    assert_param(IS_UART_OVERRUN(huart->AdvancedInit.OverrunDisable));
    MODIFY_REG(huart->Instance->CR3, USART_CR3_OVRDIS, huart->AdvancedInit.OverrunDisable);
 8006716:	687b      	ldr	r3, [r7, #4]
 8006718:	681b      	ldr	r3, [r3, #0]
 800671a:	689b      	ldr	r3, [r3, #8]
 800671c:	4a2c      	ldr	r2, [pc, #176]	; (80067d0 <UART_AdvFeatureConfig+0x154>)
 800671e:	4013      	ands	r3, r2
 8006720:	0019      	movs	r1, r3
 8006722:	687b      	ldr	r3, [r7, #4]
 8006724:	6b9a      	ldr	r2, [r3, #56]	; 0x38
 8006726:	687b      	ldr	r3, [r7, #4]
 8006728:	681b      	ldr	r3, [r3, #0]
 800672a:	430a      	orrs	r2, r1
 800672c:	609a      	str	r2, [r3, #8]
  }

  /* if required, configure DMA disabling on reception error */
  if (HAL_IS_BIT_SET(huart->AdvancedInit.AdvFeatureInit, UART_ADVFEATURE_DMADISABLEONERROR_INIT))
 800672e:	687b      	ldr	r3, [r7, #4]
 8006730:	6a5b      	ldr	r3, [r3, #36]	; 0x24
 8006732:	2220      	movs	r2, #32
 8006734:	4013      	ands	r3, r2
 8006736:	d00b      	beq.n	8006750 <UART_AdvFeatureConfig+0xd4>
  {
    assert_param(IS_UART_ADVFEATURE_DMAONRXERROR(huart->AdvancedInit.DMADisableonRxError));
    MODIFY_REG(huart->Instance->CR3, USART_CR3_DDRE, huart->AdvancedInit.DMADisableonRxError);
 8006738:	687b      	ldr	r3, [r7, #4]
 800673a:	681b      	ldr	r3, [r3, #0]
 800673c:	689b      	ldr	r3, [r3, #8]
 800673e:	4a25      	ldr	r2, [pc, #148]	; (80067d4 <UART_AdvFeatureConfig+0x158>)
 8006740:	4013      	ands	r3, r2
 8006742:	0019      	movs	r1, r3
 8006744:	687b      	ldr	r3, [r7, #4]
 8006746:	6bda      	ldr	r2, [r3, #60]	; 0x3c
 8006748:	687b      	ldr	r3, [r7, #4]
 800674a:	681b      	ldr	r3, [r3, #0]
 800674c:	430a      	orrs	r2, r1
 800674e:	609a      	str	r2, [r3, #8]
  }

  /* if required, configure auto Baud rate detection scheme */
  if (HAL_IS_BIT_SET(huart->AdvancedInit.AdvFeatureInit, UART_ADVFEATURE_AUTOBAUDRATE_INIT))
 8006750:	687b      	ldr	r3, [r7, #4]
 8006752:	6a5b      	ldr	r3, [r3, #36]	; 0x24
 8006754:	2240      	movs	r2, #64	; 0x40
 8006756:	4013      	ands	r3, r2
 8006758:	d01d      	beq.n	8006796 <UART_AdvFeatureConfig+0x11a>
  {
    assert_param(IS_USART_AUTOBAUDRATE_DETECTION_INSTANCE(huart->Instance));
    assert_param(IS_UART_ADVFEATURE_AUTOBAUDRATE(huart->AdvancedInit.AutoBaudRateEnable));
    MODIFY_REG(huart->Instance->CR2, USART_CR2_ABREN, huart->AdvancedInit.AutoBaudRateEnable);
 800675a:	687b      	ldr	r3, [r7, #4]
 800675c:	681b      	ldr	r3, [r3, #0]
 800675e:	685b      	ldr	r3, [r3, #4]
 8006760:	4a1d      	ldr	r2, [pc, #116]	; (80067d8 <UART_AdvFeatureConfig+0x15c>)
 8006762:	4013      	ands	r3, r2
 8006764:	0019      	movs	r1, r3
 8006766:	687b      	ldr	r3, [r7, #4]
 8006768:	6c1a      	ldr	r2, [r3, #64]	; 0x40
 800676a:	687b      	ldr	r3, [r7, #4]
 800676c:	681b      	ldr	r3, [r3, #0]
 800676e:	430a      	orrs	r2, r1
 8006770:	605a      	str	r2, [r3, #4]
    /* set auto Baudrate detection parameters if detection is enabled */
    if (huart->AdvancedInit.AutoBaudRateEnable == UART_ADVFEATURE_AUTOBAUDRATE_ENABLE)
 8006772:	687b      	ldr	r3, [r7, #4]
 8006774:	6c1a      	ldr	r2, [r3, #64]	; 0x40
 8006776:	2380      	movs	r3, #128	; 0x80
 8006778:	035b      	lsls	r3, r3, #13
 800677a:	429a      	cmp	r2, r3
 800677c:	d10b      	bne.n	8006796 <UART_AdvFeatureConfig+0x11a>
    {
      assert_param(IS_UART_ADVFEATURE_AUTOBAUDRATEMODE(huart->AdvancedInit.AutoBaudRateMode));
      MODIFY_REG(huart->Instance->CR2, USART_CR2_ABRMODE, huart->AdvancedInit.AutoBaudRateMode);
 800677e:	687b      	ldr	r3, [r7, #4]
 8006780:	681b      	ldr	r3, [r3, #0]
 8006782:	685b      	ldr	r3, [r3, #4]
 8006784:	4a15      	ldr	r2, [pc, #84]	; (80067dc <UART_AdvFeatureConfig+0x160>)
 8006786:	4013      	ands	r3, r2
 8006788:	0019      	movs	r1, r3
 800678a:	687b      	ldr	r3, [r7, #4]
 800678c:	6c5a      	ldr	r2, [r3, #68]	; 0x44
 800678e:	687b      	ldr	r3, [r7, #4]
 8006790:	681b      	ldr	r3, [r3, #0]
 8006792:	430a      	orrs	r2, r1
 8006794:	605a      	str	r2, [r3, #4]
    }
  }

  /* if required, configure MSB first on communication line */
  if (HAL_IS_BIT_SET(huart->AdvancedInit.AdvFeatureInit, UART_ADVFEATURE_MSBFIRST_INIT))
 8006796:	687b      	ldr	r3, [r7, #4]
 8006798:	6a5b      	ldr	r3, [r3, #36]	; 0x24
 800679a:	2280      	movs	r2, #128	; 0x80
 800679c:	4013      	ands	r3, r2
 800679e:	d00b      	beq.n	80067b8 <UART_AdvFeatureConfig+0x13c>
  {
    assert_param(IS_UART_ADVFEATURE_MSBFIRST(huart->AdvancedInit.MSBFirst));
    MODIFY_REG(huart->Instance->CR2, USART_CR2_MSBFIRST, huart->AdvancedInit.MSBFirst);
 80067a0:	687b      	ldr	r3, [r7, #4]
 80067a2:	681b      	ldr	r3, [r3, #0]
 80067a4:	685b      	ldr	r3, [r3, #4]
 80067a6:	4a0e      	ldr	r2, [pc, #56]	; (80067e0 <UART_AdvFeatureConfig+0x164>)
 80067a8:	4013      	ands	r3, r2
 80067aa:	0019      	movs	r1, r3
 80067ac:	687b      	ldr	r3, [r7, #4]
 80067ae:	6c9a      	ldr	r2, [r3, #72]	; 0x48
 80067b0:	687b      	ldr	r3, [r7, #4]
 80067b2:	681b      	ldr	r3, [r3, #0]
 80067b4:	430a      	orrs	r2, r1
 80067b6:	605a      	str	r2, [r3, #4]
  }
}
 80067b8:	46c0      	nop			; (mov r8, r8)
 80067ba:	46bd      	mov	sp, r7
 80067bc:	b002      	add	sp, #8
 80067be:	bd80      	pop	{r7, pc}
 80067c0:	fffdffff 	.word	0xfffdffff
 80067c4:	fffeffff 	.word	0xfffeffff
 80067c8:	fffbffff 	.word	0xfffbffff
 80067cc:	ffff7fff 	.word	0xffff7fff
 80067d0:	ffffefff 	.word	0xffffefff
 80067d4:	ffffdfff 	.word	0xffffdfff
 80067d8:	ffefffff 	.word	0xffefffff
 80067dc:	ff9fffff 	.word	0xff9fffff
 80067e0:	fff7ffff 	.word	0xfff7ffff

080067e4 <UART_CheckIdleState>:
  * @brief Check the UART Idle State.
  * @param huart UART handle.
  * @retval HAL status
  */
HAL_StatusTypeDef UART_CheckIdleState(UART_HandleTypeDef *huart)
{
 80067e4:	b580      	push	{r7, lr}
 80067e6:	b086      	sub	sp, #24
 80067e8:	af02      	add	r7, sp, #8
 80067ea:	6078      	str	r0, [r7, #4]
  uint32_t tickstart;

  /* Initialize the UART ErrorCode */
  huart->ErrorCode = HAL_UART_ERROR_NONE;
 80067ec:	687b      	ldr	r3, [r7, #4]
 80067ee:	2200      	movs	r2, #0
 80067f0:	67da      	str	r2, [r3, #124]	; 0x7c

  /* Init tickstart for timeout managment*/
  tickstart = HAL_GetTick();
 80067f2:	f7fc ffbf 	bl	8003774 <HAL_GetTick>
 80067f6:	0003      	movs	r3, r0
 80067f8:	60fb      	str	r3, [r7, #12]

  /* Check if the Transmitter is enabled */
  if ((huart->Instance->CR1 & USART_CR1_TE) == USART_CR1_TE)
 80067fa:	687b      	ldr	r3, [r7, #4]
 80067fc:	681b      	ldr	r3, [r3, #0]
 80067fe:	681b      	ldr	r3, [r3, #0]
 8006800:	2208      	movs	r2, #8
 8006802:	4013      	ands	r3, r2
 8006804:	2b08      	cmp	r3, #8
 8006806:	d10d      	bne.n	8006824 <UART_CheckIdleState+0x40>
  {
    /* Wait until TEACK flag is set */
    if (UART_WaitOnFlagUntilTimeout(huart, USART_ISR_TEACK, RESET, tickstart, HAL_UART_TIMEOUT_VALUE) != HAL_OK)
 8006808:	68fa      	ldr	r2, [r7, #12]
 800680a:	2380      	movs	r3, #128	; 0x80
 800680c:	0399      	lsls	r1, r3, #14
 800680e:	6878      	ldr	r0, [r7, #4]
 8006810:	4b16      	ldr	r3, [pc, #88]	; (800686c <UART_CheckIdleState+0x88>)
 8006812:	9300      	str	r3, [sp, #0]
 8006814:	0013      	movs	r3, r2
 8006816:	2200      	movs	r2, #0
 8006818:	f000 f82a 	bl	8006870 <UART_WaitOnFlagUntilTimeout>
 800681c:	1e03      	subs	r3, r0, #0
 800681e:	d001      	beq.n	8006824 <UART_CheckIdleState+0x40>
    {
      /* Timeout occurred */
      return HAL_TIMEOUT;
 8006820:	2303      	movs	r3, #3
 8006822:	e01f      	b.n	8006864 <UART_CheckIdleState+0x80>
    }
  }

  /* Check if the Receiver is enabled */
  if ((huart->Instance->CR1 & USART_CR1_RE) == USART_CR1_RE)
 8006824:	687b      	ldr	r3, [r7, #4]
 8006826:	681b      	ldr	r3, [r3, #0]
 8006828:	681b      	ldr	r3, [r3, #0]
 800682a:	2204      	movs	r2, #4
 800682c:	4013      	ands	r3, r2
 800682e:	2b04      	cmp	r3, #4
 8006830:	d10d      	bne.n	800684e <UART_CheckIdleState+0x6a>
  {
    /* Wait until REACK flag is set */
    if (UART_WaitOnFlagUntilTimeout(huart, USART_ISR_REACK, RESET, tickstart, HAL_UART_TIMEOUT_VALUE) != HAL_OK)
 8006832:	68fa      	ldr	r2, [r7, #12]
 8006834:	2380      	movs	r3, #128	; 0x80
 8006836:	03d9      	lsls	r1, r3, #15
 8006838:	6878      	ldr	r0, [r7, #4]
 800683a:	4b0c      	ldr	r3, [pc, #48]	; (800686c <UART_CheckIdleState+0x88>)
 800683c:	9300      	str	r3, [sp, #0]
 800683e:	0013      	movs	r3, r2
 8006840:	2200      	movs	r2, #0
 8006842:	f000 f815 	bl	8006870 <UART_WaitOnFlagUntilTimeout>
 8006846:	1e03      	subs	r3, r0, #0
 8006848:	d001      	beq.n	800684e <UART_CheckIdleState+0x6a>
    {
      /* Timeout occurred */
      return HAL_TIMEOUT;
 800684a:	2303      	movs	r3, #3
 800684c:	e00a      	b.n	8006864 <UART_CheckIdleState+0x80>
    }
  }

  /* Initialize the UART State */
  huart->gState = HAL_UART_STATE_READY;
 800684e:	687b      	ldr	r3, [r7, #4]
 8006850:	2220      	movs	r2, #32
 8006852:	675a      	str	r2, [r3, #116]	; 0x74
  huart->RxState = HAL_UART_STATE_READY;
 8006854:	687b      	ldr	r3, [r7, #4]
 8006856:	2220      	movs	r2, #32
 8006858:	679a      	str	r2, [r3, #120]	; 0x78

  __HAL_UNLOCK(huart);
 800685a:	687b      	ldr	r3, [r7, #4]
 800685c:	2270      	movs	r2, #112	; 0x70
 800685e:	2100      	movs	r1, #0
 8006860:	5499      	strb	r1, [r3, r2]

  return HAL_OK;
 8006862:	2300      	movs	r3, #0
}
 8006864:	0018      	movs	r0, r3
 8006866:	46bd      	mov	sp, r7
 8006868:	b004      	add	sp, #16
 800686a:	bd80      	pop	{r7, pc}
 800686c:	01ffffff 	.word	0x01ffffff

08006870 <UART_WaitOnFlagUntilTimeout>:
  * @param Timeout   Timeout duration
  * @retval HAL status
  */
HAL_StatusTypeDef UART_WaitOnFlagUntilTimeout(UART_HandleTypeDef *huart, uint32_t Flag, FlagStatus Status,
                                              uint32_t Tickstart, uint32_t Timeout)
{
 8006870:	b580      	push	{r7, lr}
 8006872:	b084      	sub	sp, #16
 8006874:	af00      	add	r7, sp, #0
 8006876:	60f8      	str	r0, [r7, #12]
 8006878:	60b9      	str	r1, [r7, #8]
 800687a:	603b      	str	r3, [r7, #0]
 800687c:	1dfb      	adds	r3, r7, #7
 800687e:	701a      	strb	r2, [r3, #0]
  /* Wait until flag is set */
  while ((__HAL_UART_GET_FLAG(huart, Flag) ? SET : RESET) == Status)
 8006880:	e05d      	b.n	800693e <UART_WaitOnFlagUntilTimeout+0xce>
  {
    /* Check for the Timeout */
    if (Timeout != HAL_MAX_DELAY)
 8006882:	69bb      	ldr	r3, [r7, #24]
 8006884:	3301      	adds	r3, #1
 8006886:	d05a      	beq.n	800693e <UART_WaitOnFlagUntilTimeout+0xce>
    {
      if (((HAL_GetTick() - Tickstart) > Timeout) || (Timeout == 0U))
 8006888:	f7fc ff74 	bl	8003774 <HAL_GetTick>
 800688c:	0002      	movs	r2, r0
 800688e:	683b      	ldr	r3, [r7, #0]
 8006890:	1ad3      	subs	r3, r2, r3
 8006892:	69ba      	ldr	r2, [r7, #24]
 8006894:	429a      	cmp	r2, r3
 8006896:	d302      	bcc.n	800689e <UART_WaitOnFlagUntilTimeout+0x2e>
 8006898:	69bb      	ldr	r3, [r7, #24]
 800689a:	2b00      	cmp	r3, #0
 800689c:	d11b      	bne.n	80068d6 <UART_WaitOnFlagUntilTimeout+0x66>
      {
        /* Disable TXE, RXNE, PE and ERR (Frame error, noise error, overrun error) interrupts for the interrupt process */
        CLEAR_BIT(huart->Instance->CR1, (USART_CR1_RXNEIE | USART_CR1_PEIE | USART_CR1_TXEIE));
 800689e:	68fb      	ldr	r3, [r7, #12]
 80068a0:	681b      	ldr	r3, [r3, #0]
 80068a2:	681a      	ldr	r2, [r3, #0]
 80068a4:	68fb      	ldr	r3, [r7, #12]
 80068a6:	681b      	ldr	r3, [r3, #0]
 80068a8:	492f      	ldr	r1, [pc, #188]	; (8006968 <UART_WaitOnFlagUntilTimeout+0xf8>)
 80068aa:	400a      	ands	r2, r1
 80068ac:	601a      	str	r2, [r3, #0]
        CLEAR_BIT(huart->Instance->CR3, USART_CR3_EIE);
 80068ae:	68fb      	ldr	r3, [r7, #12]
 80068b0:	681b      	ldr	r3, [r3, #0]
 80068b2:	689a      	ldr	r2, [r3, #8]
 80068b4:	68fb      	ldr	r3, [r7, #12]
 80068b6:	681b      	ldr	r3, [r3, #0]
 80068b8:	2101      	movs	r1, #1
 80068ba:	438a      	bics	r2, r1
 80068bc:	609a      	str	r2, [r3, #8]

        huart->gState = HAL_UART_STATE_READY;
 80068be:	68fb      	ldr	r3, [r7, #12]
 80068c0:	2220      	movs	r2, #32
 80068c2:	675a      	str	r2, [r3, #116]	; 0x74
        huart->RxState = HAL_UART_STATE_READY;
 80068c4:	68fb      	ldr	r3, [r7, #12]
 80068c6:	2220      	movs	r2, #32
 80068c8:	679a      	str	r2, [r3, #120]	; 0x78

        __HAL_UNLOCK(huart);
 80068ca:	68fb      	ldr	r3, [r7, #12]
 80068cc:	2270      	movs	r2, #112	; 0x70
 80068ce:	2100      	movs	r1, #0
 80068d0:	5499      	strb	r1, [r3, r2]

        return HAL_TIMEOUT;
 80068d2:	2303      	movs	r3, #3
 80068d4:	e043      	b.n	800695e <UART_WaitOnFlagUntilTimeout+0xee>
      }

      if (READ_BIT(huart->Instance->CR1, USART_CR1_RE) != 0U)
 80068d6:	68fb      	ldr	r3, [r7, #12]
 80068d8:	681b      	ldr	r3, [r3, #0]
 80068da:	681b      	ldr	r3, [r3, #0]
 80068dc:	2204      	movs	r2, #4
 80068de:	4013      	ands	r3, r2
 80068e0:	d02d      	beq.n	800693e <UART_WaitOnFlagUntilTimeout+0xce>
      {
        if (__HAL_UART_GET_FLAG(huart, UART_FLAG_RTOF) == SET)
 80068e2:	68fb      	ldr	r3, [r7, #12]
 80068e4:	681b      	ldr	r3, [r3, #0]
 80068e6:	69da      	ldr	r2, [r3, #28]
 80068e8:	2380      	movs	r3, #128	; 0x80
 80068ea:	011b      	lsls	r3, r3, #4
 80068ec:	401a      	ands	r2, r3
 80068ee:	2380      	movs	r3, #128	; 0x80
 80068f0:	011b      	lsls	r3, r3, #4
 80068f2:	429a      	cmp	r2, r3
 80068f4:	d123      	bne.n	800693e <UART_WaitOnFlagUntilTimeout+0xce>
        {
          /* Clear Receiver Timeout flag*/
          __HAL_UART_CLEAR_FLAG(huart, UART_CLEAR_RTOF);
 80068f6:	68fb      	ldr	r3, [r7, #12]
 80068f8:	681b      	ldr	r3, [r3, #0]
 80068fa:	2280      	movs	r2, #128	; 0x80
 80068fc:	0112      	lsls	r2, r2, #4
 80068fe:	621a      	str	r2, [r3, #32]
          
          /* Disable TXE, RXNE, PE and ERR (Frame error, noise error, overrun error) interrupts for the interrupt process */
          CLEAR_BIT(huart->Instance->CR1, (USART_CR1_RXNEIE | USART_CR1_PEIE | USART_CR1_TXEIE));
 8006900:	68fb      	ldr	r3, [r7, #12]
 8006902:	681b      	ldr	r3, [r3, #0]
 8006904:	681a      	ldr	r2, [r3, #0]
 8006906:	68fb      	ldr	r3, [r7, #12]
 8006908:	681b      	ldr	r3, [r3, #0]
 800690a:	4917      	ldr	r1, [pc, #92]	; (8006968 <UART_WaitOnFlagUntilTimeout+0xf8>)
 800690c:	400a      	ands	r2, r1
 800690e:	601a      	str	r2, [r3, #0]
          CLEAR_BIT(huart->Instance->CR3, USART_CR3_EIE);
 8006910:	68fb      	ldr	r3, [r7, #12]
 8006912:	681b      	ldr	r3, [r3, #0]
 8006914:	689a      	ldr	r2, [r3, #8]
 8006916:	68fb      	ldr	r3, [r7, #12]
 8006918:	681b      	ldr	r3, [r3, #0]
 800691a:	2101      	movs	r1, #1
 800691c:	438a      	bics	r2, r1
 800691e:	609a      	str	r2, [r3, #8]

          huart->gState = HAL_UART_STATE_READY;
 8006920:	68fb      	ldr	r3, [r7, #12]
 8006922:	2220      	movs	r2, #32
 8006924:	675a      	str	r2, [r3, #116]	; 0x74
          huart->RxState = HAL_UART_STATE_READY;
 8006926:	68fb      	ldr	r3, [r7, #12]
 8006928:	2220      	movs	r2, #32
 800692a:	679a      	str	r2, [r3, #120]	; 0x78
          huart->ErrorCode = HAL_UART_ERROR_RTO;
 800692c:	68fb      	ldr	r3, [r7, #12]
 800692e:	2220      	movs	r2, #32
 8006930:	67da      	str	r2, [r3, #124]	; 0x7c
          
          /* Process Unlocked */
          __HAL_UNLOCK(huart);
 8006932:	68fb      	ldr	r3, [r7, #12]
 8006934:	2270      	movs	r2, #112	; 0x70
 8006936:	2100      	movs	r1, #0
 8006938:	5499      	strb	r1, [r3, r2]
          
          return HAL_TIMEOUT;
 800693a:	2303      	movs	r3, #3
 800693c:	e00f      	b.n	800695e <UART_WaitOnFlagUntilTimeout+0xee>
  while ((__HAL_UART_GET_FLAG(huart, Flag) ? SET : RESET) == Status)
 800693e:	68fb      	ldr	r3, [r7, #12]
 8006940:	681b      	ldr	r3, [r3, #0]
 8006942:	69db      	ldr	r3, [r3, #28]
 8006944:	68ba      	ldr	r2, [r7, #8]
 8006946:	4013      	ands	r3, r2
 8006948:	68ba      	ldr	r2, [r7, #8]
 800694a:	1ad3      	subs	r3, r2, r3
 800694c:	425a      	negs	r2, r3
 800694e:	4153      	adcs	r3, r2
 8006950:	b2db      	uxtb	r3, r3
 8006952:	001a      	movs	r2, r3
 8006954:	1dfb      	adds	r3, r7, #7
 8006956:	781b      	ldrb	r3, [r3, #0]
 8006958:	429a      	cmp	r2, r3
 800695a:	d092      	beq.n	8006882 <UART_WaitOnFlagUntilTimeout+0x12>
        }
      }
    }
  }
  return HAL_OK;
 800695c:	2300      	movs	r3, #0
}
 800695e:	0018      	movs	r0, r3
 8006960:	46bd      	mov	sp, r7
 8006962:	b004      	add	sp, #16
 8006964:	bd80      	pop	{r7, pc}
 8006966:	46c0      	nop			; (mov r8, r8)
 8006968:	fffffe5f 	.word	0xfffffe5f

0800696c <__errno>:
 800696c:	4b01      	ldr	r3, [pc, #4]	; (8006974 <__errno+0x8>)
 800696e:	6818      	ldr	r0, [r3, #0]
 8006970:	4770      	bx	lr
 8006972:	46c0      	nop			; (mov r8, r8)
 8006974:	20000010 	.word	0x20000010

08006978 <__libc_init_array>:
 8006978:	b570      	push	{r4, r5, r6, lr}
 800697a:	2600      	movs	r6, #0
 800697c:	4d0c      	ldr	r5, [pc, #48]	; (80069b0 <__libc_init_array+0x38>)
 800697e:	4c0d      	ldr	r4, [pc, #52]	; (80069b4 <__libc_init_array+0x3c>)
 8006980:	1b64      	subs	r4, r4, r5
 8006982:	10a4      	asrs	r4, r4, #2
 8006984:	42a6      	cmp	r6, r4
 8006986:	d109      	bne.n	800699c <__libc_init_array+0x24>
 8006988:	2600      	movs	r6, #0
 800698a:	f001 f8a3 	bl	8007ad4 <_init>
 800698e:	4d0a      	ldr	r5, [pc, #40]	; (80069b8 <__libc_init_array+0x40>)
 8006990:	4c0a      	ldr	r4, [pc, #40]	; (80069bc <__libc_init_array+0x44>)
 8006992:	1b64      	subs	r4, r4, r5
 8006994:	10a4      	asrs	r4, r4, #2
 8006996:	42a6      	cmp	r6, r4
 8006998:	d105      	bne.n	80069a6 <__libc_init_array+0x2e>
 800699a:	bd70      	pop	{r4, r5, r6, pc}
 800699c:	00b3      	lsls	r3, r6, #2
 800699e:	58eb      	ldr	r3, [r5, r3]
 80069a0:	4798      	blx	r3
 80069a2:	3601      	adds	r6, #1
 80069a4:	e7ee      	b.n	8006984 <__libc_init_array+0xc>
 80069a6:	00b3      	lsls	r3, r6, #2
 80069a8:	58eb      	ldr	r3, [r5, r3]
 80069aa:	4798      	blx	r3
 80069ac:	3601      	adds	r6, #1
 80069ae:	e7f2      	b.n	8006996 <__libc_init_array+0x1e>
 80069b0:	08007f80 	.word	0x08007f80
 80069b4:	08007f80 	.word	0x08007f80
 80069b8:	08007f80 	.word	0x08007f80
 80069bc:	08007f84 	.word	0x08007f84

080069c0 <memset>:
 80069c0:	0003      	movs	r3, r0
 80069c2:	1812      	adds	r2, r2, r0
 80069c4:	4293      	cmp	r3, r2
 80069c6:	d100      	bne.n	80069ca <memset+0xa>
 80069c8:	4770      	bx	lr
 80069ca:	7019      	strb	r1, [r3, #0]
 80069cc:	3301      	adds	r3, #1
 80069ce:	e7f9      	b.n	80069c4 <memset+0x4>

080069d0 <iprintf>:
 80069d0:	b40f      	push	{r0, r1, r2, r3}
 80069d2:	4b0b      	ldr	r3, [pc, #44]	; (8006a00 <iprintf+0x30>)
 80069d4:	b513      	push	{r0, r1, r4, lr}
 80069d6:	681c      	ldr	r4, [r3, #0]
 80069d8:	2c00      	cmp	r4, #0
 80069da:	d005      	beq.n	80069e8 <iprintf+0x18>
 80069dc:	69a3      	ldr	r3, [r4, #24]
 80069de:	2b00      	cmp	r3, #0
 80069e0:	d102      	bne.n	80069e8 <iprintf+0x18>
 80069e2:	0020      	movs	r0, r4
 80069e4:	f000 fafc 	bl	8006fe0 <__sinit>
 80069e8:	ab05      	add	r3, sp, #20
 80069ea:	9a04      	ldr	r2, [sp, #16]
 80069ec:	68a1      	ldr	r1, [r4, #8]
 80069ee:	0020      	movs	r0, r4
 80069f0:	9301      	str	r3, [sp, #4]
 80069f2:	f000 fccf 	bl	8007394 <_vfiprintf_r>
 80069f6:	bc16      	pop	{r1, r2, r4}
 80069f8:	bc08      	pop	{r3}
 80069fa:	b004      	add	sp, #16
 80069fc:	4718      	bx	r3
 80069fe:	46c0      	nop			; (mov r8, r8)
 8006a00:	20000010 	.word	0x20000010

08006a04 <putchar>:
 8006a04:	4b08      	ldr	r3, [pc, #32]	; (8006a28 <putchar+0x24>)
 8006a06:	b570      	push	{r4, r5, r6, lr}
 8006a08:	681c      	ldr	r4, [r3, #0]
 8006a0a:	0005      	movs	r5, r0
 8006a0c:	2c00      	cmp	r4, #0
 8006a0e:	d005      	beq.n	8006a1c <putchar+0x18>
 8006a10:	69a3      	ldr	r3, [r4, #24]
 8006a12:	2b00      	cmp	r3, #0
 8006a14:	d102      	bne.n	8006a1c <putchar+0x18>
 8006a16:	0020      	movs	r0, r4
 8006a18:	f000 fae2 	bl	8006fe0 <__sinit>
 8006a1c:	0029      	movs	r1, r5
 8006a1e:	68a2      	ldr	r2, [r4, #8]
 8006a20:	0020      	movs	r0, r4
 8006a22:	f000 ff43 	bl	80078ac <_putc_r>
 8006a26:	bd70      	pop	{r4, r5, r6, pc}
 8006a28:	20000010 	.word	0x20000010

08006a2c <_puts_r>:
 8006a2c:	b570      	push	{r4, r5, r6, lr}
 8006a2e:	0005      	movs	r5, r0
 8006a30:	000e      	movs	r6, r1
 8006a32:	2800      	cmp	r0, #0
 8006a34:	d004      	beq.n	8006a40 <_puts_r+0x14>
 8006a36:	6983      	ldr	r3, [r0, #24]
 8006a38:	2b00      	cmp	r3, #0
 8006a3a:	d101      	bne.n	8006a40 <_puts_r+0x14>
 8006a3c:	f000 fad0 	bl	8006fe0 <__sinit>
 8006a40:	69ab      	ldr	r3, [r5, #24]
 8006a42:	68ac      	ldr	r4, [r5, #8]
 8006a44:	2b00      	cmp	r3, #0
 8006a46:	d102      	bne.n	8006a4e <_puts_r+0x22>
 8006a48:	0028      	movs	r0, r5
 8006a4a:	f000 fac9 	bl	8006fe0 <__sinit>
 8006a4e:	4b24      	ldr	r3, [pc, #144]	; (8006ae0 <_puts_r+0xb4>)
 8006a50:	429c      	cmp	r4, r3
 8006a52:	d10f      	bne.n	8006a74 <_puts_r+0x48>
 8006a54:	686c      	ldr	r4, [r5, #4]
 8006a56:	89a3      	ldrh	r3, [r4, #12]
 8006a58:	071b      	lsls	r3, r3, #28
 8006a5a:	d502      	bpl.n	8006a62 <_puts_r+0x36>
 8006a5c:	6923      	ldr	r3, [r4, #16]
 8006a5e:	2b00      	cmp	r3, #0
 8006a60:	d11f      	bne.n	8006aa2 <_puts_r+0x76>
 8006a62:	0021      	movs	r1, r4
 8006a64:	0028      	movs	r0, r5
 8006a66:	f000 f94d 	bl	8006d04 <__swsetup_r>
 8006a6a:	2800      	cmp	r0, #0
 8006a6c:	d019      	beq.n	8006aa2 <_puts_r+0x76>
 8006a6e:	2001      	movs	r0, #1
 8006a70:	4240      	negs	r0, r0
 8006a72:	bd70      	pop	{r4, r5, r6, pc}
 8006a74:	4b1b      	ldr	r3, [pc, #108]	; (8006ae4 <_puts_r+0xb8>)
 8006a76:	429c      	cmp	r4, r3
 8006a78:	d101      	bne.n	8006a7e <_puts_r+0x52>
 8006a7a:	68ac      	ldr	r4, [r5, #8]
 8006a7c:	e7eb      	b.n	8006a56 <_puts_r+0x2a>
 8006a7e:	4b1a      	ldr	r3, [pc, #104]	; (8006ae8 <_puts_r+0xbc>)
 8006a80:	429c      	cmp	r4, r3
 8006a82:	d1e8      	bne.n	8006a56 <_puts_r+0x2a>
 8006a84:	68ec      	ldr	r4, [r5, #12]
 8006a86:	e7e6      	b.n	8006a56 <_puts_r+0x2a>
 8006a88:	3601      	adds	r6, #1
 8006a8a:	60a3      	str	r3, [r4, #8]
 8006a8c:	2b00      	cmp	r3, #0
 8006a8e:	da04      	bge.n	8006a9a <_puts_r+0x6e>
 8006a90:	69a2      	ldr	r2, [r4, #24]
 8006a92:	429a      	cmp	r2, r3
 8006a94:	dc16      	bgt.n	8006ac4 <_puts_r+0x98>
 8006a96:	290a      	cmp	r1, #10
 8006a98:	d014      	beq.n	8006ac4 <_puts_r+0x98>
 8006a9a:	6823      	ldr	r3, [r4, #0]
 8006a9c:	1c5a      	adds	r2, r3, #1
 8006a9e:	6022      	str	r2, [r4, #0]
 8006aa0:	7019      	strb	r1, [r3, #0]
 8006aa2:	68a3      	ldr	r3, [r4, #8]
 8006aa4:	7831      	ldrb	r1, [r6, #0]
 8006aa6:	3b01      	subs	r3, #1
 8006aa8:	2900      	cmp	r1, #0
 8006aaa:	d1ed      	bne.n	8006a88 <_puts_r+0x5c>
 8006aac:	60a3      	str	r3, [r4, #8]
 8006aae:	2b00      	cmp	r3, #0
 8006ab0:	da0f      	bge.n	8006ad2 <_puts_r+0xa6>
 8006ab2:	0022      	movs	r2, r4
 8006ab4:	310a      	adds	r1, #10
 8006ab6:	0028      	movs	r0, r5
 8006ab8:	f000 f8ce 	bl	8006c58 <__swbuf_r>
 8006abc:	1c43      	adds	r3, r0, #1
 8006abe:	d0d6      	beq.n	8006a6e <_puts_r+0x42>
 8006ac0:	200a      	movs	r0, #10
 8006ac2:	e7d6      	b.n	8006a72 <_puts_r+0x46>
 8006ac4:	0022      	movs	r2, r4
 8006ac6:	0028      	movs	r0, r5
 8006ac8:	f000 f8c6 	bl	8006c58 <__swbuf_r>
 8006acc:	1c43      	adds	r3, r0, #1
 8006ace:	d1e8      	bne.n	8006aa2 <_puts_r+0x76>
 8006ad0:	e7cd      	b.n	8006a6e <_puts_r+0x42>
 8006ad2:	200a      	movs	r0, #10
 8006ad4:	6823      	ldr	r3, [r4, #0]
 8006ad6:	1c5a      	adds	r2, r3, #1
 8006ad8:	6022      	str	r2, [r4, #0]
 8006ada:	7018      	strb	r0, [r3, #0]
 8006adc:	e7c9      	b.n	8006a72 <_puts_r+0x46>
 8006ade:	46c0      	nop			; (mov r8, r8)
 8006ae0:	08007f04 	.word	0x08007f04
 8006ae4:	08007f24 	.word	0x08007f24
 8006ae8:	08007ee4 	.word	0x08007ee4

08006aec <puts>:
 8006aec:	b510      	push	{r4, lr}
 8006aee:	4b03      	ldr	r3, [pc, #12]	; (8006afc <puts+0x10>)
 8006af0:	0001      	movs	r1, r0
 8006af2:	6818      	ldr	r0, [r3, #0]
 8006af4:	f7ff ff9a 	bl	8006a2c <_puts_r>
 8006af8:	bd10      	pop	{r4, pc}
 8006afa:	46c0      	nop			; (mov r8, r8)
 8006afc:	20000010 	.word	0x20000010

08006b00 <setvbuf>:
 8006b00:	b5f0      	push	{r4, r5, r6, r7, lr}
 8006b02:	001d      	movs	r5, r3
 8006b04:	4b4f      	ldr	r3, [pc, #316]	; (8006c44 <setvbuf+0x144>)
 8006b06:	b085      	sub	sp, #20
 8006b08:	681e      	ldr	r6, [r3, #0]
 8006b0a:	0004      	movs	r4, r0
 8006b0c:	000f      	movs	r7, r1
 8006b0e:	9200      	str	r2, [sp, #0]
 8006b10:	2e00      	cmp	r6, #0
 8006b12:	d005      	beq.n	8006b20 <setvbuf+0x20>
 8006b14:	69b3      	ldr	r3, [r6, #24]
 8006b16:	2b00      	cmp	r3, #0
 8006b18:	d102      	bne.n	8006b20 <setvbuf+0x20>
 8006b1a:	0030      	movs	r0, r6
 8006b1c:	f000 fa60 	bl	8006fe0 <__sinit>
 8006b20:	4b49      	ldr	r3, [pc, #292]	; (8006c48 <setvbuf+0x148>)
 8006b22:	429c      	cmp	r4, r3
 8006b24:	d150      	bne.n	8006bc8 <setvbuf+0xc8>
 8006b26:	6874      	ldr	r4, [r6, #4]
 8006b28:	9b00      	ldr	r3, [sp, #0]
 8006b2a:	2b02      	cmp	r3, #2
 8006b2c:	d005      	beq.n	8006b3a <setvbuf+0x3a>
 8006b2e:	2b01      	cmp	r3, #1
 8006b30:	d900      	bls.n	8006b34 <setvbuf+0x34>
 8006b32:	e084      	b.n	8006c3e <setvbuf+0x13e>
 8006b34:	2d00      	cmp	r5, #0
 8006b36:	da00      	bge.n	8006b3a <setvbuf+0x3a>
 8006b38:	e081      	b.n	8006c3e <setvbuf+0x13e>
 8006b3a:	0021      	movs	r1, r4
 8006b3c:	0030      	movs	r0, r6
 8006b3e:	f000 f9e1 	bl	8006f04 <_fflush_r>
 8006b42:	6b61      	ldr	r1, [r4, #52]	; 0x34
 8006b44:	2900      	cmp	r1, #0
 8006b46:	d008      	beq.n	8006b5a <setvbuf+0x5a>
 8006b48:	0023      	movs	r3, r4
 8006b4a:	3344      	adds	r3, #68	; 0x44
 8006b4c:	4299      	cmp	r1, r3
 8006b4e:	d002      	beq.n	8006b56 <setvbuf+0x56>
 8006b50:	0030      	movs	r0, r6
 8006b52:	f000 fb4f 	bl	80071f4 <_free_r>
 8006b56:	2300      	movs	r3, #0
 8006b58:	6363      	str	r3, [r4, #52]	; 0x34
 8006b5a:	2300      	movs	r3, #0
 8006b5c:	61a3      	str	r3, [r4, #24]
 8006b5e:	6063      	str	r3, [r4, #4]
 8006b60:	89a3      	ldrh	r3, [r4, #12]
 8006b62:	061b      	lsls	r3, r3, #24
 8006b64:	d503      	bpl.n	8006b6e <setvbuf+0x6e>
 8006b66:	6921      	ldr	r1, [r4, #16]
 8006b68:	0030      	movs	r0, r6
 8006b6a:	f000 fb43 	bl	80071f4 <_free_r>
 8006b6e:	89a3      	ldrh	r3, [r4, #12]
 8006b70:	4a36      	ldr	r2, [pc, #216]	; (8006c4c <setvbuf+0x14c>)
 8006b72:	4013      	ands	r3, r2
 8006b74:	81a3      	strh	r3, [r4, #12]
 8006b76:	9b00      	ldr	r3, [sp, #0]
 8006b78:	2b02      	cmp	r3, #2
 8006b7a:	d05a      	beq.n	8006c32 <setvbuf+0x132>
 8006b7c:	ab03      	add	r3, sp, #12
 8006b7e:	aa02      	add	r2, sp, #8
 8006b80:	0021      	movs	r1, r4
 8006b82:	0030      	movs	r0, r6
 8006b84:	f000 fac0 	bl	8007108 <__swhatbuf_r>
 8006b88:	89a3      	ldrh	r3, [r4, #12]
 8006b8a:	4318      	orrs	r0, r3
 8006b8c:	81a0      	strh	r0, [r4, #12]
 8006b8e:	2d00      	cmp	r5, #0
 8006b90:	d124      	bne.n	8006bdc <setvbuf+0xdc>
 8006b92:	9d02      	ldr	r5, [sp, #8]
 8006b94:	0028      	movs	r0, r5
 8006b96:	f000 fb23 	bl	80071e0 <malloc>
 8006b9a:	9501      	str	r5, [sp, #4]
 8006b9c:	1e07      	subs	r7, r0, #0
 8006b9e:	d142      	bne.n	8006c26 <setvbuf+0x126>
 8006ba0:	9b02      	ldr	r3, [sp, #8]
 8006ba2:	9301      	str	r3, [sp, #4]
 8006ba4:	42ab      	cmp	r3, r5
 8006ba6:	d139      	bne.n	8006c1c <setvbuf+0x11c>
 8006ba8:	2001      	movs	r0, #1
 8006baa:	4240      	negs	r0, r0
 8006bac:	2302      	movs	r3, #2
 8006bae:	89a2      	ldrh	r2, [r4, #12]
 8006bb0:	4313      	orrs	r3, r2
 8006bb2:	81a3      	strh	r3, [r4, #12]
 8006bb4:	2300      	movs	r3, #0
 8006bb6:	60a3      	str	r3, [r4, #8]
 8006bb8:	0023      	movs	r3, r4
 8006bba:	3347      	adds	r3, #71	; 0x47
 8006bbc:	6023      	str	r3, [r4, #0]
 8006bbe:	6123      	str	r3, [r4, #16]
 8006bc0:	2301      	movs	r3, #1
 8006bc2:	6163      	str	r3, [r4, #20]
 8006bc4:	b005      	add	sp, #20
 8006bc6:	bdf0      	pop	{r4, r5, r6, r7, pc}
 8006bc8:	4b21      	ldr	r3, [pc, #132]	; (8006c50 <setvbuf+0x150>)
 8006bca:	429c      	cmp	r4, r3
 8006bcc:	d101      	bne.n	8006bd2 <setvbuf+0xd2>
 8006bce:	68b4      	ldr	r4, [r6, #8]
 8006bd0:	e7aa      	b.n	8006b28 <setvbuf+0x28>
 8006bd2:	4b20      	ldr	r3, [pc, #128]	; (8006c54 <setvbuf+0x154>)
 8006bd4:	429c      	cmp	r4, r3
 8006bd6:	d1a7      	bne.n	8006b28 <setvbuf+0x28>
 8006bd8:	68f4      	ldr	r4, [r6, #12]
 8006bda:	e7a5      	b.n	8006b28 <setvbuf+0x28>
 8006bdc:	2f00      	cmp	r7, #0
 8006bde:	d0d9      	beq.n	8006b94 <setvbuf+0x94>
 8006be0:	69b3      	ldr	r3, [r6, #24]
 8006be2:	2b00      	cmp	r3, #0
 8006be4:	d102      	bne.n	8006bec <setvbuf+0xec>
 8006be6:	0030      	movs	r0, r6
 8006be8:	f000 f9fa 	bl	8006fe0 <__sinit>
 8006bec:	9b00      	ldr	r3, [sp, #0]
 8006bee:	2b01      	cmp	r3, #1
 8006bf0:	d103      	bne.n	8006bfa <setvbuf+0xfa>
 8006bf2:	89a3      	ldrh	r3, [r4, #12]
 8006bf4:	9a00      	ldr	r2, [sp, #0]
 8006bf6:	431a      	orrs	r2, r3
 8006bf8:	81a2      	strh	r2, [r4, #12]
 8006bfa:	2008      	movs	r0, #8
 8006bfc:	89a3      	ldrh	r3, [r4, #12]
 8006bfe:	6027      	str	r7, [r4, #0]
 8006c00:	6127      	str	r7, [r4, #16]
 8006c02:	6165      	str	r5, [r4, #20]
 8006c04:	4018      	ands	r0, r3
 8006c06:	d018      	beq.n	8006c3a <setvbuf+0x13a>
 8006c08:	2001      	movs	r0, #1
 8006c0a:	4018      	ands	r0, r3
 8006c0c:	2300      	movs	r3, #0
 8006c0e:	4298      	cmp	r0, r3
 8006c10:	d011      	beq.n	8006c36 <setvbuf+0x136>
 8006c12:	426d      	negs	r5, r5
 8006c14:	60a3      	str	r3, [r4, #8]
 8006c16:	61a5      	str	r5, [r4, #24]
 8006c18:	0018      	movs	r0, r3
 8006c1a:	e7d3      	b.n	8006bc4 <setvbuf+0xc4>
 8006c1c:	9801      	ldr	r0, [sp, #4]
 8006c1e:	f000 fadf 	bl	80071e0 <malloc>
 8006c22:	1e07      	subs	r7, r0, #0
 8006c24:	d0c0      	beq.n	8006ba8 <setvbuf+0xa8>
 8006c26:	2380      	movs	r3, #128	; 0x80
 8006c28:	89a2      	ldrh	r2, [r4, #12]
 8006c2a:	9d01      	ldr	r5, [sp, #4]
 8006c2c:	4313      	orrs	r3, r2
 8006c2e:	81a3      	strh	r3, [r4, #12]
 8006c30:	e7d6      	b.n	8006be0 <setvbuf+0xe0>
 8006c32:	2000      	movs	r0, #0
 8006c34:	e7ba      	b.n	8006bac <setvbuf+0xac>
 8006c36:	60a5      	str	r5, [r4, #8]
 8006c38:	e7c4      	b.n	8006bc4 <setvbuf+0xc4>
 8006c3a:	60a0      	str	r0, [r4, #8]
 8006c3c:	e7c2      	b.n	8006bc4 <setvbuf+0xc4>
 8006c3e:	2001      	movs	r0, #1
 8006c40:	4240      	negs	r0, r0
 8006c42:	e7bf      	b.n	8006bc4 <setvbuf+0xc4>
 8006c44:	20000010 	.word	0x20000010
 8006c48:	08007f04 	.word	0x08007f04
 8006c4c:	fffff35c 	.word	0xfffff35c
 8006c50:	08007f24 	.word	0x08007f24
 8006c54:	08007ee4 	.word	0x08007ee4

08006c58 <__swbuf_r>:
 8006c58:	b5f8      	push	{r3, r4, r5, r6, r7, lr}
 8006c5a:	0005      	movs	r5, r0
 8006c5c:	000e      	movs	r6, r1
 8006c5e:	0014      	movs	r4, r2
 8006c60:	2800      	cmp	r0, #0
 8006c62:	d004      	beq.n	8006c6e <__swbuf_r+0x16>
 8006c64:	6983      	ldr	r3, [r0, #24]
 8006c66:	2b00      	cmp	r3, #0
 8006c68:	d101      	bne.n	8006c6e <__swbuf_r+0x16>
 8006c6a:	f000 f9b9 	bl	8006fe0 <__sinit>
 8006c6e:	4b22      	ldr	r3, [pc, #136]	; (8006cf8 <__swbuf_r+0xa0>)
 8006c70:	429c      	cmp	r4, r3
 8006c72:	d12d      	bne.n	8006cd0 <__swbuf_r+0x78>
 8006c74:	686c      	ldr	r4, [r5, #4]
 8006c76:	69a3      	ldr	r3, [r4, #24]
 8006c78:	60a3      	str	r3, [r4, #8]
 8006c7a:	89a3      	ldrh	r3, [r4, #12]
 8006c7c:	071b      	lsls	r3, r3, #28
 8006c7e:	d531      	bpl.n	8006ce4 <__swbuf_r+0x8c>
 8006c80:	6923      	ldr	r3, [r4, #16]
 8006c82:	2b00      	cmp	r3, #0
 8006c84:	d02e      	beq.n	8006ce4 <__swbuf_r+0x8c>
 8006c86:	6823      	ldr	r3, [r4, #0]
 8006c88:	6922      	ldr	r2, [r4, #16]
 8006c8a:	b2f7      	uxtb	r7, r6
 8006c8c:	1a98      	subs	r0, r3, r2
 8006c8e:	6963      	ldr	r3, [r4, #20]
 8006c90:	b2f6      	uxtb	r6, r6
 8006c92:	4283      	cmp	r3, r0
 8006c94:	dc05      	bgt.n	8006ca2 <__swbuf_r+0x4a>
 8006c96:	0021      	movs	r1, r4
 8006c98:	0028      	movs	r0, r5
 8006c9a:	f000 f933 	bl	8006f04 <_fflush_r>
 8006c9e:	2800      	cmp	r0, #0
 8006ca0:	d126      	bne.n	8006cf0 <__swbuf_r+0x98>
 8006ca2:	68a3      	ldr	r3, [r4, #8]
 8006ca4:	3001      	adds	r0, #1
 8006ca6:	3b01      	subs	r3, #1
 8006ca8:	60a3      	str	r3, [r4, #8]
 8006caa:	6823      	ldr	r3, [r4, #0]
 8006cac:	1c5a      	adds	r2, r3, #1
 8006cae:	6022      	str	r2, [r4, #0]
 8006cb0:	701f      	strb	r7, [r3, #0]
 8006cb2:	6963      	ldr	r3, [r4, #20]
 8006cb4:	4283      	cmp	r3, r0
 8006cb6:	d004      	beq.n	8006cc2 <__swbuf_r+0x6a>
 8006cb8:	89a3      	ldrh	r3, [r4, #12]
 8006cba:	07db      	lsls	r3, r3, #31
 8006cbc:	d51a      	bpl.n	8006cf4 <__swbuf_r+0x9c>
 8006cbe:	2e0a      	cmp	r6, #10
 8006cc0:	d118      	bne.n	8006cf4 <__swbuf_r+0x9c>
 8006cc2:	0021      	movs	r1, r4
 8006cc4:	0028      	movs	r0, r5
 8006cc6:	f000 f91d 	bl	8006f04 <_fflush_r>
 8006cca:	2800      	cmp	r0, #0
 8006ccc:	d012      	beq.n	8006cf4 <__swbuf_r+0x9c>
 8006cce:	e00f      	b.n	8006cf0 <__swbuf_r+0x98>
 8006cd0:	4b0a      	ldr	r3, [pc, #40]	; (8006cfc <__swbuf_r+0xa4>)
 8006cd2:	429c      	cmp	r4, r3
 8006cd4:	d101      	bne.n	8006cda <__swbuf_r+0x82>
 8006cd6:	68ac      	ldr	r4, [r5, #8]
 8006cd8:	e7cd      	b.n	8006c76 <__swbuf_r+0x1e>
 8006cda:	4b09      	ldr	r3, [pc, #36]	; (8006d00 <__swbuf_r+0xa8>)
 8006cdc:	429c      	cmp	r4, r3
 8006cde:	d1ca      	bne.n	8006c76 <__swbuf_r+0x1e>
 8006ce0:	68ec      	ldr	r4, [r5, #12]
 8006ce2:	e7c8      	b.n	8006c76 <__swbuf_r+0x1e>
 8006ce4:	0021      	movs	r1, r4
 8006ce6:	0028      	movs	r0, r5
 8006ce8:	f000 f80c 	bl	8006d04 <__swsetup_r>
 8006cec:	2800      	cmp	r0, #0
 8006cee:	d0ca      	beq.n	8006c86 <__swbuf_r+0x2e>
 8006cf0:	2601      	movs	r6, #1
 8006cf2:	4276      	negs	r6, r6
 8006cf4:	0030      	movs	r0, r6
 8006cf6:	bdf8      	pop	{r3, r4, r5, r6, r7, pc}
 8006cf8:	08007f04 	.word	0x08007f04
 8006cfc:	08007f24 	.word	0x08007f24
 8006d00:	08007ee4 	.word	0x08007ee4

08006d04 <__swsetup_r>:
 8006d04:	4b36      	ldr	r3, [pc, #216]	; (8006de0 <__swsetup_r+0xdc>)
 8006d06:	b570      	push	{r4, r5, r6, lr}
 8006d08:	681d      	ldr	r5, [r3, #0]
 8006d0a:	0006      	movs	r6, r0
 8006d0c:	000c      	movs	r4, r1
 8006d0e:	2d00      	cmp	r5, #0
 8006d10:	d005      	beq.n	8006d1e <__swsetup_r+0x1a>
 8006d12:	69ab      	ldr	r3, [r5, #24]
 8006d14:	2b00      	cmp	r3, #0
 8006d16:	d102      	bne.n	8006d1e <__swsetup_r+0x1a>
 8006d18:	0028      	movs	r0, r5
 8006d1a:	f000 f961 	bl	8006fe0 <__sinit>
 8006d1e:	4b31      	ldr	r3, [pc, #196]	; (8006de4 <__swsetup_r+0xe0>)
 8006d20:	429c      	cmp	r4, r3
 8006d22:	d10f      	bne.n	8006d44 <__swsetup_r+0x40>
 8006d24:	686c      	ldr	r4, [r5, #4]
 8006d26:	230c      	movs	r3, #12
 8006d28:	5ee2      	ldrsh	r2, [r4, r3]
 8006d2a:	b293      	uxth	r3, r2
 8006d2c:	0719      	lsls	r1, r3, #28
 8006d2e:	d42d      	bmi.n	8006d8c <__swsetup_r+0x88>
 8006d30:	06d9      	lsls	r1, r3, #27
 8006d32:	d411      	bmi.n	8006d58 <__swsetup_r+0x54>
 8006d34:	2309      	movs	r3, #9
 8006d36:	2001      	movs	r0, #1
 8006d38:	6033      	str	r3, [r6, #0]
 8006d3a:	3337      	adds	r3, #55	; 0x37
 8006d3c:	4313      	orrs	r3, r2
 8006d3e:	81a3      	strh	r3, [r4, #12]
 8006d40:	4240      	negs	r0, r0
 8006d42:	bd70      	pop	{r4, r5, r6, pc}
 8006d44:	4b28      	ldr	r3, [pc, #160]	; (8006de8 <__swsetup_r+0xe4>)
 8006d46:	429c      	cmp	r4, r3
 8006d48:	d101      	bne.n	8006d4e <__swsetup_r+0x4a>
 8006d4a:	68ac      	ldr	r4, [r5, #8]
 8006d4c:	e7eb      	b.n	8006d26 <__swsetup_r+0x22>
 8006d4e:	4b27      	ldr	r3, [pc, #156]	; (8006dec <__swsetup_r+0xe8>)
 8006d50:	429c      	cmp	r4, r3
 8006d52:	d1e8      	bne.n	8006d26 <__swsetup_r+0x22>
 8006d54:	68ec      	ldr	r4, [r5, #12]
 8006d56:	e7e6      	b.n	8006d26 <__swsetup_r+0x22>
 8006d58:	075b      	lsls	r3, r3, #29
 8006d5a:	d513      	bpl.n	8006d84 <__swsetup_r+0x80>
 8006d5c:	6b61      	ldr	r1, [r4, #52]	; 0x34
 8006d5e:	2900      	cmp	r1, #0
 8006d60:	d008      	beq.n	8006d74 <__swsetup_r+0x70>
 8006d62:	0023      	movs	r3, r4
 8006d64:	3344      	adds	r3, #68	; 0x44
 8006d66:	4299      	cmp	r1, r3
 8006d68:	d002      	beq.n	8006d70 <__swsetup_r+0x6c>
 8006d6a:	0030      	movs	r0, r6
 8006d6c:	f000 fa42 	bl	80071f4 <_free_r>
 8006d70:	2300      	movs	r3, #0
 8006d72:	6363      	str	r3, [r4, #52]	; 0x34
 8006d74:	2224      	movs	r2, #36	; 0x24
 8006d76:	89a3      	ldrh	r3, [r4, #12]
 8006d78:	4393      	bics	r3, r2
 8006d7a:	81a3      	strh	r3, [r4, #12]
 8006d7c:	2300      	movs	r3, #0
 8006d7e:	6063      	str	r3, [r4, #4]
 8006d80:	6923      	ldr	r3, [r4, #16]
 8006d82:	6023      	str	r3, [r4, #0]
 8006d84:	2308      	movs	r3, #8
 8006d86:	89a2      	ldrh	r2, [r4, #12]
 8006d88:	4313      	orrs	r3, r2
 8006d8a:	81a3      	strh	r3, [r4, #12]
 8006d8c:	6923      	ldr	r3, [r4, #16]
 8006d8e:	2b00      	cmp	r3, #0
 8006d90:	d10b      	bne.n	8006daa <__swsetup_r+0xa6>
 8006d92:	21a0      	movs	r1, #160	; 0xa0
 8006d94:	2280      	movs	r2, #128	; 0x80
 8006d96:	89a3      	ldrh	r3, [r4, #12]
 8006d98:	0089      	lsls	r1, r1, #2
 8006d9a:	0092      	lsls	r2, r2, #2
 8006d9c:	400b      	ands	r3, r1
 8006d9e:	4293      	cmp	r3, r2
 8006da0:	d003      	beq.n	8006daa <__swsetup_r+0xa6>
 8006da2:	0021      	movs	r1, r4
 8006da4:	0030      	movs	r0, r6
 8006da6:	f000 f9d7 	bl	8007158 <__smakebuf_r>
 8006daa:	2301      	movs	r3, #1
 8006dac:	89a2      	ldrh	r2, [r4, #12]
 8006dae:	4013      	ands	r3, r2
 8006db0:	d011      	beq.n	8006dd6 <__swsetup_r+0xd2>
 8006db2:	2300      	movs	r3, #0
 8006db4:	60a3      	str	r3, [r4, #8]
 8006db6:	6963      	ldr	r3, [r4, #20]
 8006db8:	425b      	negs	r3, r3
 8006dba:	61a3      	str	r3, [r4, #24]
 8006dbc:	2000      	movs	r0, #0
 8006dbe:	6923      	ldr	r3, [r4, #16]
 8006dc0:	4283      	cmp	r3, r0
 8006dc2:	d1be      	bne.n	8006d42 <__swsetup_r+0x3e>
 8006dc4:	230c      	movs	r3, #12
 8006dc6:	5ee2      	ldrsh	r2, [r4, r3]
 8006dc8:	0613      	lsls	r3, r2, #24
 8006dca:	d5ba      	bpl.n	8006d42 <__swsetup_r+0x3e>
 8006dcc:	2340      	movs	r3, #64	; 0x40
 8006dce:	4313      	orrs	r3, r2
 8006dd0:	81a3      	strh	r3, [r4, #12]
 8006dd2:	3801      	subs	r0, #1
 8006dd4:	e7b5      	b.n	8006d42 <__swsetup_r+0x3e>
 8006dd6:	0792      	lsls	r2, r2, #30
 8006dd8:	d400      	bmi.n	8006ddc <__swsetup_r+0xd8>
 8006dda:	6963      	ldr	r3, [r4, #20]
 8006ddc:	60a3      	str	r3, [r4, #8]
 8006dde:	e7ed      	b.n	8006dbc <__swsetup_r+0xb8>
 8006de0:	20000010 	.word	0x20000010
 8006de4:	08007f04 	.word	0x08007f04
 8006de8:	08007f24 	.word	0x08007f24
 8006dec:	08007ee4 	.word	0x08007ee4

08006df0 <__sflush_r>:
 8006df0:	b5f7      	push	{r0, r1, r2, r4, r5, r6, r7, lr}
 8006df2:	898a      	ldrh	r2, [r1, #12]
 8006df4:	0005      	movs	r5, r0
 8006df6:	000c      	movs	r4, r1
 8006df8:	0713      	lsls	r3, r2, #28
 8006dfa:	d460      	bmi.n	8006ebe <__sflush_r+0xce>
 8006dfc:	684b      	ldr	r3, [r1, #4]
 8006dfe:	2b00      	cmp	r3, #0
 8006e00:	dc04      	bgt.n	8006e0c <__sflush_r+0x1c>
 8006e02:	6c0b      	ldr	r3, [r1, #64]	; 0x40
 8006e04:	2b00      	cmp	r3, #0
 8006e06:	dc01      	bgt.n	8006e0c <__sflush_r+0x1c>
 8006e08:	2000      	movs	r0, #0
 8006e0a:	bdfe      	pop	{r1, r2, r3, r4, r5, r6, r7, pc}
 8006e0c:	6ae7      	ldr	r7, [r4, #44]	; 0x2c
 8006e0e:	2f00      	cmp	r7, #0
 8006e10:	d0fa      	beq.n	8006e08 <__sflush_r+0x18>
 8006e12:	2300      	movs	r3, #0
 8006e14:	682e      	ldr	r6, [r5, #0]
 8006e16:	602b      	str	r3, [r5, #0]
 8006e18:	2380      	movs	r3, #128	; 0x80
 8006e1a:	015b      	lsls	r3, r3, #5
 8006e1c:	6a21      	ldr	r1, [r4, #32]
 8006e1e:	401a      	ands	r2, r3
 8006e20:	d034      	beq.n	8006e8c <__sflush_r+0x9c>
 8006e22:	6d60      	ldr	r0, [r4, #84]	; 0x54
 8006e24:	89a3      	ldrh	r3, [r4, #12]
 8006e26:	075b      	lsls	r3, r3, #29
 8006e28:	d506      	bpl.n	8006e38 <__sflush_r+0x48>
 8006e2a:	6863      	ldr	r3, [r4, #4]
 8006e2c:	1ac0      	subs	r0, r0, r3
 8006e2e:	6b63      	ldr	r3, [r4, #52]	; 0x34
 8006e30:	2b00      	cmp	r3, #0
 8006e32:	d001      	beq.n	8006e38 <__sflush_r+0x48>
 8006e34:	6c23      	ldr	r3, [r4, #64]	; 0x40
 8006e36:	1ac0      	subs	r0, r0, r3
 8006e38:	0002      	movs	r2, r0
 8006e3a:	6a21      	ldr	r1, [r4, #32]
 8006e3c:	2300      	movs	r3, #0
 8006e3e:	0028      	movs	r0, r5
 8006e40:	6ae7      	ldr	r7, [r4, #44]	; 0x2c
 8006e42:	47b8      	blx	r7
 8006e44:	89a1      	ldrh	r1, [r4, #12]
 8006e46:	1c43      	adds	r3, r0, #1
 8006e48:	d106      	bne.n	8006e58 <__sflush_r+0x68>
 8006e4a:	682b      	ldr	r3, [r5, #0]
 8006e4c:	2b1d      	cmp	r3, #29
 8006e4e:	d830      	bhi.n	8006eb2 <__sflush_r+0xc2>
 8006e50:	4a2b      	ldr	r2, [pc, #172]	; (8006f00 <__sflush_r+0x110>)
 8006e52:	40da      	lsrs	r2, r3
 8006e54:	07d3      	lsls	r3, r2, #31
 8006e56:	d52c      	bpl.n	8006eb2 <__sflush_r+0xc2>
 8006e58:	2300      	movs	r3, #0
 8006e5a:	6063      	str	r3, [r4, #4]
 8006e5c:	6923      	ldr	r3, [r4, #16]
 8006e5e:	6023      	str	r3, [r4, #0]
 8006e60:	04cb      	lsls	r3, r1, #19
 8006e62:	d505      	bpl.n	8006e70 <__sflush_r+0x80>
 8006e64:	1c43      	adds	r3, r0, #1
 8006e66:	d102      	bne.n	8006e6e <__sflush_r+0x7e>
 8006e68:	682b      	ldr	r3, [r5, #0]
 8006e6a:	2b00      	cmp	r3, #0
 8006e6c:	d100      	bne.n	8006e70 <__sflush_r+0x80>
 8006e6e:	6560      	str	r0, [r4, #84]	; 0x54
 8006e70:	6b61      	ldr	r1, [r4, #52]	; 0x34
 8006e72:	602e      	str	r6, [r5, #0]
 8006e74:	2900      	cmp	r1, #0
 8006e76:	d0c7      	beq.n	8006e08 <__sflush_r+0x18>
 8006e78:	0023      	movs	r3, r4
 8006e7a:	3344      	adds	r3, #68	; 0x44
 8006e7c:	4299      	cmp	r1, r3
 8006e7e:	d002      	beq.n	8006e86 <__sflush_r+0x96>
 8006e80:	0028      	movs	r0, r5
 8006e82:	f000 f9b7 	bl	80071f4 <_free_r>
 8006e86:	2000      	movs	r0, #0
 8006e88:	6360      	str	r0, [r4, #52]	; 0x34
 8006e8a:	e7be      	b.n	8006e0a <__sflush_r+0x1a>
 8006e8c:	2301      	movs	r3, #1
 8006e8e:	0028      	movs	r0, r5
 8006e90:	47b8      	blx	r7
 8006e92:	1c43      	adds	r3, r0, #1
 8006e94:	d1c6      	bne.n	8006e24 <__sflush_r+0x34>
 8006e96:	682b      	ldr	r3, [r5, #0]
 8006e98:	2b00      	cmp	r3, #0
 8006e9a:	d0c3      	beq.n	8006e24 <__sflush_r+0x34>
 8006e9c:	2b1d      	cmp	r3, #29
 8006e9e:	d001      	beq.n	8006ea4 <__sflush_r+0xb4>
 8006ea0:	2b16      	cmp	r3, #22
 8006ea2:	d101      	bne.n	8006ea8 <__sflush_r+0xb8>
 8006ea4:	602e      	str	r6, [r5, #0]
 8006ea6:	e7af      	b.n	8006e08 <__sflush_r+0x18>
 8006ea8:	2340      	movs	r3, #64	; 0x40
 8006eaa:	89a2      	ldrh	r2, [r4, #12]
 8006eac:	4313      	orrs	r3, r2
 8006eae:	81a3      	strh	r3, [r4, #12]
 8006eb0:	e7ab      	b.n	8006e0a <__sflush_r+0x1a>
 8006eb2:	2340      	movs	r3, #64	; 0x40
 8006eb4:	430b      	orrs	r3, r1
 8006eb6:	2001      	movs	r0, #1
 8006eb8:	81a3      	strh	r3, [r4, #12]
 8006eba:	4240      	negs	r0, r0
 8006ebc:	e7a5      	b.n	8006e0a <__sflush_r+0x1a>
 8006ebe:	690f      	ldr	r7, [r1, #16]
 8006ec0:	2f00      	cmp	r7, #0
 8006ec2:	d0a1      	beq.n	8006e08 <__sflush_r+0x18>
 8006ec4:	680b      	ldr	r3, [r1, #0]
 8006ec6:	600f      	str	r7, [r1, #0]
 8006ec8:	1bdb      	subs	r3, r3, r7
 8006eca:	9301      	str	r3, [sp, #4]
 8006ecc:	2300      	movs	r3, #0
 8006ece:	0792      	lsls	r2, r2, #30
 8006ed0:	d100      	bne.n	8006ed4 <__sflush_r+0xe4>
 8006ed2:	694b      	ldr	r3, [r1, #20]
 8006ed4:	60a3      	str	r3, [r4, #8]
 8006ed6:	9b01      	ldr	r3, [sp, #4]
 8006ed8:	2b00      	cmp	r3, #0
 8006eda:	dc00      	bgt.n	8006ede <__sflush_r+0xee>
 8006edc:	e794      	b.n	8006e08 <__sflush_r+0x18>
 8006ede:	9b01      	ldr	r3, [sp, #4]
 8006ee0:	003a      	movs	r2, r7
 8006ee2:	6a21      	ldr	r1, [r4, #32]
 8006ee4:	0028      	movs	r0, r5
 8006ee6:	6aa6      	ldr	r6, [r4, #40]	; 0x28
 8006ee8:	47b0      	blx	r6
 8006eea:	2800      	cmp	r0, #0
 8006eec:	dc03      	bgt.n	8006ef6 <__sflush_r+0x106>
 8006eee:	2340      	movs	r3, #64	; 0x40
 8006ef0:	89a2      	ldrh	r2, [r4, #12]
 8006ef2:	4313      	orrs	r3, r2
 8006ef4:	e7df      	b.n	8006eb6 <__sflush_r+0xc6>
 8006ef6:	9b01      	ldr	r3, [sp, #4]
 8006ef8:	183f      	adds	r7, r7, r0
 8006efa:	1a1b      	subs	r3, r3, r0
 8006efc:	9301      	str	r3, [sp, #4]
 8006efe:	e7ea      	b.n	8006ed6 <__sflush_r+0xe6>
 8006f00:	20400001 	.word	0x20400001

08006f04 <_fflush_r>:
 8006f04:	690b      	ldr	r3, [r1, #16]
 8006f06:	b570      	push	{r4, r5, r6, lr}
 8006f08:	0005      	movs	r5, r0
 8006f0a:	000c      	movs	r4, r1
 8006f0c:	2b00      	cmp	r3, #0
 8006f0e:	d101      	bne.n	8006f14 <_fflush_r+0x10>
 8006f10:	2000      	movs	r0, #0
 8006f12:	bd70      	pop	{r4, r5, r6, pc}
 8006f14:	2800      	cmp	r0, #0
 8006f16:	d004      	beq.n	8006f22 <_fflush_r+0x1e>
 8006f18:	6983      	ldr	r3, [r0, #24]
 8006f1a:	2b00      	cmp	r3, #0
 8006f1c:	d101      	bne.n	8006f22 <_fflush_r+0x1e>
 8006f1e:	f000 f85f 	bl	8006fe0 <__sinit>
 8006f22:	4b0b      	ldr	r3, [pc, #44]	; (8006f50 <_fflush_r+0x4c>)
 8006f24:	429c      	cmp	r4, r3
 8006f26:	d109      	bne.n	8006f3c <_fflush_r+0x38>
 8006f28:	686c      	ldr	r4, [r5, #4]
 8006f2a:	220c      	movs	r2, #12
 8006f2c:	5ea3      	ldrsh	r3, [r4, r2]
 8006f2e:	2b00      	cmp	r3, #0
 8006f30:	d0ee      	beq.n	8006f10 <_fflush_r+0xc>
 8006f32:	0021      	movs	r1, r4
 8006f34:	0028      	movs	r0, r5
 8006f36:	f7ff ff5b 	bl	8006df0 <__sflush_r>
 8006f3a:	e7ea      	b.n	8006f12 <_fflush_r+0xe>
 8006f3c:	4b05      	ldr	r3, [pc, #20]	; (8006f54 <_fflush_r+0x50>)
 8006f3e:	429c      	cmp	r4, r3
 8006f40:	d101      	bne.n	8006f46 <_fflush_r+0x42>
 8006f42:	68ac      	ldr	r4, [r5, #8]
 8006f44:	e7f1      	b.n	8006f2a <_fflush_r+0x26>
 8006f46:	4b04      	ldr	r3, [pc, #16]	; (8006f58 <_fflush_r+0x54>)
 8006f48:	429c      	cmp	r4, r3
 8006f4a:	d1ee      	bne.n	8006f2a <_fflush_r+0x26>
 8006f4c:	68ec      	ldr	r4, [r5, #12]
 8006f4e:	e7ec      	b.n	8006f2a <_fflush_r+0x26>
 8006f50:	08007f04 	.word	0x08007f04
 8006f54:	08007f24 	.word	0x08007f24
 8006f58:	08007ee4 	.word	0x08007ee4

08006f5c <std>:
 8006f5c:	2300      	movs	r3, #0
 8006f5e:	b510      	push	{r4, lr}
 8006f60:	0004      	movs	r4, r0
 8006f62:	6003      	str	r3, [r0, #0]
 8006f64:	6043      	str	r3, [r0, #4]
 8006f66:	6083      	str	r3, [r0, #8]
 8006f68:	8181      	strh	r1, [r0, #12]
 8006f6a:	6643      	str	r3, [r0, #100]	; 0x64
 8006f6c:	81c2      	strh	r2, [r0, #14]
 8006f6e:	6103      	str	r3, [r0, #16]
 8006f70:	6143      	str	r3, [r0, #20]
 8006f72:	6183      	str	r3, [r0, #24]
 8006f74:	0019      	movs	r1, r3
 8006f76:	2208      	movs	r2, #8
 8006f78:	305c      	adds	r0, #92	; 0x5c
 8006f7a:	f7ff fd21 	bl	80069c0 <memset>
 8006f7e:	4b05      	ldr	r3, [pc, #20]	; (8006f94 <std+0x38>)
 8006f80:	6224      	str	r4, [r4, #32]
 8006f82:	6263      	str	r3, [r4, #36]	; 0x24
 8006f84:	4b04      	ldr	r3, [pc, #16]	; (8006f98 <std+0x3c>)
 8006f86:	62a3      	str	r3, [r4, #40]	; 0x28
 8006f88:	4b04      	ldr	r3, [pc, #16]	; (8006f9c <std+0x40>)
 8006f8a:	62e3      	str	r3, [r4, #44]	; 0x2c
 8006f8c:	4b04      	ldr	r3, [pc, #16]	; (8006fa0 <std+0x44>)
 8006f8e:	6323      	str	r3, [r4, #48]	; 0x30
 8006f90:	bd10      	pop	{r4, pc}
 8006f92:	46c0      	nop			; (mov r8, r8)
 8006f94:	0800793d 	.word	0x0800793d
 8006f98:	08007965 	.word	0x08007965
 8006f9c:	0800799d 	.word	0x0800799d
 8006fa0:	080079c9 	.word	0x080079c9

08006fa4 <_cleanup_r>:
 8006fa4:	b510      	push	{r4, lr}
 8006fa6:	4902      	ldr	r1, [pc, #8]	; (8006fb0 <_cleanup_r+0xc>)
 8006fa8:	f000 f88c 	bl	80070c4 <_fwalk_reent>
 8006fac:	bd10      	pop	{r4, pc}
 8006fae:	46c0      	nop			; (mov r8, r8)
 8006fb0:	08006f05 	.word	0x08006f05

08006fb4 <__sfmoreglue>:
 8006fb4:	b570      	push	{r4, r5, r6, lr}
 8006fb6:	2568      	movs	r5, #104	; 0x68
 8006fb8:	1e4a      	subs	r2, r1, #1
 8006fba:	4355      	muls	r5, r2
 8006fbc:	000e      	movs	r6, r1
 8006fbe:	0029      	movs	r1, r5
 8006fc0:	3174      	adds	r1, #116	; 0x74
 8006fc2:	f000 f961 	bl	8007288 <_malloc_r>
 8006fc6:	1e04      	subs	r4, r0, #0
 8006fc8:	d008      	beq.n	8006fdc <__sfmoreglue+0x28>
 8006fca:	2100      	movs	r1, #0
 8006fcc:	002a      	movs	r2, r5
 8006fce:	6001      	str	r1, [r0, #0]
 8006fd0:	6046      	str	r6, [r0, #4]
 8006fd2:	300c      	adds	r0, #12
 8006fd4:	60a0      	str	r0, [r4, #8]
 8006fd6:	3268      	adds	r2, #104	; 0x68
 8006fd8:	f7ff fcf2 	bl	80069c0 <memset>
 8006fdc:	0020      	movs	r0, r4
 8006fde:	bd70      	pop	{r4, r5, r6, pc}

08006fe0 <__sinit>:
 8006fe0:	6983      	ldr	r3, [r0, #24]
 8006fe2:	b513      	push	{r0, r1, r4, lr}
 8006fe4:	0004      	movs	r4, r0
 8006fe6:	2b00      	cmp	r3, #0
 8006fe8:	d128      	bne.n	800703c <__sinit+0x5c>
 8006fea:	6483      	str	r3, [r0, #72]	; 0x48
 8006fec:	64c3      	str	r3, [r0, #76]	; 0x4c
 8006fee:	6503      	str	r3, [r0, #80]	; 0x50
 8006ff0:	4b13      	ldr	r3, [pc, #76]	; (8007040 <__sinit+0x60>)
 8006ff2:	4a14      	ldr	r2, [pc, #80]	; (8007044 <__sinit+0x64>)
 8006ff4:	681b      	ldr	r3, [r3, #0]
 8006ff6:	6282      	str	r2, [r0, #40]	; 0x28
 8006ff8:	9301      	str	r3, [sp, #4]
 8006ffa:	4298      	cmp	r0, r3
 8006ffc:	d101      	bne.n	8007002 <__sinit+0x22>
 8006ffe:	2301      	movs	r3, #1
 8007000:	6183      	str	r3, [r0, #24]
 8007002:	0020      	movs	r0, r4
 8007004:	f000 f820 	bl	8007048 <__sfp>
 8007008:	6060      	str	r0, [r4, #4]
 800700a:	0020      	movs	r0, r4
 800700c:	f000 f81c 	bl	8007048 <__sfp>
 8007010:	60a0      	str	r0, [r4, #8]
 8007012:	0020      	movs	r0, r4
 8007014:	f000 f818 	bl	8007048 <__sfp>
 8007018:	2200      	movs	r2, #0
 800701a:	60e0      	str	r0, [r4, #12]
 800701c:	2104      	movs	r1, #4
 800701e:	6860      	ldr	r0, [r4, #4]
 8007020:	f7ff ff9c 	bl	8006f5c <std>
 8007024:	2201      	movs	r2, #1
 8007026:	2109      	movs	r1, #9
 8007028:	68a0      	ldr	r0, [r4, #8]
 800702a:	f7ff ff97 	bl	8006f5c <std>
 800702e:	2202      	movs	r2, #2
 8007030:	2112      	movs	r1, #18
 8007032:	68e0      	ldr	r0, [r4, #12]
 8007034:	f7ff ff92 	bl	8006f5c <std>
 8007038:	2301      	movs	r3, #1
 800703a:	61a3      	str	r3, [r4, #24]
 800703c:	bd13      	pop	{r0, r1, r4, pc}
 800703e:	46c0      	nop			; (mov r8, r8)
 8007040:	08007ee0 	.word	0x08007ee0
 8007044:	08006fa5 	.word	0x08006fa5

08007048 <__sfp>:
 8007048:	b5f8      	push	{r3, r4, r5, r6, r7, lr}
 800704a:	4b1c      	ldr	r3, [pc, #112]	; (80070bc <__sfp+0x74>)
 800704c:	0007      	movs	r7, r0
 800704e:	681e      	ldr	r6, [r3, #0]
 8007050:	69b3      	ldr	r3, [r6, #24]
 8007052:	2b00      	cmp	r3, #0
 8007054:	d102      	bne.n	800705c <__sfp+0x14>
 8007056:	0030      	movs	r0, r6
 8007058:	f7ff ffc2 	bl	8006fe0 <__sinit>
 800705c:	3648      	adds	r6, #72	; 0x48
 800705e:	68b4      	ldr	r4, [r6, #8]
 8007060:	6873      	ldr	r3, [r6, #4]
 8007062:	3b01      	subs	r3, #1
 8007064:	d504      	bpl.n	8007070 <__sfp+0x28>
 8007066:	6833      	ldr	r3, [r6, #0]
 8007068:	2b00      	cmp	r3, #0
 800706a:	d007      	beq.n	800707c <__sfp+0x34>
 800706c:	6836      	ldr	r6, [r6, #0]
 800706e:	e7f6      	b.n	800705e <__sfp+0x16>
 8007070:	220c      	movs	r2, #12
 8007072:	5ea5      	ldrsh	r5, [r4, r2]
 8007074:	2d00      	cmp	r5, #0
 8007076:	d00d      	beq.n	8007094 <__sfp+0x4c>
 8007078:	3468      	adds	r4, #104	; 0x68
 800707a:	e7f2      	b.n	8007062 <__sfp+0x1a>
 800707c:	2104      	movs	r1, #4
 800707e:	0038      	movs	r0, r7
 8007080:	f7ff ff98 	bl	8006fb4 <__sfmoreglue>
 8007084:	6030      	str	r0, [r6, #0]
 8007086:	2800      	cmp	r0, #0
 8007088:	d1f0      	bne.n	800706c <__sfp+0x24>
 800708a:	230c      	movs	r3, #12
 800708c:	0004      	movs	r4, r0
 800708e:	603b      	str	r3, [r7, #0]
 8007090:	0020      	movs	r0, r4
 8007092:	bdf8      	pop	{r3, r4, r5, r6, r7, pc}
 8007094:	0020      	movs	r0, r4
 8007096:	4b0a      	ldr	r3, [pc, #40]	; (80070c0 <__sfp+0x78>)
 8007098:	6665      	str	r5, [r4, #100]	; 0x64
 800709a:	6025      	str	r5, [r4, #0]
 800709c:	6065      	str	r5, [r4, #4]
 800709e:	60a5      	str	r5, [r4, #8]
 80070a0:	60e3      	str	r3, [r4, #12]
 80070a2:	6125      	str	r5, [r4, #16]
 80070a4:	6165      	str	r5, [r4, #20]
 80070a6:	61a5      	str	r5, [r4, #24]
 80070a8:	2208      	movs	r2, #8
 80070aa:	0029      	movs	r1, r5
 80070ac:	305c      	adds	r0, #92	; 0x5c
 80070ae:	f7ff fc87 	bl	80069c0 <memset>
 80070b2:	6365      	str	r5, [r4, #52]	; 0x34
 80070b4:	63a5      	str	r5, [r4, #56]	; 0x38
 80070b6:	64a5      	str	r5, [r4, #72]	; 0x48
 80070b8:	64e5      	str	r5, [r4, #76]	; 0x4c
 80070ba:	e7e9      	b.n	8007090 <__sfp+0x48>
 80070bc:	08007ee0 	.word	0x08007ee0
 80070c0:	ffff0001 	.word	0xffff0001

080070c4 <_fwalk_reent>:
 80070c4:	b5f7      	push	{r0, r1, r2, r4, r5, r6, r7, lr}
 80070c6:	0004      	movs	r4, r0
 80070c8:	0007      	movs	r7, r0
 80070ca:	2600      	movs	r6, #0
 80070cc:	9101      	str	r1, [sp, #4]
 80070ce:	3448      	adds	r4, #72	; 0x48
 80070d0:	2c00      	cmp	r4, #0
 80070d2:	d101      	bne.n	80070d8 <_fwalk_reent+0x14>
 80070d4:	0030      	movs	r0, r6
 80070d6:	bdfe      	pop	{r1, r2, r3, r4, r5, r6, r7, pc}
 80070d8:	6863      	ldr	r3, [r4, #4]
 80070da:	68a5      	ldr	r5, [r4, #8]
 80070dc:	9300      	str	r3, [sp, #0]
 80070de:	9b00      	ldr	r3, [sp, #0]
 80070e0:	3b01      	subs	r3, #1
 80070e2:	9300      	str	r3, [sp, #0]
 80070e4:	d501      	bpl.n	80070ea <_fwalk_reent+0x26>
 80070e6:	6824      	ldr	r4, [r4, #0]
 80070e8:	e7f2      	b.n	80070d0 <_fwalk_reent+0xc>
 80070ea:	89ab      	ldrh	r3, [r5, #12]
 80070ec:	2b01      	cmp	r3, #1
 80070ee:	d908      	bls.n	8007102 <_fwalk_reent+0x3e>
 80070f0:	220e      	movs	r2, #14
 80070f2:	5eab      	ldrsh	r3, [r5, r2]
 80070f4:	3301      	adds	r3, #1
 80070f6:	d004      	beq.n	8007102 <_fwalk_reent+0x3e>
 80070f8:	0029      	movs	r1, r5
 80070fa:	0038      	movs	r0, r7
 80070fc:	9b01      	ldr	r3, [sp, #4]
 80070fe:	4798      	blx	r3
 8007100:	4306      	orrs	r6, r0
 8007102:	3568      	adds	r5, #104	; 0x68
 8007104:	e7eb      	b.n	80070de <_fwalk_reent+0x1a>
	...

08007108 <__swhatbuf_r>:
 8007108:	b570      	push	{r4, r5, r6, lr}
 800710a:	000e      	movs	r6, r1
 800710c:	001d      	movs	r5, r3
 800710e:	230e      	movs	r3, #14
 8007110:	5ec9      	ldrsh	r1, [r1, r3]
 8007112:	b096      	sub	sp, #88	; 0x58
 8007114:	0014      	movs	r4, r2
 8007116:	2900      	cmp	r1, #0
 8007118:	da07      	bge.n	800712a <__swhatbuf_r+0x22>
 800711a:	2300      	movs	r3, #0
 800711c:	602b      	str	r3, [r5, #0]
 800711e:	89b3      	ldrh	r3, [r6, #12]
 8007120:	061b      	lsls	r3, r3, #24
 8007122:	d411      	bmi.n	8007148 <__swhatbuf_r+0x40>
 8007124:	2380      	movs	r3, #128	; 0x80
 8007126:	00db      	lsls	r3, r3, #3
 8007128:	e00f      	b.n	800714a <__swhatbuf_r+0x42>
 800712a:	466a      	mov	r2, sp
 800712c:	f000 fc78 	bl	8007a20 <_fstat_r>
 8007130:	2800      	cmp	r0, #0
 8007132:	dbf2      	blt.n	800711a <__swhatbuf_r+0x12>
 8007134:	22f0      	movs	r2, #240	; 0xf0
 8007136:	9b01      	ldr	r3, [sp, #4]
 8007138:	0212      	lsls	r2, r2, #8
 800713a:	4013      	ands	r3, r2
 800713c:	4a05      	ldr	r2, [pc, #20]	; (8007154 <__swhatbuf_r+0x4c>)
 800713e:	189b      	adds	r3, r3, r2
 8007140:	425a      	negs	r2, r3
 8007142:	4153      	adcs	r3, r2
 8007144:	602b      	str	r3, [r5, #0]
 8007146:	e7ed      	b.n	8007124 <__swhatbuf_r+0x1c>
 8007148:	2340      	movs	r3, #64	; 0x40
 800714a:	2000      	movs	r0, #0
 800714c:	6023      	str	r3, [r4, #0]
 800714e:	b016      	add	sp, #88	; 0x58
 8007150:	bd70      	pop	{r4, r5, r6, pc}
 8007152:	46c0      	nop			; (mov r8, r8)
 8007154:	ffffe000 	.word	0xffffe000

08007158 <__smakebuf_r>:
 8007158:	b5f7      	push	{r0, r1, r2, r4, r5, r6, r7, lr}
 800715a:	2602      	movs	r6, #2
 800715c:	898b      	ldrh	r3, [r1, #12]
 800715e:	0005      	movs	r5, r0
 8007160:	000c      	movs	r4, r1
 8007162:	4233      	tst	r3, r6
 8007164:	d006      	beq.n	8007174 <__smakebuf_r+0x1c>
 8007166:	0023      	movs	r3, r4
 8007168:	3347      	adds	r3, #71	; 0x47
 800716a:	6023      	str	r3, [r4, #0]
 800716c:	6123      	str	r3, [r4, #16]
 800716e:	2301      	movs	r3, #1
 8007170:	6163      	str	r3, [r4, #20]
 8007172:	bdf7      	pop	{r0, r1, r2, r4, r5, r6, r7, pc}
 8007174:	ab01      	add	r3, sp, #4
 8007176:	466a      	mov	r2, sp
 8007178:	f7ff ffc6 	bl	8007108 <__swhatbuf_r>
 800717c:	9900      	ldr	r1, [sp, #0]
 800717e:	0007      	movs	r7, r0
 8007180:	0028      	movs	r0, r5
 8007182:	f000 f881 	bl	8007288 <_malloc_r>
 8007186:	2800      	cmp	r0, #0
 8007188:	d108      	bne.n	800719c <__smakebuf_r+0x44>
 800718a:	220c      	movs	r2, #12
 800718c:	5ea3      	ldrsh	r3, [r4, r2]
 800718e:	059a      	lsls	r2, r3, #22
 8007190:	d4ef      	bmi.n	8007172 <__smakebuf_r+0x1a>
 8007192:	2203      	movs	r2, #3
 8007194:	4393      	bics	r3, r2
 8007196:	431e      	orrs	r6, r3
 8007198:	81a6      	strh	r6, [r4, #12]
 800719a:	e7e4      	b.n	8007166 <__smakebuf_r+0xe>
 800719c:	4b0f      	ldr	r3, [pc, #60]	; (80071dc <__smakebuf_r+0x84>)
 800719e:	62ab      	str	r3, [r5, #40]	; 0x28
 80071a0:	2380      	movs	r3, #128	; 0x80
 80071a2:	89a2      	ldrh	r2, [r4, #12]
 80071a4:	6020      	str	r0, [r4, #0]
 80071a6:	4313      	orrs	r3, r2
 80071a8:	81a3      	strh	r3, [r4, #12]
 80071aa:	9b00      	ldr	r3, [sp, #0]
 80071ac:	6120      	str	r0, [r4, #16]
 80071ae:	6163      	str	r3, [r4, #20]
 80071b0:	9b01      	ldr	r3, [sp, #4]
 80071b2:	2b00      	cmp	r3, #0
 80071b4:	d00d      	beq.n	80071d2 <__smakebuf_r+0x7a>
 80071b6:	230e      	movs	r3, #14
 80071b8:	5ee1      	ldrsh	r1, [r4, r3]
 80071ba:	0028      	movs	r0, r5
 80071bc:	f000 fc42 	bl	8007a44 <_isatty_r>
 80071c0:	2800      	cmp	r0, #0
 80071c2:	d006      	beq.n	80071d2 <__smakebuf_r+0x7a>
 80071c4:	2203      	movs	r2, #3
 80071c6:	89a3      	ldrh	r3, [r4, #12]
 80071c8:	4393      	bics	r3, r2
 80071ca:	001a      	movs	r2, r3
 80071cc:	2301      	movs	r3, #1
 80071ce:	4313      	orrs	r3, r2
 80071d0:	81a3      	strh	r3, [r4, #12]
 80071d2:	89a0      	ldrh	r0, [r4, #12]
 80071d4:	4338      	orrs	r0, r7
 80071d6:	81a0      	strh	r0, [r4, #12]
 80071d8:	e7cb      	b.n	8007172 <__smakebuf_r+0x1a>
 80071da:	46c0      	nop			; (mov r8, r8)
 80071dc:	08006fa5 	.word	0x08006fa5

080071e0 <malloc>:
 80071e0:	b510      	push	{r4, lr}
 80071e2:	4b03      	ldr	r3, [pc, #12]	; (80071f0 <malloc+0x10>)
 80071e4:	0001      	movs	r1, r0
 80071e6:	6818      	ldr	r0, [r3, #0]
 80071e8:	f000 f84e 	bl	8007288 <_malloc_r>
 80071ec:	bd10      	pop	{r4, pc}
 80071ee:	46c0      	nop			; (mov r8, r8)
 80071f0:	20000010 	.word	0x20000010

080071f4 <_free_r>:
 80071f4:	b570      	push	{r4, r5, r6, lr}
 80071f6:	0005      	movs	r5, r0
 80071f8:	2900      	cmp	r1, #0
 80071fa:	d010      	beq.n	800721e <_free_r+0x2a>
 80071fc:	1f0c      	subs	r4, r1, #4
 80071fe:	6823      	ldr	r3, [r4, #0]
 8007200:	2b00      	cmp	r3, #0
 8007202:	da00      	bge.n	8007206 <_free_r+0x12>
 8007204:	18e4      	adds	r4, r4, r3
 8007206:	0028      	movs	r0, r5
 8007208:	f000 fc4d 	bl	8007aa6 <__malloc_lock>
 800720c:	4a1d      	ldr	r2, [pc, #116]	; (8007284 <_free_r+0x90>)
 800720e:	6813      	ldr	r3, [r2, #0]
 8007210:	2b00      	cmp	r3, #0
 8007212:	d105      	bne.n	8007220 <_free_r+0x2c>
 8007214:	6063      	str	r3, [r4, #4]
 8007216:	6014      	str	r4, [r2, #0]
 8007218:	0028      	movs	r0, r5
 800721a:	f000 fc45 	bl	8007aa8 <__malloc_unlock>
 800721e:	bd70      	pop	{r4, r5, r6, pc}
 8007220:	42a3      	cmp	r3, r4
 8007222:	d909      	bls.n	8007238 <_free_r+0x44>
 8007224:	6821      	ldr	r1, [r4, #0]
 8007226:	1860      	adds	r0, r4, r1
 8007228:	4283      	cmp	r3, r0
 800722a:	d1f3      	bne.n	8007214 <_free_r+0x20>
 800722c:	6818      	ldr	r0, [r3, #0]
 800722e:	685b      	ldr	r3, [r3, #4]
 8007230:	1841      	adds	r1, r0, r1
 8007232:	6021      	str	r1, [r4, #0]
 8007234:	e7ee      	b.n	8007214 <_free_r+0x20>
 8007236:	0013      	movs	r3, r2
 8007238:	685a      	ldr	r2, [r3, #4]
 800723a:	2a00      	cmp	r2, #0
 800723c:	d001      	beq.n	8007242 <_free_r+0x4e>
 800723e:	42a2      	cmp	r2, r4
 8007240:	d9f9      	bls.n	8007236 <_free_r+0x42>
 8007242:	6819      	ldr	r1, [r3, #0]
 8007244:	1858      	adds	r0, r3, r1
 8007246:	42a0      	cmp	r0, r4
 8007248:	d10b      	bne.n	8007262 <_free_r+0x6e>
 800724a:	6820      	ldr	r0, [r4, #0]
 800724c:	1809      	adds	r1, r1, r0
 800724e:	1858      	adds	r0, r3, r1
 8007250:	6019      	str	r1, [r3, #0]
 8007252:	4282      	cmp	r2, r0
 8007254:	d1e0      	bne.n	8007218 <_free_r+0x24>
 8007256:	6810      	ldr	r0, [r2, #0]
 8007258:	6852      	ldr	r2, [r2, #4]
 800725a:	1841      	adds	r1, r0, r1
 800725c:	6019      	str	r1, [r3, #0]
 800725e:	605a      	str	r2, [r3, #4]
 8007260:	e7da      	b.n	8007218 <_free_r+0x24>
 8007262:	42a0      	cmp	r0, r4
 8007264:	d902      	bls.n	800726c <_free_r+0x78>
 8007266:	230c      	movs	r3, #12
 8007268:	602b      	str	r3, [r5, #0]
 800726a:	e7d5      	b.n	8007218 <_free_r+0x24>
 800726c:	6821      	ldr	r1, [r4, #0]
 800726e:	1860      	adds	r0, r4, r1
 8007270:	4282      	cmp	r2, r0
 8007272:	d103      	bne.n	800727c <_free_r+0x88>
 8007274:	6810      	ldr	r0, [r2, #0]
 8007276:	6852      	ldr	r2, [r2, #4]
 8007278:	1841      	adds	r1, r0, r1
 800727a:	6021      	str	r1, [r4, #0]
 800727c:	6062      	str	r2, [r4, #4]
 800727e:	605c      	str	r4, [r3, #4]
 8007280:	e7ca      	b.n	8007218 <_free_r+0x24>
 8007282:	46c0      	nop			; (mov r8, r8)
 8007284:	20000134 	.word	0x20000134

08007288 <_malloc_r>:
 8007288:	2303      	movs	r3, #3
 800728a:	b570      	push	{r4, r5, r6, lr}
 800728c:	1ccd      	adds	r5, r1, #3
 800728e:	439d      	bics	r5, r3
 8007290:	3508      	adds	r5, #8
 8007292:	0006      	movs	r6, r0
 8007294:	2d0c      	cmp	r5, #12
 8007296:	d21e      	bcs.n	80072d6 <_malloc_r+0x4e>
 8007298:	250c      	movs	r5, #12
 800729a:	42a9      	cmp	r1, r5
 800729c:	d81d      	bhi.n	80072da <_malloc_r+0x52>
 800729e:	0030      	movs	r0, r6
 80072a0:	f000 fc01 	bl	8007aa6 <__malloc_lock>
 80072a4:	4a25      	ldr	r2, [pc, #148]	; (800733c <_malloc_r+0xb4>)
 80072a6:	6814      	ldr	r4, [r2, #0]
 80072a8:	0021      	movs	r1, r4
 80072aa:	2900      	cmp	r1, #0
 80072ac:	d119      	bne.n	80072e2 <_malloc_r+0x5a>
 80072ae:	4c24      	ldr	r4, [pc, #144]	; (8007340 <_malloc_r+0xb8>)
 80072b0:	6823      	ldr	r3, [r4, #0]
 80072b2:	2b00      	cmp	r3, #0
 80072b4:	d103      	bne.n	80072be <_malloc_r+0x36>
 80072b6:	0030      	movs	r0, r6
 80072b8:	f000 fb2e 	bl	8007918 <_sbrk_r>
 80072bc:	6020      	str	r0, [r4, #0]
 80072be:	0029      	movs	r1, r5
 80072c0:	0030      	movs	r0, r6
 80072c2:	f000 fb29 	bl	8007918 <_sbrk_r>
 80072c6:	1c43      	adds	r3, r0, #1
 80072c8:	d12b      	bne.n	8007322 <_malloc_r+0x9a>
 80072ca:	230c      	movs	r3, #12
 80072cc:	0030      	movs	r0, r6
 80072ce:	6033      	str	r3, [r6, #0]
 80072d0:	f000 fbea 	bl	8007aa8 <__malloc_unlock>
 80072d4:	e003      	b.n	80072de <_malloc_r+0x56>
 80072d6:	2d00      	cmp	r5, #0
 80072d8:	dadf      	bge.n	800729a <_malloc_r+0x12>
 80072da:	230c      	movs	r3, #12
 80072dc:	6033      	str	r3, [r6, #0]
 80072de:	2000      	movs	r0, #0
 80072e0:	bd70      	pop	{r4, r5, r6, pc}
 80072e2:	680b      	ldr	r3, [r1, #0]
 80072e4:	1b5b      	subs	r3, r3, r5
 80072e6:	d419      	bmi.n	800731c <_malloc_r+0x94>
 80072e8:	2b0b      	cmp	r3, #11
 80072ea:	d903      	bls.n	80072f4 <_malloc_r+0x6c>
 80072ec:	600b      	str	r3, [r1, #0]
 80072ee:	18cc      	adds	r4, r1, r3
 80072f0:	6025      	str	r5, [r4, #0]
 80072f2:	e003      	b.n	80072fc <_malloc_r+0x74>
 80072f4:	684b      	ldr	r3, [r1, #4]
 80072f6:	428c      	cmp	r4, r1
 80072f8:	d10d      	bne.n	8007316 <_malloc_r+0x8e>
 80072fa:	6013      	str	r3, [r2, #0]
 80072fc:	0030      	movs	r0, r6
 80072fe:	f000 fbd3 	bl	8007aa8 <__malloc_unlock>
 8007302:	0020      	movs	r0, r4
 8007304:	2207      	movs	r2, #7
 8007306:	300b      	adds	r0, #11
 8007308:	1d23      	adds	r3, r4, #4
 800730a:	4390      	bics	r0, r2
 800730c:	1ac3      	subs	r3, r0, r3
 800730e:	d0e7      	beq.n	80072e0 <_malloc_r+0x58>
 8007310:	425a      	negs	r2, r3
 8007312:	50e2      	str	r2, [r4, r3]
 8007314:	e7e4      	b.n	80072e0 <_malloc_r+0x58>
 8007316:	6063      	str	r3, [r4, #4]
 8007318:	000c      	movs	r4, r1
 800731a:	e7ef      	b.n	80072fc <_malloc_r+0x74>
 800731c:	000c      	movs	r4, r1
 800731e:	6849      	ldr	r1, [r1, #4]
 8007320:	e7c3      	b.n	80072aa <_malloc_r+0x22>
 8007322:	2303      	movs	r3, #3
 8007324:	1cc4      	adds	r4, r0, #3
 8007326:	439c      	bics	r4, r3
 8007328:	42a0      	cmp	r0, r4
 800732a:	d0e1      	beq.n	80072f0 <_malloc_r+0x68>
 800732c:	1a21      	subs	r1, r4, r0
 800732e:	0030      	movs	r0, r6
 8007330:	f000 faf2 	bl	8007918 <_sbrk_r>
 8007334:	1c43      	adds	r3, r0, #1
 8007336:	d1db      	bne.n	80072f0 <_malloc_r+0x68>
 8007338:	e7c7      	b.n	80072ca <_malloc_r+0x42>
 800733a:	46c0      	nop			; (mov r8, r8)
 800733c:	20000134 	.word	0x20000134
 8007340:	20000138 	.word	0x20000138

08007344 <__sfputc_r>:
 8007344:	6893      	ldr	r3, [r2, #8]
 8007346:	b510      	push	{r4, lr}
 8007348:	3b01      	subs	r3, #1
 800734a:	6093      	str	r3, [r2, #8]
 800734c:	2b00      	cmp	r3, #0
 800734e:	da04      	bge.n	800735a <__sfputc_r+0x16>
 8007350:	6994      	ldr	r4, [r2, #24]
 8007352:	42a3      	cmp	r3, r4
 8007354:	db07      	blt.n	8007366 <__sfputc_r+0x22>
 8007356:	290a      	cmp	r1, #10
 8007358:	d005      	beq.n	8007366 <__sfputc_r+0x22>
 800735a:	6813      	ldr	r3, [r2, #0]
 800735c:	1c58      	adds	r0, r3, #1
 800735e:	6010      	str	r0, [r2, #0]
 8007360:	7019      	strb	r1, [r3, #0]
 8007362:	0008      	movs	r0, r1
 8007364:	bd10      	pop	{r4, pc}
 8007366:	f7ff fc77 	bl	8006c58 <__swbuf_r>
 800736a:	0001      	movs	r1, r0
 800736c:	e7f9      	b.n	8007362 <__sfputc_r+0x1e>

0800736e <__sfputs_r>:
 800736e:	b5f8      	push	{r3, r4, r5, r6, r7, lr}
 8007370:	0006      	movs	r6, r0
 8007372:	000f      	movs	r7, r1
 8007374:	0014      	movs	r4, r2
 8007376:	18d5      	adds	r5, r2, r3
 8007378:	42ac      	cmp	r4, r5
 800737a:	d101      	bne.n	8007380 <__sfputs_r+0x12>
 800737c:	2000      	movs	r0, #0
 800737e:	e007      	b.n	8007390 <__sfputs_r+0x22>
 8007380:	7821      	ldrb	r1, [r4, #0]
 8007382:	003a      	movs	r2, r7
 8007384:	0030      	movs	r0, r6
 8007386:	f7ff ffdd 	bl	8007344 <__sfputc_r>
 800738a:	3401      	adds	r4, #1
 800738c:	1c43      	adds	r3, r0, #1
 800738e:	d1f3      	bne.n	8007378 <__sfputs_r+0xa>
 8007390:	bdf8      	pop	{r3, r4, r5, r6, r7, pc}
	...

08007394 <_vfiprintf_r>:
 8007394:	b5f0      	push	{r4, r5, r6, r7, lr}
 8007396:	b0a1      	sub	sp, #132	; 0x84
 8007398:	9003      	str	r0, [sp, #12]
 800739a:	000f      	movs	r7, r1
 800739c:	0016      	movs	r6, r2
 800739e:	001d      	movs	r5, r3
 80073a0:	2800      	cmp	r0, #0
 80073a2:	d005      	beq.n	80073b0 <_vfiprintf_r+0x1c>
 80073a4:	6983      	ldr	r3, [r0, #24]
 80073a6:	9305      	str	r3, [sp, #20]
 80073a8:	2b00      	cmp	r3, #0
 80073aa:	d101      	bne.n	80073b0 <_vfiprintf_r+0x1c>
 80073ac:	f7ff fe18 	bl	8006fe0 <__sinit>
 80073b0:	4b7b      	ldr	r3, [pc, #492]	; (80075a0 <_vfiprintf_r+0x20c>)
 80073b2:	429f      	cmp	r7, r3
 80073b4:	d15c      	bne.n	8007470 <_vfiprintf_r+0xdc>
 80073b6:	9b03      	ldr	r3, [sp, #12]
 80073b8:	685f      	ldr	r7, [r3, #4]
 80073ba:	89bb      	ldrh	r3, [r7, #12]
 80073bc:	071b      	lsls	r3, r3, #28
 80073be:	d563      	bpl.n	8007488 <_vfiprintf_r+0xf4>
 80073c0:	693b      	ldr	r3, [r7, #16]
 80073c2:	2b00      	cmp	r3, #0
 80073c4:	d060      	beq.n	8007488 <_vfiprintf_r+0xf4>
 80073c6:	2300      	movs	r3, #0
 80073c8:	ac08      	add	r4, sp, #32
 80073ca:	6163      	str	r3, [r4, #20]
 80073cc:	3320      	adds	r3, #32
 80073ce:	7663      	strb	r3, [r4, #25]
 80073d0:	3310      	adds	r3, #16
 80073d2:	76a3      	strb	r3, [r4, #26]
 80073d4:	9507      	str	r5, [sp, #28]
 80073d6:	0035      	movs	r5, r6
 80073d8:	782b      	ldrb	r3, [r5, #0]
 80073da:	2b00      	cmp	r3, #0
 80073dc:	d001      	beq.n	80073e2 <_vfiprintf_r+0x4e>
 80073de:	2b25      	cmp	r3, #37	; 0x25
 80073e0:	d15c      	bne.n	800749c <_vfiprintf_r+0x108>
 80073e2:	1bab      	subs	r3, r5, r6
 80073e4:	9305      	str	r3, [sp, #20]
 80073e6:	d00c      	beq.n	8007402 <_vfiprintf_r+0x6e>
 80073e8:	0032      	movs	r2, r6
 80073ea:	0039      	movs	r1, r7
 80073ec:	9803      	ldr	r0, [sp, #12]
 80073ee:	f7ff ffbe 	bl	800736e <__sfputs_r>
 80073f2:	1c43      	adds	r3, r0, #1
 80073f4:	d100      	bne.n	80073f8 <_vfiprintf_r+0x64>
 80073f6:	e0c4      	b.n	8007582 <_vfiprintf_r+0x1ee>
 80073f8:	6962      	ldr	r2, [r4, #20]
 80073fa:	9b05      	ldr	r3, [sp, #20]
 80073fc:	4694      	mov	ip, r2
 80073fe:	4463      	add	r3, ip
 8007400:	6163      	str	r3, [r4, #20]
 8007402:	782b      	ldrb	r3, [r5, #0]
 8007404:	2b00      	cmp	r3, #0
 8007406:	d100      	bne.n	800740a <_vfiprintf_r+0x76>
 8007408:	e0bb      	b.n	8007582 <_vfiprintf_r+0x1ee>
 800740a:	2201      	movs	r2, #1
 800740c:	2300      	movs	r3, #0
 800740e:	4252      	negs	r2, r2
 8007410:	6062      	str	r2, [r4, #4]
 8007412:	a904      	add	r1, sp, #16
 8007414:	3254      	adds	r2, #84	; 0x54
 8007416:	1852      	adds	r2, r2, r1
 8007418:	1c6e      	adds	r6, r5, #1
 800741a:	6023      	str	r3, [r4, #0]
 800741c:	60e3      	str	r3, [r4, #12]
 800741e:	60a3      	str	r3, [r4, #8]
 8007420:	7013      	strb	r3, [r2, #0]
 8007422:	65a3      	str	r3, [r4, #88]	; 0x58
 8007424:	7831      	ldrb	r1, [r6, #0]
 8007426:	2205      	movs	r2, #5
 8007428:	485e      	ldr	r0, [pc, #376]	; (80075a4 <_vfiprintf_r+0x210>)
 800742a:	f000 fb31 	bl	8007a90 <memchr>
 800742e:	1c75      	adds	r5, r6, #1
 8007430:	2800      	cmp	r0, #0
 8007432:	d135      	bne.n	80074a0 <_vfiprintf_r+0x10c>
 8007434:	6822      	ldr	r2, [r4, #0]
 8007436:	06d3      	lsls	r3, r2, #27
 8007438:	d504      	bpl.n	8007444 <_vfiprintf_r+0xb0>
 800743a:	2353      	movs	r3, #83	; 0x53
 800743c:	a904      	add	r1, sp, #16
 800743e:	185b      	adds	r3, r3, r1
 8007440:	2120      	movs	r1, #32
 8007442:	7019      	strb	r1, [r3, #0]
 8007444:	0713      	lsls	r3, r2, #28
 8007446:	d504      	bpl.n	8007452 <_vfiprintf_r+0xbe>
 8007448:	2353      	movs	r3, #83	; 0x53
 800744a:	a904      	add	r1, sp, #16
 800744c:	185b      	adds	r3, r3, r1
 800744e:	212b      	movs	r1, #43	; 0x2b
 8007450:	7019      	strb	r1, [r3, #0]
 8007452:	7833      	ldrb	r3, [r6, #0]
 8007454:	2b2a      	cmp	r3, #42	; 0x2a
 8007456:	d02c      	beq.n	80074b2 <_vfiprintf_r+0x11e>
 8007458:	0035      	movs	r5, r6
 800745a:	2100      	movs	r1, #0
 800745c:	200a      	movs	r0, #10
 800745e:	68e3      	ldr	r3, [r4, #12]
 8007460:	782a      	ldrb	r2, [r5, #0]
 8007462:	1c6e      	adds	r6, r5, #1
 8007464:	3a30      	subs	r2, #48	; 0x30
 8007466:	2a09      	cmp	r2, #9
 8007468:	d964      	bls.n	8007534 <_vfiprintf_r+0x1a0>
 800746a:	2900      	cmp	r1, #0
 800746c:	d02e      	beq.n	80074cc <_vfiprintf_r+0x138>
 800746e:	e026      	b.n	80074be <_vfiprintf_r+0x12a>
 8007470:	4b4d      	ldr	r3, [pc, #308]	; (80075a8 <_vfiprintf_r+0x214>)
 8007472:	429f      	cmp	r7, r3
 8007474:	d102      	bne.n	800747c <_vfiprintf_r+0xe8>
 8007476:	9b03      	ldr	r3, [sp, #12]
 8007478:	689f      	ldr	r7, [r3, #8]
 800747a:	e79e      	b.n	80073ba <_vfiprintf_r+0x26>
 800747c:	4b4b      	ldr	r3, [pc, #300]	; (80075ac <_vfiprintf_r+0x218>)
 800747e:	429f      	cmp	r7, r3
 8007480:	d19b      	bne.n	80073ba <_vfiprintf_r+0x26>
 8007482:	9b03      	ldr	r3, [sp, #12]
 8007484:	68df      	ldr	r7, [r3, #12]
 8007486:	e798      	b.n	80073ba <_vfiprintf_r+0x26>
 8007488:	0039      	movs	r1, r7
 800748a:	9803      	ldr	r0, [sp, #12]
 800748c:	f7ff fc3a 	bl	8006d04 <__swsetup_r>
 8007490:	2800      	cmp	r0, #0
 8007492:	d098      	beq.n	80073c6 <_vfiprintf_r+0x32>
 8007494:	2001      	movs	r0, #1
 8007496:	4240      	negs	r0, r0
 8007498:	b021      	add	sp, #132	; 0x84
 800749a:	bdf0      	pop	{r4, r5, r6, r7, pc}
 800749c:	3501      	adds	r5, #1
 800749e:	e79b      	b.n	80073d8 <_vfiprintf_r+0x44>
 80074a0:	4b40      	ldr	r3, [pc, #256]	; (80075a4 <_vfiprintf_r+0x210>)
 80074a2:	6822      	ldr	r2, [r4, #0]
 80074a4:	1ac0      	subs	r0, r0, r3
 80074a6:	2301      	movs	r3, #1
 80074a8:	4083      	lsls	r3, r0
 80074aa:	4313      	orrs	r3, r2
 80074ac:	6023      	str	r3, [r4, #0]
 80074ae:	002e      	movs	r6, r5
 80074b0:	e7b8      	b.n	8007424 <_vfiprintf_r+0x90>
 80074b2:	9b07      	ldr	r3, [sp, #28]
 80074b4:	1d19      	adds	r1, r3, #4
 80074b6:	681b      	ldr	r3, [r3, #0]
 80074b8:	9107      	str	r1, [sp, #28]
 80074ba:	2b00      	cmp	r3, #0
 80074bc:	db01      	blt.n	80074c2 <_vfiprintf_r+0x12e>
 80074be:	930b      	str	r3, [sp, #44]	; 0x2c
 80074c0:	e004      	b.n	80074cc <_vfiprintf_r+0x138>
 80074c2:	425b      	negs	r3, r3
 80074c4:	60e3      	str	r3, [r4, #12]
 80074c6:	2302      	movs	r3, #2
 80074c8:	4313      	orrs	r3, r2
 80074ca:	6023      	str	r3, [r4, #0]
 80074cc:	782b      	ldrb	r3, [r5, #0]
 80074ce:	2b2e      	cmp	r3, #46	; 0x2e
 80074d0:	d10a      	bne.n	80074e8 <_vfiprintf_r+0x154>
 80074d2:	786b      	ldrb	r3, [r5, #1]
 80074d4:	2b2a      	cmp	r3, #42	; 0x2a
 80074d6:	d135      	bne.n	8007544 <_vfiprintf_r+0x1b0>
 80074d8:	9b07      	ldr	r3, [sp, #28]
 80074da:	3502      	adds	r5, #2
 80074dc:	1d1a      	adds	r2, r3, #4
 80074de:	681b      	ldr	r3, [r3, #0]
 80074e0:	9207      	str	r2, [sp, #28]
 80074e2:	2b00      	cmp	r3, #0
 80074e4:	db2b      	blt.n	800753e <_vfiprintf_r+0x1aa>
 80074e6:	9309      	str	r3, [sp, #36]	; 0x24
 80074e8:	4e31      	ldr	r6, [pc, #196]	; (80075b0 <_vfiprintf_r+0x21c>)
 80074ea:	7829      	ldrb	r1, [r5, #0]
 80074ec:	2203      	movs	r2, #3
 80074ee:	0030      	movs	r0, r6
 80074f0:	f000 face 	bl	8007a90 <memchr>
 80074f4:	2800      	cmp	r0, #0
 80074f6:	d006      	beq.n	8007506 <_vfiprintf_r+0x172>
 80074f8:	2340      	movs	r3, #64	; 0x40
 80074fa:	1b80      	subs	r0, r0, r6
 80074fc:	4083      	lsls	r3, r0
 80074fe:	6822      	ldr	r2, [r4, #0]
 8007500:	3501      	adds	r5, #1
 8007502:	4313      	orrs	r3, r2
 8007504:	6023      	str	r3, [r4, #0]
 8007506:	7829      	ldrb	r1, [r5, #0]
 8007508:	2206      	movs	r2, #6
 800750a:	482a      	ldr	r0, [pc, #168]	; (80075b4 <_vfiprintf_r+0x220>)
 800750c:	1c6e      	adds	r6, r5, #1
 800750e:	7621      	strb	r1, [r4, #24]
 8007510:	f000 fabe 	bl	8007a90 <memchr>
 8007514:	2800      	cmp	r0, #0
 8007516:	d03a      	beq.n	800758e <_vfiprintf_r+0x1fa>
 8007518:	4b27      	ldr	r3, [pc, #156]	; (80075b8 <_vfiprintf_r+0x224>)
 800751a:	2b00      	cmp	r3, #0
 800751c:	d125      	bne.n	800756a <_vfiprintf_r+0x1d6>
 800751e:	2207      	movs	r2, #7
 8007520:	9b07      	ldr	r3, [sp, #28]
 8007522:	3307      	adds	r3, #7
 8007524:	4393      	bics	r3, r2
 8007526:	3308      	adds	r3, #8
 8007528:	9307      	str	r3, [sp, #28]
 800752a:	6963      	ldr	r3, [r4, #20]
 800752c:	9a04      	ldr	r2, [sp, #16]
 800752e:	189b      	adds	r3, r3, r2
 8007530:	6163      	str	r3, [r4, #20]
 8007532:	e750      	b.n	80073d6 <_vfiprintf_r+0x42>
 8007534:	4343      	muls	r3, r0
 8007536:	2101      	movs	r1, #1
 8007538:	189b      	adds	r3, r3, r2
 800753a:	0035      	movs	r5, r6
 800753c:	e790      	b.n	8007460 <_vfiprintf_r+0xcc>
 800753e:	2301      	movs	r3, #1
 8007540:	425b      	negs	r3, r3
 8007542:	e7d0      	b.n	80074e6 <_vfiprintf_r+0x152>
 8007544:	2300      	movs	r3, #0
 8007546:	200a      	movs	r0, #10
 8007548:	001a      	movs	r2, r3
 800754a:	3501      	adds	r5, #1
 800754c:	6063      	str	r3, [r4, #4]
 800754e:	7829      	ldrb	r1, [r5, #0]
 8007550:	1c6e      	adds	r6, r5, #1
 8007552:	3930      	subs	r1, #48	; 0x30
 8007554:	2909      	cmp	r1, #9
 8007556:	d903      	bls.n	8007560 <_vfiprintf_r+0x1cc>
 8007558:	2b00      	cmp	r3, #0
 800755a:	d0c5      	beq.n	80074e8 <_vfiprintf_r+0x154>
 800755c:	9209      	str	r2, [sp, #36]	; 0x24
 800755e:	e7c3      	b.n	80074e8 <_vfiprintf_r+0x154>
 8007560:	4342      	muls	r2, r0
 8007562:	2301      	movs	r3, #1
 8007564:	1852      	adds	r2, r2, r1
 8007566:	0035      	movs	r5, r6
 8007568:	e7f1      	b.n	800754e <_vfiprintf_r+0x1ba>
 800756a:	ab07      	add	r3, sp, #28
 800756c:	9300      	str	r3, [sp, #0]
 800756e:	003a      	movs	r2, r7
 8007570:	4b12      	ldr	r3, [pc, #72]	; (80075bc <_vfiprintf_r+0x228>)
 8007572:	0021      	movs	r1, r4
 8007574:	9803      	ldr	r0, [sp, #12]
 8007576:	e000      	b.n	800757a <_vfiprintf_r+0x1e6>
 8007578:	bf00      	nop
 800757a:	9004      	str	r0, [sp, #16]
 800757c:	9b04      	ldr	r3, [sp, #16]
 800757e:	3301      	adds	r3, #1
 8007580:	d1d3      	bne.n	800752a <_vfiprintf_r+0x196>
 8007582:	89bb      	ldrh	r3, [r7, #12]
 8007584:	065b      	lsls	r3, r3, #25
 8007586:	d500      	bpl.n	800758a <_vfiprintf_r+0x1f6>
 8007588:	e784      	b.n	8007494 <_vfiprintf_r+0x100>
 800758a:	980d      	ldr	r0, [sp, #52]	; 0x34
 800758c:	e784      	b.n	8007498 <_vfiprintf_r+0x104>
 800758e:	ab07      	add	r3, sp, #28
 8007590:	9300      	str	r3, [sp, #0]
 8007592:	003a      	movs	r2, r7
 8007594:	4b09      	ldr	r3, [pc, #36]	; (80075bc <_vfiprintf_r+0x228>)
 8007596:	0021      	movs	r1, r4
 8007598:	9803      	ldr	r0, [sp, #12]
 800759a:	f000 f87f 	bl	800769c <_printf_i>
 800759e:	e7ec      	b.n	800757a <_vfiprintf_r+0x1e6>
 80075a0:	08007f04 	.word	0x08007f04
 80075a4:	08007f44 	.word	0x08007f44
 80075a8:	08007f24 	.word	0x08007f24
 80075ac:	08007ee4 	.word	0x08007ee4
 80075b0:	08007f4a 	.word	0x08007f4a
 80075b4:	08007f4e 	.word	0x08007f4e
 80075b8:	00000000 	.word	0x00000000
 80075bc:	0800736f 	.word	0x0800736f

080075c0 <_printf_common>:
 80075c0:	b5f7      	push	{r0, r1, r2, r4, r5, r6, r7, lr}
 80075c2:	0015      	movs	r5, r2
 80075c4:	9301      	str	r3, [sp, #4]
 80075c6:	688a      	ldr	r2, [r1, #8]
 80075c8:	690b      	ldr	r3, [r1, #16]
 80075ca:	9000      	str	r0, [sp, #0]
 80075cc:	000c      	movs	r4, r1
 80075ce:	4293      	cmp	r3, r2
 80075d0:	da00      	bge.n	80075d4 <_printf_common+0x14>
 80075d2:	0013      	movs	r3, r2
 80075d4:	0022      	movs	r2, r4
 80075d6:	602b      	str	r3, [r5, #0]
 80075d8:	3243      	adds	r2, #67	; 0x43
 80075da:	7812      	ldrb	r2, [r2, #0]
 80075dc:	2a00      	cmp	r2, #0
 80075de:	d001      	beq.n	80075e4 <_printf_common+0x24>
 80075e0:	3301      	adds	r3, #1
 80075e2:	602b      	str	r3, [r5, #0]
 80075e4:	6823      	ldr	r3, [r4, #0]
 80075e6:	069b      	lsls	r3, r3, #26
 80075e8:	d502      	bpl.n	80075f0 <_printf_common+0x30>
 80075ea:	682b      	ldr	r3, [r5, #0]
 80075ec:	3302      	adds	r3, #2
 80075ee:	602b      	str	r3, [r5, #0]
 80075f0:	2706      	movs	r7, #6
 80075f2:	6823      	ldr	r3, [r4, #0]
 80075f4:	401f      	ands	r7, r3
 80075f6:	d027      	beq.n	8007648 <_printf_common+0x88>
 80075f8:	0023      	movs	r3, r4
 80075fa:	3343      	adds	r3, #67	; 0x43
 80075fc:	781b      	ldrb	r3, [r3, #0]
 80075fe:	1e5a      	subs	r2, r3, #1
 8007600:	4193      	sbcs	r3, r2
 8007602:	6822      	ldr	r2, [r4, #0]
 8007604:	0692      	lsls	r2, r2, #26
 8007606:	d430      	bmi.n	800766a <_printf_common+0xaa>
 8007608:	0022      	movs	r2, r4
 800760a:	9901      	ldr	r1, [sp, #4]
 800760c:	3243      	adds	r2, #67	; 0x43
 800760e:	9800      	ldr	r0, [sp, #0]
 8007610:	9e08      	ldr	r6, [sp, #32]
 8007612:	47b0      	blx	r6
 8007614:	1c43      	adds	r3, r0, #1
 8007616:	d025      	beq.n	8007664 <_printf_common+0xa4>
 8007618:	2306      	movs	r3, #6
 800761a:	6820      	ldr	r0, [r4, #0]
 800761c:	682a      	ldr	r2, [r5, #0]
 800761e:	68e1      	ldr	r1, [r4, #12]
 8007620:	4003      	ands	r3, r0
 8007622:	2500      	movs	r5, #0
 8007624:	2b04      	cmp	r3, #4
 8007626:	d103      	bne.n	8007630 <_printf_common+0x70>
 8007628:	1a8d      	subs	r5, r1, r2
 800762a:	43eb      	mvns	r3, r5
 800762c:	17db      	asrs	r3, r3, #31
 800762e:	401d      	ands	r5, r3
 8007630:	68a3      	ldr	r3, [r4, #8]
 8007632:	6922      	ldr	r2, [r4, #16]
 8007634:	4293      	cmp	r3, r2
 8007636:	dd01      	ble.n	800763c <_printf_common+0x7c>
 8007638:	1a9b      	subs	r3, r3, r2
 800763a:	18ed      	adds	r5, r5, r3
 800763c:	2700      	movs	r7, #0
 800763e:	42bd      	cmp	r5, r7
 8007640:	d120      	bne.n	8007684 <_printf_common+0xc4>
 8007642:	2000      	movs	r0, #0
 8007644:	e010      	b.n	8007668 <_printf_common+0xa8>
 8007646:	3701      	adds	r7, #1
 8007648:	68e3      	ldr	r3, [r4, #12]
 800764a:	682a      	ldr	r2, [r5, #0]
 800764c:	1a9b      	subs	r3, r3, r2
 800764e:	42bb      	cmp	r3, r7
 8007650:	ddd2      	ble.n	80075f8 <_printf_common+0x38>
 8007652:	0022      	movs	r2, r4
 8007654:	2301      	movs	r3, #1
 8007656:	3219      	adds	r2, #25
 8007658:	9901      	ldr	r1, [sp, #4]
 800765a:	9800      	ldr	r0, [sp, #0]
 800765c:	9e08      	ldr	r6, [sp, #32]
 800765e:	47b0      	blx	r6
 8007660:	1c43      	adds	r3, r0, #1
 8007662:	d1f0      	bne.n	8007646 <_printf_common+0x86>
 8007664:	2001      	movs	r0, #1
 8007666:	4240      	negs	r0, r0
 8007668:	bdfe      	pop	{r1, r2, r3, r4, r5, r6, r7, pc}
 800766a:	2030      	movs	r0, #48	; 0x30
 800766c:	18e1      	adds	r1, r4, r3
 800766e:	3143      	adds	r1, #67	; 0x43
 8007670:	7008      	strb	r0, [r1, #0]
 8007672:	0021      	movs	r1, r4
 8007674:	1c5a      	adds	r2, r3, #1
 8007676:	3145      	adds	r1, #69	; 0x45
 8007678:	7809      	ldrb	r1, [r1, #0]
 800767a:	18a2      	adds	r2, r4, r2
 800767c:	3243      	adds	r2, #67	; 0x43
 800767e:	3302      	adds	r3, #2
 8007680:	7011      	strb	r1, [r2, #0]
 8007682:	e7c1      	b.n	8007608 <_printf_common+0x48>
 8007684:	0022      	movs	r2, r4
 8007686:	2301      	movs	r3, #1
 8007688:	321a      	adds	r2, #26
 800768a:	9901      	ldr	r1, [sp, #4]
 800768c:	9800      	ldr	r0, [sp, #0]
 800768e:	9e08      	ldr	r6, [sp, #32]
 8007690:	47b0      	blx	r6
 8007692:	1c43      	adds	r3, r0, #1
 8007694:	d0e6      	beq.n	8007664 <_printf_common+0xa4>
 8007696:	3701      	adds	r7, #1
 8007698:	e7d1      	b.n	800763e <_printf_common+0x7e>
	...

0800769c <_printf_i>:
 800769c:	b5f0      	push	{r4, r5, r6, r7, lr}
 800769e:	b089      	sub	sp, #36	; 0x24
 80076a0:	9204      	str	r2, [sp, #16]
 80076a2:	000a      	movs	r2, r1
 80076a4:	3243      	adds	r2, #67	; 0x43
 80076a6:	9305      	str	r3, [sp, #20]
 80076a8:	9003      	str	r0, [sp, #12]
 80076aa:	9202      	str	r2, [sp, #8]
 80076ac:	7e0a      	ldrb	r2, [r1, #24]
 80076ae:	000c      	movs	r4, r1
 80076b0:	9b0e      	ldr	r3, [sp, #56]	; 0x38
 80076b2:	2a6e      	cmp	r2, #110	; 0x6e
 80076b4:	d100      	bne.n	80076b8 <_printf_i+0x1c>
 80076b6:	e086      	b.n	80077c6 <_printf_i+0x12a>
 80076b8:	d81f      	bhi.n	80076fa <_printf_i+0x5e>
 80076ba:	2a63      	cmp	r2, #99	; 0x63
 80076bc:	d033      	beq.n	8007726 <_printf_i+0x8a>
 80076be:	d808      	bhi.n	80076d2 <_printf_i+0x36>
 80076c0:	2a00      	cmp	r2, #0
 80076c2:	d100      	bne.n	80076c6 <_printf_i+0x2a>
 80076c4:	e08c      	b.n	80077e0 <_printf_i+0x144>
 80076c6:	2a58      	cmp	r2, #88	; 0x58
 80076c8:	d04d      	beq.n	8007766 <_printf_i+0xca>
 80076ca:	0025      	movs	r5, r4
 80076cc:	3542      	adds	r5, #66	; 0x42
 80076ce:	702a      	strb	r2, [r5, #0]
 80076d0:	e030      	b.n	8007734 <_printf_i+0x98>
 80076d2:	2a64      	cmp	r2, #100	; 0x64
 80076d4:	d001      	beq.n	80076da <_printf_i+0x3e>
 80076d6:	2a69      	cmp	r2, #105	; 0x69
 80076d8:	d1f7      	bne.n	80076ca <_printf_i+0x2e>
 80076da:	6819      	ldr	r1, [r3, #0]
 80076dc:	6825      	ldr	r5, [r4, #0]
 80076de:	1d0a      	adds	r2, r1, #4
 80076e0:	0628      	lsls	r0, r5, #24
 80076e2:	d529      	bpl.n	8007738 <_printf_i+0x9c>
 80076e4:	6808      	ldr	r0, [r1, #0]
 80076e6:	601a      	str	r2, [r3, #0]
 80076e8:	2800      	cmp	r0, #0
 80076ea:	da03      	bge.n	80076f4 <_printf_i+0x58>
 80076ec:	232d      	movs	r3, #45	; 0x2d
 80076ee:	9a02      	ldr	r2, [sp, #8]
 80076f0:	4240      	negs	r0, r0
 80076f2:	7013      	strb	r3, [r2, #0]
 80076f4:	4e6b      	ldr	r6, [pc, #428]	; (80078a4 <_printf_i+0x208>)
 80076f6:	270a      	movs	r7, #10
 80076f8:	e04f      	b.n	800779a <_printf_i+0xfe>
 80076fa:	2a73      	cmp	r2, #115	; 0x73
 80076fc:	d074      	beq.n	80077e8 <_printf_i+0x14c>
 80076fe:	d808      	bhi.n	8007712 <_printf_i+0x76>
 8007700:	2a6f      	cmp	r2, #111	; 0x6f
 8007702:	d01f      	beq.n	8007744 <_printf_i+0xa8>
 8007704:	2a70      	cmp	r2, #112	; 0x70
 8007706:	d1e0      	bne.n	80076ca <_printf_i+0x2e>
 8007708:	2220      	movs	r2, #32
 800770a:	6809      	ldr	r1, [r1, #0]
 800770c:	430a      	orrs	r2, r1
 800770e:	6022      	str	r2, [r4, #0]
 8007710:	e003      	b.n	800771a <_printf_i+0x7e>
 8007712:	2a75      	cmp	r2, #117	; 0x75
 8007714:	d016      	beq.n	8007744 <_printf_i+0xa8>
 8007716:	2a78      	cmp	r2, #120	; 0x78
 8007718:	d1d7      	bne.n	80076ca <_printf_i+0x2e>
 800771a:	0022      	movs	r2, r4
 800771c:	2178      	movs	r1, #120	; 0x78
 800771e:	3245      	adds	r2, #69	; 0x45
 8007720:	7011      	strb	r1, [r2, #0]
 8007722:	4e61      	ldr	r6, [pc, #388]	; (80078a8 <_printf_i+0x20c>)
 8007724:	e022      	b.n	800776c <_printf_i+0xd0>
 8007726:	0025      	movs	r5, r4
 8007728:	681a      	ldr	r2, [r3, #0]
 800772a:	3542      	adds	r5, #66	; 0x42
 800772c:	1d11      	adds	r1, r2, #4
 800772e:	6019      	str	r1, [r3, #0]
 8007730:	6813      	ldr	r3, [r2, #0]
 8007732:	702b      	strb	r3, [r5, #0]
 8007734:	2301      	movs	r3, #1
 8007736:	e065      	b.n	8007804 <_printf_i+0x168>
 8007738:	6808      	ldr	r0, [r1, #0]
 800773a:	601a      	str	r2, [r3, #0]
 800773c:	0669      	lsls	r1, r5, #25
 800773e:	d5d3      	bpl.n	80076e8 <_printf_i+0x4c>
 8007740:	b200      	sxth	r0, r0
 8007742:	e7d1      	b.n	80076e8 <_printf_i+0x4c>
 8007744:	6819      	ldr	r1, [r3, #0]
 8007746:	6825      	ldr	r5, [r4, #0]
 8007748:	1d08      	adds	r0, r1, #4
 800774a:	6018      	str	r0, [r3, #0]
 800774c:	6808      	ldr	r0, [r1, #0]
 800774e:	062e      	lsls	r6, r5, #24
 8007750:	d505      	bpl.n	800775e <_printf_i+0xc2>
 8007752:	4e54      	ldr	r6, [pc, #336]	; (80078a4 <_printf_i+0x208>)
 8007754:	2708      	movs	r7, #8
 8007756:	2a6f      	cmp	r2, #111	; 0x6f
 8007758:	d01b      	beq.n	8007792 <_printf_i+0xf6>
 800775a:	270a      	movs	r7, #10
 800775c:	e019      	b.n	8007792 <_printf_i+0xf6>
 800775e:	066d      	lsls	r5, r5, #25
 8007760:	d5f7      	bpl.n	8007752 <_printf_i+0xb6>
 8007762:	b280      	uxth	r0, r0
 8007764:	e7f5      	b.n	8007752 <_printf_i+0xb6>
 8007766:	3145      	adds	r1, #69	; 0x45
 8007768:	4e4e      	ldr	r6, [pc, #312]	; (80078a4 <_printf_i+0x208>)
 800776a:	700a      	strb	r2, [r1, #0]
 800776c:	6818      	ldr	r0, [r3, #0]
 800776e:	6822      	ldr	r2, [r4, #0]
 8007770:	1d01      	adds	r1, r0, #4
 8007772:	6800      	ldr	r0, [r0, #0]
 8007774:	6019      	str	r1, [r3, #0]
 8007776:	0615      	lsls	r5, r2, #24
 8007778:	d521      	bpl.n	80077be <_printf_i+0x122>
 800777a:	07d3      	lsls	r3, r2, #31
 800777c:	d502      	bpl.n	8007784 <_printf_i+0xe8>
 800777e:	2320      	movs	r3, #32
 8007780:	431a      	orrs	r2, r3
 8007782:	6022      	str	r2, [r4, #0]
 8007784:	2710      	movs	r7, #16
 8007786:	2800      	cmp	r0, #0
 8007788:	d103      	bne.n	8007792 <_printf_i+0xf6>
 800778a:	2320      	movs	r3, #32
 800778c:	6822      	ldr	r2, [r4, #0]
 800778e:	439a      	bics	r2, r3
 8007790:	6022      	str	r2, [r4, #0]
 8007792:	0023      	movs	r3, r4
 8007794:	2200      	movs	r2, #0
 8007796:	3343      	adds	r3, #67	; 0x43
 8007798:	701a      	strb	r2, [r3, #0]
 800779a:	6863      	ldr	r3, [r4, #4]
 800779c:	60a3      	str	r3, [r4, #8]
 800779e:	2b00      	cmp	r3, #0
 80077a0:	db58      	blt.n	8007854 <_printf_i+0x1b8>
 80077a2:	2204      	movs	r2, #4
 80077a4:	6821      	ldr	r1, [r4, #0]
 80077a6:	4391      	bics	r1, r2
 80077a8:	6021      	str	r1, [r4, #0]
 80077aa:	2800      	cmp	r0, #0
 80077ac:	d154      	bne.n	8007858 <_printf_i+0x1bc>
 80077ae:	9d02      	ldr	r5, [sp, #8]
 80077b0:	2b00      	cmp	r3, #0
 80077b2:	d05a      	beq.n	800786a <_printf_i+0x1ce>
 80077b4:	0025      	movs	r5, r4
 80077b6:	7833      	ldrb	r3, [r6, #0]
 80077b8:	3542      	adds	r5, #66	; 0x42
 80077ba:	702b      	strb	r3, [r5, #0]
 80077bc:	e055      	b.n	800786a <_printf_i+0x1ce>
 80077be:	0655      	lsls	r5, r2, #25
 80077c0:	d5db      	bpl.n	800777a <_printf_i+0xde>
 80077c2:	b280      	uxth	r0, r0
 80077c4:	e7d9      	b.n	800777a <_printf_i+0xde>
 80077c6:	681a      	ldr	r2, [r3, #0]
 80077c8:	680d      	ldr	r5, [r1, #0]
 80077ca:	1d10      	adds	r0, r2, #4
 80077cc:	6949      	ldr	r1, [r1, #20]
 80077ce:	6018      	str	r0, [r3, #0]
 80077d0:	6813      	ldr	r3, [r2, #0]
 80077d2:	062e      	lsls	r6, r5, #24
 80077d4:	d501      	bpl.n	80077da <_printf_i+0x13e>
 80077d6:	6019      	str	r1, [r3, #0]
 80077d8:	e002      	b.n	80077e0 <_printf_i+0x144>
 80077da:	066d      	lsls	r5, r5, #25
 80077dc:	d5fb      	bpl.n	80077d6 <_printf_i+0x13a>
 80077de:	8019      	strh	r1, [r3, #0]
 80077e0:	2300      	movs	r3, #0
 80077e2:	9d02      	ldr	r5, [sp, #8]
 80077e4:	6123      	str	r3, [r4, #16]
 80077e6:	e04f      	b.n	8007888 <_printf_i+0x1ec>
 80077e8:	681a      	ldr	r2, [r3, #0]
 80077ea:	1d11      	adds	r1, r2, #4
 80077ec:	6019      	str	r1, [r3, #0]
 80077ee:	6815      	ldr	r5, [r2, #0]
 80077f0:	2100      	movs	r1, #0
 80077f2:	6862      	ldr	r2, [r4, #4]
 80077f4:	0028      	movs	r0, r5
 80077f6:	f000 f94b 	bl	8007a90 <memchr>
 80077fa:	2800      	cmp	r0, #0
 80077fc:	d001      	beq.n	8007802 <_printf_i+0x166>
 80077fe:	1b40      	subs	r0, r0, r5
 8007800:	6060      	str	r0, [r4, #4]
 8007802:	6863      	ldr	r3, [r4, #4]
 8007804:	6123      	str	r3, [r4, #16]
 8007806:	2300      	movs	r3, #0
 8007808:	9a02      	ldr	r2, [sp, #8]
 800780a:	7013      	strb	r3, [r2, #0]
 800780c:	e03c      	b.n	8007888 <_printf_i+0x1ec>
 800780e:	6923      	ldr	r3, [r4, #16]
 8007810:	002a      	movs	r2, r5
 8007812:	9904      	ldr	r1, [sp, #16]
 8007814:	9803      	ldr	r0, [sp, #12]
 8007816:	9d05      	ldr	r5, [sp, #20]
 8007818:	47a8      	blx	r5
 800781a:	1c43      	adds	r3, r0, #1
 800781c:	d03e      	beq.n	800789c <_printf_i+0x200>
 800781e:	6823      	ldr	r3, [r4, #0]
 8007820:	079b      	lsls	r3, r3, #30
 8007822:	d415      	bmi.n	8007850 <_printf_i+0x1b4>
 8007824:	9b07      	ldr	r3, [sp, #28]
 8007826:	68e0      	ldr	r0, [r4, #12]
 8007828:	4298      	cmp	r0, r3
 800782a:	da39      	bge.n	80078a0 <_printf_i+0x204>
 800782c:	0018      	movs	r0, r3
 800782e:	e037      	b.n	80078a0 <_printf_i+0x204>
 8007830:	0022      	movs	r2, r4
 8007832:	2301      	movs	r3, #1
 8007834:	3219      	adds	r2, #25
 8007836:	9904      	ldr	r1, [sp, #16]
 8007838:	9803      	ldr	r0, [sp, #12]
 800783a:	9e05      	ldr	r6, [sp, #20]
 800783c:	47b0      	blx	r6
 800783e:	1c43      	adds	r3, r0, #1
 8007840:	d02c      	beq.n	800789c <_printf_i+0x200>
 8007842:	3501      	adds	r5, #1
 8007844:	68e3      	ldr	r3, [r4, #12]
 8007846:	9a07      	ldr	r2, [sp, #28]
 8007848:	1a9b      	subs	r3, r3, r2
 800784a:	42ab      	cmp	r3, r5
 800784c:	dcf0      	bgt.n	8007830 <_printf_i+0x194>
 800784e:	e7e9      	b.n	8007824 <_printf_i+0x188>
 8007850:	2500      	movs	r5, #0
 8007852:	e7f7      	b.n	8007844 <_printf_i+0x1a8>
 8007854:	2800      	cmp	r0, #0
 8007856:	d0ad      	beq.n	80077b4 <_printf_i+0x118>
 8007858:	9d02      	ldr	r5, [sp, #8]
 800785a:	0039      	movs	r1, r7
 800785c:	f7f8 fcda 	bl	8000214 <__aeabi_uidivmod>
 8007860:	5c73      	ldrb	r3, [r6, r1]
 8007862:	3d01      	subs	r5, #1
 8007864:	702b      	strb	r3, [r5, #0]
 8007866:	2800      	cmp	r0, #0
 8007868:	d1f7      	bne.n	800785a <_printf_i+0x1be>
 800786a:	2f08      	cmp	r7, #8
 800786c:	d109      	bne.n	8007882 <_printf_i+0x1e6>
 800786e:	6823      	ldr	r3, [r4, #0]
 8007870:	07db      	lsls	r3, r3, #31
 8007872:	d506      	bpl.n	8007882 <_printf_i+0x1e6>
 8007874:	6863      	ldr	r3, [r4, #4]
 8007876:	6922      	ldr	r2, [r4, #16]
 8007878:	4293      	cmp	r3, r2
 800787a:	dc02      	bgt.n	8007882 <_printf_i+0x1e6>
 800787c:	2330      	movs	r3, #48	; 0x30
 800787e:	3d01      	subs	r5, #1
 8007880:	702b      	strb	r3, [r5, #0]
 8007882:	9b02      	ldr	r3, [sp, #8]
 8007884:	1b5b      	subs	r3, r3, r5
 8007886:	6123      	str	r3, [r4, #16]
 8007888:	9b05      	ldr	r3, [sp, #20]
 800788a:	aa07      	add	r2, sp, #28
 800788c:	9300      	str	r3, [sp, #0]
 800788e:	0021      	movs	r1, r4
 8007890:	9b04      	ldr	r3, [sp, #16]
 8007892:	9803      	ldr	r0, [sp, #12]
 8007894:	f7ff fe94 	bl	80075c0 <_printf_common>
 8007898:	1c43      	adds	r3, r0, #1
 800789a:	d1b8      	bne.n	800780e <_printf_i+0x172>
 800789c:	2001      	movs	r0, #1
 800789e:	4240      	negs	r0, r0
 80078a0:	b009      	add	sp, #36	; 0x24
 80078a2:	bdf0      	pop	{r4, r5, r6, r7, pc}
 80078a4:	08007f55 	.word	0x08007f55
 80078a8:	08007f66 	.word	0x08007f66

080078ac <_putc_r>:
 80078ac:	b570      	push	{r4, r5, r6, lr}
 80078ae:	0006      	movs	r6, r0
 80078b0:	000d      	movs	r5, r1
 80078b2:	0014      	movs	r4, r2
 80078b4:	2800      	cmp	r0, #0
 80078b6:	d004      	beq.n	80078c2 <_putc_r+0x16>
 80078b8:	6983      	ldr	r3, [r0, #24]
 80078ba:	2b00      	cmp	r3, #0
 80078bc:	d101      	bne.n	80078c2 <_putc_r+0x16>
 80078be:	f7ff fb8f 	bl	8006fe0 <__sinit>
 80078c2:	4b12      	ldr	r3, [pc, #72]	; (800790c <_putc_r+0x60>)
 80078c4:	429c      	cmp	r4, r3
 80078c6:	d111      	bne.n	80078ec <_putc_r+0x40>
 80078c8:	6874      	ldr	r4, [r6, #4]
 80078ca:	68a3      	ldr	r3, [r4, #8]
 80078cc:	3b01      	subs	r3, #1
 80078ce:	60a3      	str	r3, [r4, #8]
 80078d0:	2b00      	cmp	r3, #0
 80078d2:	da05      	bge.n	80078e0 <_putc_r+0x34>
 80078d4:	69a2      	ldr	r2, [r4, #24]
 80078d6:	4293      	cmp	r3, r2
 80078d8:	db12      	blt.n	8007900 <_putc_r+0x54>
 80078da:	b2eb      	uxtb	r3, r5
 80078dc:	2b0a      	cmp	r3, #10
 80078de:	d00f      	beq.n	8007900 <_putc_r+0x54>
 80078e0:	6823      	ldr	r3, [r4, #0]
 80078e2:	b2e8      	uxtb	r0, r5
 80078e4:	1c5a      	adds	r2, r3, #1
 80078e6:	6022      	str	r2, [r4, #0]
 80078e8:	701d      	strb	r5, [r3, #0]
 80078ea:	bd70      	pop	{r4, r5, r6, pc}
 80078ec:	4b08      	ldr	r3, [pc, #32]	; (8007910 <_putc_r+0x64>)
 80078ee:	429c      	cmp	r4, r3
 80078f0:	d101      	bne.n	80078f6 <_putc_r+0x4a>
 80078f2:	68b4      	ldr	r4, [r6, #8]
 80078f4:	e7e9      	b.n	80078ca <_putc_r+0x1e>
 80078f6:	4b07      	ldr	r3, [pc, #28]	; (8007914 <_putc_r+0x68>)
 80078f8:	429c      	cmp	r4, r3
 80078fa:	d1e6      	bne.n	80078ca <_putc_r+0x1e>
 80078fc:	68f4      	ldr	r4, [r6, #12]
 80078fe:	e7e4      	b.n	80078ca <_putc_r+0x1e>
 8007900:	0022      	movs	r2, r4
 8007902:	0029      	movs	r1, r5
 8007904:	0030      	movs	r0, r6
 8007906:	f7ff f9a7 	bl	8006c58 <__swbuf_r>
 800790a:	e7ee      	b.n	80078ea <_putc_r+0x3e>
 800790c:	08007f04 	.word	0x08007f04
 8007910:	08007f24 	.word	0x08007f24
 8007914:	08007ee4 	.word	0x08007ee4

08007918 <_sbrk_r>:
 8007918:	2300      	movs	r3, #0
 800791a:	b570      	push	{r4, r5, r6, lr}
 800791c:	4c06      	ldr	r4, [pc, #24]	; (8007938 <_sbrk_r+0x20>)
 800791e:	0005      	movs	r5, r0
 8007920:	0008      	movs	r0, r1
 8007922:	6023      	str	r3, [r4, #0]
 8007924:	f7fb fe66 	bl	80035f4 <_sbrk>
 8007928:	1c43      	adds	r3, r0, #1
 800792a:	d103      	bne.n	8007934 <_sbrk_r+0x1c>
 800792c:	6823      	ldr	r3, [r4, #0]
 800792e:	2b00      	cmp	r3, #0
 8007930:	d000      	beq.n	8007934 <_sbrk_r+0x1c>
 8007932:	602b      	str	r3, [r5, #0]
 8007934:	bd70      	pop	{r4, r5, r6, pc}
 8007936:	46c0      	nop			; (mov r8, r8)
 8007938:	20000230 	.word	0x20000230

0800793c <__sread>:
 800793c:	b570      	push	{r4, r5, r6, lr}
 800793e:	000c      	movs	r4, r1
 8007940:	250e      	movs	r5, #14
 8007942:	5f49      	ldrsh	r1, [r1, r5]
 8007944:	f000 f8b2 	bl	8007aac <_read_r>
 8007948:	2800      	cmp	r0, #0
 800794a:	db03      	blt.n	8007954 <__sread+0x18>
 800794c:	6d63      	ldr	r3, [r4, #84]	; 0x54
 800794e:	181b      	adds	r3, r3, r0
 8007950:	6563      	str	r3, [r4, #84]	; 0x54
 8007952:	bd70      	pop	{r4, r5, r6, pc}
 8007954:	89a3      	ldrh	r3, [r4, #12]
 8007956:	4a02      	ldr	r2, [pc, #8]	; (8007960 <__sread+0x24>)
 8007958:	4013      	ands	r3, r2
 800795a:	81a3      	strh	r3, [r4, #12]
 800795c:	e7f9      	b.n	8007952 <__sread+0x16>
 800795e:	46c0      	nop			; (mov r8, r8)
 8007960:	ffffefff 	.word	0xffffefff

08007964 <__swrite>:
 8007964:	b5f8      	push	{r3, r4, r5, r6, r7, lr}
 8007966:	001f      	movs	r7, r3
 8007968:	898b      	ldrh	r3, [r1, #12]
 800796a:	0005      	movs	r5, r0
 800796c:	000c      	movs	r4, r1
 800796e:	0016      	movs	r6, r2
 8007970:	05db      	lsls	r3, r3, #23
 8007972:	d505      	bpl.n	8007980 <__swrite+0x1c>
 8007974:	230e      	movs	r3, #14
 8007976:	5ec9      	ldrsh	r1, [r1, r3]
 8007978:	2200      	movs	r2, #0
 800797a:	2302      	movs	r3, #2
 800797c:	f000 f874 	bl	8007a68 <_lseek_r>
 8007980:	89a3      	ldrh	r3, [r4, #12]
 8007982:	4a05      	ldr	r2, [pc, #20]	; (8007998 <__swrite+0x34>)
 8007984:	0028      	movs	r0, r5
 8007986:	4013      	ands	r3, r2
 8007988:	81a3      	strh	r3, [r4, #12]
 800798a:	0032      	movs	r2, r6
 800798c:	230e      	movs	r3, #14
 800798e:	5ee1      	ldrsh	r1, [r4, r3]
 8007990:	003b      	movs	r3, r7
 8007992:	f000 f81f 	bl	80079d4 <_write_r>
 8007996:	bdf8      	pop	{r3, r4, r5, r6, r7, pc}
 8007998:	ffffefff 	.word	0xffffefff

0800799c <__sseek>:
 800799c:	b570      	push	{r4, r5, r6, lr}
 800799e:	000c      	movs	r4, r1
 80079a0:	250e      	movs	r5, #14
 80079a2:	5f49      	ldrsh	r1, [r1, r5]
 80079a4:	f000 f860 	bl	8007a68 <_lseek_r>
 80079a8:	89a3      	ldrh	r3, [r4, #12]
 80079aa:	1c42      	adds	r2, r0, #1
 80079ac:	d103      	bne.n	80079b6 <__sseek+0x1a>
 80079ae:	4a05      	ldr	r2, [pc, #20]	; (80079c4 <__sseek+0x28>)
 80079b0:	4013      	ands	r3, r2
 80079b2:	81a3      	strh	r3, [r4, #12]
 80079b4:	bd70      	pop	{r4, r5, r6, pc}
 80079b6:	2280      	movs	r2, #128	; 0x80
 80079b8:	0152      	lsls	r2, r2, #5
 80079ba:	4313      	orrs	r3, r2
 80079bc:	81a3      	strh	r3, [r4, #12]
 80079be:	6560      	str	r0, [r4, #84]	; 0x54
 80079c0:	e7f8      	b.n	80079b4 <__sseek+0x18>
 80079c2:	46c0      	nop			; (mov r8, r8)
 80079c4:	ffffefff 	.word	0xffffefff

080079c8 <__sclose>:
 80079c8:	b510      	push	{r4, lr}
 80079ca:	230e      	movs	r3, #14
 80079cc:	5ec9      	ldrsh	r1, [r1, r3]
 80079ce:	f000 f815 	bl	80079fc <_close_r>
 80079d2:	bd10      	pop	{r4, pc}

080079d4 <_write_r>:
 80079d4:	b570      	push	{r4, r5, r6, lr}
 80079d6:	0005      	movs	r5, r0
 80079d8:	0008      	movs	r0, r1
 80079da:	0011      	movs	r1, r2
 80079dc:	2200      	movs	r2, #0
 80079de:	4c06      	ldr	r4, [pc, #24]	; (80079f8 <_write_r+0x24>)
 80079e0:	6022      	str	r2, [r4, #0]
 80079e2:	001a      	movs	r2, r3
 80079e4:	f7fb fc92 	bl	800330c <_write>
 80079e8:	1c43      	adds	r3, r0, #1
 80079ea:	d103      	bne.n	80079f4 <_write_r+0x20>
 80079ec:	6823      	ldr	r3, [r4, #0]
 80079ee:	2b00      	cmp	r3, #0
 80079f0:	d000      	beq.n	80079f4 <_write_r+0x20>
 80079f2:	602b      	str	r3, [r5, #0]
 80079f4:	bd70      	pop	{r4, r5, r6, pc}
 80079f6:	46c0      	nop			; (mov r8, r8)
 80079f8:	20000230 	.word	0x20000230

080079fc <_close_r>:
 80079fc:	2300      	movs	r3, #0
 80079fe:	b570      	push	{r4, r5, r6, lr}
 8007a00:	4c06      	ldr	r4, [pc, #24]	; (8007a1c <_close_r+0x20>)
 8007a02:	0005      	movs	r5, r0
 8007a04:	0008      	movs	r0, r1
 8007a06:	6023      	str	r3, [r4, #0]
 8007a08:	f7fb fcae 	bl	8003368 <_close>
 8007a0c:	1c43      	adds	r3, r0, #1
 8007a0e:	d103      	bne.n	8007a18 <_close_r+0x1c>
 8007a10:	6823      	ldr	r3, [r4, #0]
 8007a12:	2b00      	cmp	r3, #0
 8007a14:	d000      	beq.n	8007a18 <_close_r+0x1c>
 8007a16:	602b      	str	r3, [r5, #0]
 8007a18:	bd70      	pop	{r4, r5, r6, pc}
 8007a1a:	46c0      	nop			; (mov r8, r8)
 8007a1c:	20000230 	.word	0x20000230

08007a20 <_fstat_r>:
 8007a20:	2300      	movs	r3, #0
 8007a22:	b570      	push	{r4, r5, r6, lr}
 8007a24:	4c06      	ldr	r4, [pc, #24]	; (8007a40 <_fstat_r+0x20>)
 8007a26:	0005      	movs	r5, r0
 8007a28:	0008      	movs	r0, r1
 8007a2a:	0011      	movs	r1, r2
 8007a2c:	6023      	str	r3, [r4, #0]
 8007a2e:	f7fb fced 	bl	800340c <_fstat>
 8007a32:	1c43      	adds	r3, r0, #1
 8007a34:	d103      	bne.n	8007a3e <_fstat_r+0x1e>
 8007a36:	6823      	ldr	r3, [r4, #0]
 8007a38:	2b00      	cmp	r3, #0
 8007a3a:	d000      	beq.n	8007a3e <_fstat_r+0x1e>
 8007a3c:	602b      	str	r3, [r5, #0]
 8007a3e:	bd70      	pop	{r4, r5, r6, pc}
 8007a40:	20000230 	.word	0x20000230

08007a44 <_isatty_r>:
 8007a44:	2300      	movs	r3, #0
 8007a46:	b570      	push	{r4, r5, r6, lr}
 8007a48:	4c06      	ldr	r4, [pc, #24]	; (8007a64 <_isatty_r+0x20>)
 8007a4a:	0005      	movs	r5, r0
 8007a4c:	0008      	movs	r0, r1
 8007a4e:	6023      	str	r3, [r4, #0]
 8007a50:	f7fb fc46 	bl	80032e0 <_isatty>
 8007a54:	1c43      	adds	r3, r0, #1
 8007a56:	d103      	bne.n	8007a60 <_isatty_r+0x1c>
 8007a58:	6823      	ldr	r3, [r4, #0]
 8007a5a:	2b00      	cmp	r3, #0
 8007a5c:	d000      	beq.n	8007a60 <_isatty_r+0x1c>
 8007a5e:	602b      	str	r3, [r5, #0]
 8007a60:	bd70      	pop	{r4, r5, r6, pc}
 8007a62:	46c0      	nop			; (mov r8, r8)
 8007a64:	20000230 	.word	0x20000230

08007a68 <_lseek_r>:
 8007a68:	b570      	push	{r4, r5, r6, lr}
 8007a6a:	0005      	movs	r5, r0
 8007a6c:	0008      	movs	r0, r1
 8007a6e:	0011      	movs	r1, r2
 8007a70:	2200      	movs	r2, #0
 8007a72:	4c06      	ldr	r4, [pc, #24]	; (8007a8c <_lseek_r+0x24>)
 8007a74:	6022      	str	r2, [r4, #0]
 8007a76:	001a      	movs	r2, r3
 8007a78:	f7fb fc8d 	bl	8003396 <_lseek>
 8007a7c:	1c43      	adds	r3, r0, #1
 8007a7e:	d103      	bne.n	8007a88 <_lseek_r+0x20>
 8007a80:	6823      	ldr	r3, [r4, #0]
 8007a82:	2b00      	cmp	r3, #0
 8007a84:	d000      	beq.n	8007a88 <_lseek_r+0x20>
 8007a86:	602b      	str	r3, [r5, #0]
 8007a88:	bd70      	pop	{r4, r5, r6, pc}
 8007a8a:	46c0      	nop			; (mov r8, r8)
 8007a8c:	20000230 	.word	0x20000230

08007a90 <memchr>:
 8007a90:	b2c9      	uxtb	r1, r1
 8007a92:	1882      	adds	r2, r0, r2
 8007a94:	4290      	cmp	r0, r2
 8007a96:	d101      	bne.n	8007a9c <memchr+0xc>
 8007a98:	2000      	movs	r0, #0
 8007a9a:	4770      	bx	lr
 8007a9c:	7803      	ldrb	r3, [r0, #0]
 8007a9e:	428b      	cmp	r3, r1
 8007aa0:	d0fb      	beq.n	8007a9a <memchr+0xa>
 8007aa2:	3001      	adds	r0, #1
 8007aa4:	e7f6      	b.n	8007a94 <memchr+0x4>

08007aa6 <__malloc_lock>:
 8007aa6:	4770      	bx	lr

08007aa8 <__malloc_unlock>:
 8007aa8:	4770      	bx	lr
	...

08007aac <_read_r>:
 8007aac:	b570      	push	{r4, r5, r6, lr}
 8007aae:	0005      	movs	r5, r0
 8007ab0:	0008      	movs	r0, r1
 8007ab2:	0011      	movs	r1, r2
 8007ab4:	2200      	movs	r2, #0
 8007ab6:	4c06      	ldr	r4, [pc, #24]	; (8007ad0 <_read_r+0x24>)
 8007ab8:	6022      	str	r2, [r4, #0]
 8007aba:	001a      	movs	r2, r3
 8007abc:	f7fb fc7c 	bl	80033b8 <_read>
 8007ac0:	1c43      	adds	r3, r0, #1
 8007ac2:	d103      	bne.n	8007acc <_read_r+0x20>
 8007ac4:	6823      	ldr	r3, [r4, #0]
 8007ac6:	2b00      	cmp	r3, #0
 8007ac8:	d000      	beq.n	8007acc <_read_r+0x20>
 8007aca:	602b      	str	r3, [r5, #0]
 8007acc:	bd70      	pop	{r4, r5, r6, pc}
 8007ace:	46c0      	nop			; (mov r8, r8)
 8007ad0:	20000230 	.word	0x20000230

08007ad4 <_init>:
 8007ad4:	b5f8      	push	{r3, r4, r5, r6, r7, lr}
 8007ad6:	46c0      	nop			; (mov r8, r8)
 8007ad8:	bcf8      	pop	{r3, r4, r5, r6, r7}
 8007ada:	bc08      	pop	{r3}
 8007adc:	469e      	mov	lr, r3
 8007ade:	4770      	bx	lr

08007ae0 <_fini>:
 8007ae0:	b5f8      	push	{r3, r4, r5, r6, r7, lr}
 8007ae2:	46c0      	nop			; (mov r8, r8)
 8007ae4:	bcf8      	pop	{r3, r4, r5, r6, r7}
 8007ae6:	bc08      	pop	{r3}
 8007ae8:	469e      	mov	lr, r3
 8007aea:	4770      	bx	lr
